
ATmega328P.elf:     file format elf32-avr

Sections:
Idx Name          Size      VMA       LMA       File off  Algn
  0 .data         000000ee  00800100  00005880  00005914  2**0
                  CONTENTS, ALLOC, LOAD, DATA
  1 .text         00005880  00000000  00000000  00000094  2**1
                  CONTENTS, ALLOC, LOAD, READONLY, CODE
  2 .bss          00000058  008001ee  008001ee  00005a02  2**0
                  ALLOC
  3 .comment      00000030  00000000  00000000  00005a02  2**0
                  CONTENTS, READONLY
  4 .note.gnu.avr.deviceinfo 00000040  00000000  00000000  00005a34  2**2
                  CONTENTS, READONLY
  5 .debug_aranges 00000340  00000000  00000000  00005a78  2**3
                  CONTENTS, READONLY, DEBUGGING
  6 .debug_info   0000cda7  00000000  00000000  00005db8  2**0
                  CONTENTS, READONLY, DEBUGGING
  7 .debug_abbrev 00001667  00000000  00000000  00012b5f  2**0
                  CONTENTS, READONLY, DEBUGGING
  8 .debug_line   00002b49  00000000  00000000  000141c6  2**0
                  CONTENTS, READONLY, DEBUGGING
  9 .debug_frame  00000c40  00000000  00000000  00016d10  2**2
                  CONTENTS, READONLY, DEBUGGING
 10 .debug_str    000013f5  00000000  00000000  00017950  2**0
                  CONTENTS, READONLY, DEBUGGING
 11 .debug_loc    00004720  00000000  00000000  00018d45  2**0
                  CONTENTS, READONLY, DEBUGGING
 12 .debug_ranges 000002d8  00000000  00000000  0001d465  2**0
                  CONTENTS, READONLY, DEBUGGING

Disassembly of section .text:

00000000 <__vectors>:
       0:	0c 94 b2 12 	jmp	0x2564	; 0x2564 <__ctors_end>
       4:	0c 94 7c 13 	jmp	0x26f8	; 0x26f8 <__vector_1>
       8:	0c 94 8b 13 	jmp	0x2716	; 0x2716 <__vector_2>
       c:	0c 94 da 12 	jmp	0x25b4	; 0x25b4 <__bad_interrupt>
      10:	0c 94 da 12 	jmp	0x25b4	; 0x25b4 <__bad_interrupt>
      14:	0c 94 da 12 	jmp	0x25b4	; 0x25b4 <__bad_interrupt>
      18:	0c 94 da 12 	jmp	0x25b4	; 0x25b4 <__bad_interrupt>
      1c:	0c 94 57 13 	jmp	0x26ae	; 0x26ae <__vector_7>
      20:	0c 94 da 12 	jmp	0x25b4	; 0x25b4 <__bad_interrupt>
      24:	0c 94 da 12 	jmp	0x25b4	; 0x25b4 <__bad_interrupt>
      28:	0c 94 da 12 	jmp	0x25b4	; 0x25b4 <__bad_interrupt>
      2c:	0c 94 da 12 	jmp	0x25b4	; 0x25b4 <__bad_interrupt>
      30:	0c 94 da 12 	jmp	0x25b4	; 0x25b4 <__bad_interrupt>
      34:	0c 94 da 12 	jmp	0x25b4	; 0x25b4 <__bad_interrupt>
      38:	0c 94 da 12 	jmp	0x25b4	; 0x25b4 <__bad_interrupt>
      3c:	0c 94 da 12 	jmp	0x25b4	; 0x25b4 <__bad_interrupt>
      40:	0c 94 08 13 	jmp	0x2610	; 0x2610 <__vector_16>
      44:	0c 94 da 12 	jmp	0x25b4	; 0x25b4 <__bad_interrupt>
      48:	0c 94 da 12 	jmp	0x25b4	; 0x25b4 <__bad_interrupt>
      4c:	0c 94 da 12 	jmp	0x25b4	; 0x25b4 <__bad_interrupt>
      50:	0c 94 da 12 	jmp	0x25b4	; 0x25b4 <__bad_interrupt>
      54:	0c 94 da 12 	jmp	0x25b4	; 0x25b4 <__bad_interrupt>
      58:	0c 94 da 12 	jmp	0x25b4	; 0x25b4 <__bad_interrupt>
      5c:	0c 94 da 12 	jmp	0x25b4	; 0x25b4 <__bad_interrupt>
      60:	0c 94 da 12 	jmp	0x25b4	; 0x25b4 <__bad_interrupt>
      64:	0c 94 da 12 	jmp	0x25b4	; 0x25b4 <__bad_interrupt>

00000068 <__trampolines_end>:
      68:	00 00       	nop
      6a:	00 00       	nop
      6c:	00 00       	nop
      6e:	00 0f       	add	r16, r16
      70:	ff 00       	.word	0x00ff	; ????
      72:	00 00       	nop
      74:	fa aa       	std	Y+50, r15	; 0x32
      76:	c0 00       	.word	0x00c0	; ????
      78:	03 aa       	std	Z+51, r0	; 0x33
      7a:	aa b0       	in	r10, 0x0a	; 10
      7c:	00 0e       	add	r0, r16
      7e:	aa ff       	.word	0xffaa	; ????
      80:	ac 00       	.word	0x00ac	; ????
      82:	0e ab       	std	Y+54, r16	; 0x36
      84:	ff ec       	ldi	r31, 0xCF	; 207
      86:	00 35       	cpi	r16, 0x50	; 80
      88:	af ff       	.word	0xffaf	; ????
      8a:	fc 00       	.word	0x00fc	; ????
      8c:	35 5f       	subi	r19, 0xF5	; 245
      8e:	cf 3c       	cpi	r28, 0xCF	; 207
      90:	00 35       	cpi	r16, 0x50	; 80
      92:	5f cf       	rjmp	.-322    	; 0xffffff52 <__eeprom_end+0xff7eff52>
      94:	3c 00       	.word	0x003c	; ????
      96:	f5 5f       	subi	r31, 0xF5	; 245
      98:	ff fc       	.word	0xfcff	; ????
      9a:	00 ff       	sbrs	r16, 0
      9c:	5c ff       	.word	0xff5c	; ????
      9e:	3c 00       	.word	0x003c	; ????
      a0:	3f ed       	ldi	r19, 0xDF	; 223
      a2:	00 3c       	cpi	r16, 0xC0	; 192
      a4:	00 03       	mulsu	r16, r16
      a6:	ad 50       	subi	r26, 0x0D	; 13
      a8:	7c 00       	.word	0x007c	; ????
      aa:	03 ae       	std	Z+59, r0	; 0x3b
      ac:	50 7c       	andi	r21, 0xC0	; 192
      ae:	00 0e       	add	r0, r16
      b0:	a6 60       	ori	r26, 0x06	; 6
      b2:	9c 00       	.word	0x009c	; ????
      b4:	0e aa       	std	Y+54, r0	; 0x36
      b6:	60 ac       	ldd	r6, Z+56	; 0x38
      b8:	00 0e       	add	r0, r16
      ba:	aa 60       	ori	r26, 0x0A	; 10
      bc:	ac 00       	.word	0x00ac	; ????
      be:	fa a5       	ldd	r31, Y+42	; 0x2a
      c0:	80 2c       	mov	r8, r0
      c2:	03 55       	subi	r16, 0x53	; 83
      c4:	5a 00       	.word	0x005a	; ????
      c6:	2b 0e       	add	r2, r27
      c8:	aa a0       	ldd	r10, Y+34	; 0x22
      ca:	00 0b       	sbc	r16, r16

000000cc <_ZL7bigStar>:
      cc:	20 20 d8 20 20                                        .  

000000d1 <_ZL10smallStar1>:
      d1:	40 e0 40 00 00                                      @.@..

000000d6 <_ZL10smallStar0>:
      d6:	c0 c0 00 00 00                                      .....

000000db <_ZL8moonTile>:
      db:	07 00 1c 00 38 00 78 00 70 00 f0 00 f0 00 f0 00     ....8.x.p.......
      eb:	f8 01 f8 01 fc 03 7f 0e 7f fe 3f fc 1f f8 07 e0     ..........?.....

000000fb <_ZL10creditMenu>:
	...
     10b:	00 10 87 f0 1f e3 c8 f5 1e a1 08 07 91 fc 7a 9f     ..............z.
     11b:	90 20 7e 80 10 04 80 48 85 10 a7 e8 08 50 20 0a     . ~....H.....P .
     12b:	80 10 20 00 80 10 04 80 48 ed 10 a0 08 07 90 50     .. .....H......P
     13b:	7b 89 10 50 3c 80 10 1f e3 c8 85 10 a3 cc 00 11     {..P<...........
     14b:	8c 12 89 70 88 42 cf f8 03 02 08 f5 10 e4 28 1f     ...p.B........(.
     15b:	d0 00 22 89 13 06 42 80 80 3f f2 08 00 10 a3 c8     .."...B..?......
     16b:	02 13 fe 40 09 10 00 3c 87 f0 00 43 e8 7f 1e a0     ...@...<...C....
     17b:	00 06 f0 20 1f 9f d0 00 00 80 10 0f c0 08 01 00     ... ............
     18b:	a3 f8 04 10 20 10 80 13 fe 20 00 10 08 00 08 01     .... .... ......
     19b:	00 a0 08 04 00 20 10 80 10 00 3f 80 10 0f c0 08     ..... ....?.....
     1ab:	01 00 a0 08 07 f0 20 1f 80 10 00 00 00 00 00 00     ...... .........
	...
     24f:	1e 43 f0 fe 08 4f d0 00 7c 84 50 3f 40 7f 01 02     .C...O..|.P?@...
     25f:	04 21 40 10 02 3f 40 50 04 04 84 50 21 40 01 02     .!@..?@P...P!@..
     26f:	82 04 21 43 f0 12 00 40 50 1c 04 84 70 21 40 01     ..!C...@P...p!@.
     27f:	04 42 04 21 42 00 10 1e 60 50 04 08 8a 50 3f 40     .B.!B...`P...P?@
     28f:	01 18 32 04 1e 43 f1 ff 21 42 5c 04 10 91 50 00     ..2..C..!B\...P.
     29f:	40 25 00 03 f4 00 41 20 00 1e 42 50 04 20 80 00     @%....A ..BP. ..
     2af:	02 00 25 1f f0 00 00 41 20 7c 00 02 10 04 40 83     ..%....A |....@.
     2bf:	e0 1f c0 24 01 01 fc 3f 4f fc 82 1f cf d0 04 00     ...$...?O.......
     2cf:	84 10 02 00 ff 81 01 04 00 40 00 82 00 40 10 04     .........@...@..
     2df:	00 84 10 05 00 00 01 01 04 00 00 00 7c 00 40 10     ............|.@.
     2ef:	00 00 83 e0 18 c0 00 01 01 fc                       ..........

000002f9 <_ZL9titleMenu>:
     2f9:	00 20 00 00 00 00 00 00 00 00 00 00 00 00 00 00     . ..............
	...
     325:	00 02 00 00 00 00 00 00 00 00 00 00 00 00 00 00     ................
	...
     34d:	40 00 00 00 00 00 00 00 00 00 00 02 00 00 00 00     @...............
	...
     365:	00 00 00 80 00 00 00 00 00 00 00 00 00 00 00 01     ................
     375:	50 00 00 00 00 00 00 00 00 00 00 00 00 00 00 00     P...............
     385:	00 00 00 00 00 00 40 00 00 00 00 00 00 00 01 00     ......@.........
	...
     39d:	40 00 00 00 00 00 00 00 00 00 00 00 00 00 00 00     @...............
	...
     3c9:	00 01 00 00 00 00 00 00 00 00 00 00 00 00 00 00     ................
	...
     3e1:	00 05 00 00 00 00 00 00 00 00 00 00 00 00 00 00     ................
	...
     3fd:	00 01 00 00 00 00 00 00 00 00 00 00 00 05 00 00     ................
	...
     425:	00 06 40 00 00 00 00 00 00 00 00 00 00 00 00 00     ..@.............
	...
     445:	00 01 00 00 00 00 00 00 00 01 00 00 00 00 00 00     ................
	...
     45d:	00 00 20 00 00 00 00 00 00 00 00 00 00 00 00 00     .. .............
     46d:	00 04 00 00 00 00 00 00 00 00 00 00 00 00 00 00     ................
	...
     495:	00 10 00 00 00 00 00 00 00 00 00 00 00 00 00 00     ................
     4a5:	00 00 00 00 00 02 00 00 00 00 00 00 00 04 00 00     ................
	...
     4bd:	00 80 00 00 00 00 00 00 00 00 00 00 00 00 00 00     ................
	...
     4f5:	10 00 00 00 00 00 00 00 00 00 00 00 00 00 00 00     ................
     505:	00 00 00 00 00 01 00 00 00 00 00 00 00 00 00 00     ................
	...
     51d:	10 00 00 00 00 00 00 00 00 00 00 00 00 00 00 00     ................
     52d:	00 00 00 00 00 06 40 00 00 00 00 00 00 00 00 00     ......@.........
     53d:	00 00 00 00 00 00 00 01 65 00 00 00 00 00 00 00     ........e.......
	...
     559:	00 01 00 00 00 00 00 00 00 00 00 00 00 00 00 00     ................
     569:	00 00 00 00 10 00 00 00 00 00 00 00 00 00 00 00     ................
     579:	00 00 00 00 00 0f ff ff f0 0f ff ff ff 0f ff ff     ................
     589:	f0 00 00 3f c0 03 fc 03 ff ff c0 03 ff ff c0 3f     ...?...........?
     599:	ff ff c0 00 00 00 00 00 00 00 00 00 00 0f ff ff     ................
     5a9:	f0 0f ff ff ff 0f ff ff f0 00 00 3f c0 03 fc 03     ...........?....
     5b9:	ff ff c0 03 ff ff c0 3f ff ff c0 00 10 00 00 00     .......?........
     5c9:	00 00 00 00 00 0f f0 00 ff 0f f0 00 00 0f f0 00     ................
     5d9:	ff 00 50 3f c0 03 fc 3f c0 03 fc 3f c0 07 fc 3f     ..P?...?...?...?
     5e9:	c0 03 fc 00 64 00 00 00 00 00 00 00 00 0f f0 00     ....d...........
     5f9:	ff 0f f0 00 00 0f f0 00 ff 00 50 3f c0 03 fc 3f     ..........P?...?
     609:	c0 03 fc 3f c0 17 fc 3f c0 03 fc 00 10 00 00 00     ...?...?........
     619:	00 00 00 80 00 0f f0 00 ff 0f f0 00 00 0f f0 00     ................
     629:	ff 00 00 3f c2 03 fc 3f c0 03 fc 3f c0 07 fc 3f     ...?...?...?...?
     639:	c0 03 fc 00 00 00 00 00 00 00 00 00 00 0f f0 00     ................
     649:	ff 0f f0 00 00 0f f0 00 ff 00 00 3f c0 03 fc 3f     ...........?...?
     659:	c0 03 fc 3f c0 03 fc 3f c0 03 fc 00 00 00 00 00     ...?...?........
     669:	00 00 00 00 80 0f f0 00 ff 0f ff ff 00 0f f0 00     ................
     679:	ff 00 00 3f ff ff fc 3f c0 03 fc 3f c0 03 fc 3f     ...?...?...?...?
     689:	c0 03 fc 00 00 00 00 00 00 00 00 00 00 0f f0 00     ................
     699:	ff 0f ff ff 00 0f f8 00 ff 00 00 3f ff ff fc 3f     ...........?...?
     6a9:	c0 03 fc 7f c0 03 fc 3f c0 03 fc 00 00 00 00 00     .......?........
     6b9:	00 00 00 00 00 0f ff ff f0 0f f0 00 00 0f f0 00     ................
     6c9:	ff 00 00 3f c0 03 fc 3f c0 03 fc 3f c0 03 fc 3f     ...?...?...?...?
     6d9:	c0 03 fc 00 00 00 00 00 00 00 00 00 00 0f ff ff     ................
     6e9:	f0 0f f0 00 00 0f f0 00 ff 00 00 3f c0 03 fc 3f     ...........?...?
     6f9:	c0 03 fc 3f c0 03 fc 3f c0 03 fc 00 00 00 00 00     ...?...?........
     709:	00 00 00 00 00 0f f0 00 ff 0f f0 00 00 0f f0 00     ................
     719:	ff 00 00 3f c0 03 fc 3f c0 03 fc 3f c0 03 fc 3f     ...?...?...?...?
     729:	c4 03 fc 00 00 00 00 00 00 00 00 00 00 0f f0 10     ................
     739:	ff 0f f0 00 00 0f f0 00 ff 00 40 3f c0 03 fc 3f     ..........@?...?
     749:	c0 03 fc 3f c0 03 fc 3f c0 03 fc 00 00 00 00 00     ...?...?........
     759:	00 00 00 00 00 0f f0 00 ff 0f ff ff ff 0f ff ff     ................
     769:	f0 00 10 3f c0 03 fc 13 ff ff c0 03 ff ff c0 3f     ...?...........?
     779:	ff ff c0 00 00 00 00 00 00 00 00 00 00 0f f0 00     ................
     789:	ff 0f ff ff ff 0f ff ff f0 00 00 3f c0 03 fc 07     ...........?....
     799:	ff ff c0 03 ff ff c0 3f ff ff c0 00 00 00 00 10     .......?........
     7a9:	00 00 00 55 50 00 00 00 00 00 40 00 00 04 00 00     ...UP.....@.....
     7b9:	40 00 01 00 00 00 00 01 00 00 10 00 01 00 00 00     @...............
	...
     7d1:	00 00 05 55 55 00 05 50 00 00 10 00 00 01 00 00     ...UU..P........
     7e1:	00 00 00 40 00 40 00 00 40 00 04 00 00 40 00 00     ...@.@..@....@..
	...
     7f9:	00 00 15 55 55 40 55 55 00 00 04 04 00 00 40 00     ...UU@UU......@.
     809:	00 00 00 10 00 10 01 00 10 10 01 10 00 00 00 00     ................
	...
     821:	00 00 55 55 55 51 55 55 40 00 01 01 00 00 00 00     ..UUUQUU@.......
     831:	00 00 00 04 04 04 00 00 04 04 00 44 00 04 00 00     ...........D....
	...
     849:	00 00 55 55 55 55 55 55 40 00 00 40 40 40 00 00     ..UUUUUU@..@@@..
     859:	00 00 00 01 01 11 00 10 01 01 00 11 00 01 00 00     ................
     869:	10 00 00 00 00 00 00 00 00 01 55 55 55 55 55 55     ..........UUUUUU
     879:	50 00 00 10 10 3f fc 00 00 04 04 00 40 4f 40 04     P....?......@O@.
     889:	00 40 00 04 40 00 44 00 04 00 00 00 00 00 00 00     .@..@.D.........
     899:	00 01 55 55 55 55 55 55 50 00 00 44 04 3c 0f 7e     ..UUUUUUP..D.<.~
     8a9:	af 3f fd 3f fc 11 1f ff 03 ff d0 01 11 10 11 00     .?.?............
     8b9:	01 10 00 00 00 00 00 00 50 01 55 55 55 55 55 55     ........P.UUUUUU
     8c9:	50 15 40 11 11 3d 0f 3e af bc 4f 7c 4f 3f 4f 07     P.@..=.>..O|O?O.
     8d9:	cf 47 c4 04 44 44 04 40 40 40 00 00 00 00 00 00     .G..DD.@@@......
     8e9:	54 01 55 55 55 55 55 55 51 55 54 44 44 7c 4f be     T.UUUUUUQUTDD|O.
     8f9:	af bc 0f 3c 1f 1f 1f 03 df 13 c1 01 11 11 01 10     ...<............
     909:	10 00 00 00 00 00 00 00 55 14 55 55 55 55 55 55     ........U.UUUUUU
     919:	45 55 55 11 11 3f fe be af be 0f 7c 0f 4f 4f 47     EUU..?.....|.OOG
     929:	cf 07 c4 44 44 44 44 44 44 40 00 00 00 00 00 00     ...DDDDDD@......
     939:	55 55 55 55 55 55 55 55 55 55 55 14 44 7e af be     UUUUUUUUUUU.D~..
     949:	af be 9f 3d 1f 1f 1f 13 d3 ff d1 11 11 11 11 11     ...=............
     959:	11 00 00 00 00 00 00 00 55 55 55 55 55 55 55 55     ........UUUUUUUU
     969:	5a a9 55 55 51 3e af af ff be 8f 7c 4f 4f 5f 47     Z.UUQ>.....|OO_G
     979:	c4 57 c4 44 44 44 44 44 44 40 00 00 00 00 00 00     .W.DDDDDD@......
     989:	55 55 55 55 55 55 55 55 aa aa 95 55 54 55 aa aa     UUUUUUUU...UTU..
     999:	aa aa a1 15 11 11 15 51 17 ff 11 11 11 11 11 11     .......Q........
     9a9:	11 10 00 00 00 00 00 00 55 40 55 55 55 55 55 56     ........U@UUUUUV
     9b9:	aa aa a5 55 55 55 5a aa aa aa a4 45 44 54 45 54     ...UUUZ....EDTET
     9c9:	45 45 44 44 44 44 44 44 6a aa 00 00 00 00 00 00     EEDDDDDDj.......
     9d9:	55 00 05 55 55 55 55 56 aa aa a5 55 55 55 56 95     U..UUUUV...UUUV.
     9e9:	6a aa a5 11 51 15 11 55 11 51 51 11 11 11 11 12     j...Q..U.QQ.....
     9f9:	aa aa a0 00 00 00 00 00 54 00 01 55 55 55 55 5a     ........T..UUUUZ
     a09:	aa aa a9 55 55 55 56 55 5a aa a5 44 54 45 44 55     ...UUUVUZ..DTEDU
     a19:	44 54 54 54 44 44 44 4a aa a8 00 00 00 00 00 00     DTTTDDDJ........
     a29:	50 00 00 54 05 55 55 5a aa aa a9 a9 55 55 55 55     P..T.UUZ....UUUU
     a39:	56 aa 95 51 55 11 55 55 55 15 55 15 55 11 11 1a     V..QU.UUU.U.U...
     a49:	aa a0 00 00 00 00 00 00 40 00 00 40 00 55 55 5a     ........@..@.UUZ
     a59:	aa aa aa aa 55 aa 55 55 56 aa aa 94 55 44 55 55     ....U.UUV...UDUU
     a69:	54 45 55 55 15 44 44 6a aa a0 00 00 00 00 00 00     TEUU.DDj........
     a79:	50 00 00 00 00 55 55 5a aa aa aa aa 9a aa a5 55     P....UUZ.......U
     a89:	56 55 aa a9 15 55 15 55 55 51 55 55 55 51 11 2a     VU...U.UUQUUUQ.*
     a99:	a4 00 00 00 00 00 00 00 55 00 00 00 00 15 55 5a     ........U.....UZ
     aa9:	55 aa aa aa aa aa a9 55 55 55 6a aa 55 55 45 55     U......UUUj.UUEU
     ab9:	55 54 55 55 6a 94 44 6a 90 00 00 00 00 02 aa a8     UTUUj.Dj........
     ac9:	55 40 00 05 54 15 55 55 55 5a a9 56 aa aa aa 55     U@..T.UUUZ.V...U
     ad9:	55 55 5a aa 51 55 55 55 55 55 15 56 aa a9 1a 95     UUZ.QUUUUU.V....
     ae9:	50 00 00 00 00 2a aa aa 55 50 00 55 55 55 55 55     P....*..UP.UUUUU
     af9:	55 56 95 55 6a aa aa 55 55 55 56 aa 94 55 54 55     UV.Uj..UUUV..UTU
     b09:	55 55 55 5a aa aa 69 55 40 00 00 00 00 aa aa aa     UUUZ..iU@.......
     b19:	55 54 01 55 55 55 55 55 55 56 55 55 5a aa aa 95     UT.UUUUUUVUUZ...
     b29:	55 55 55 aa 95 15 55 15 55 55 51 5a aa aa a9 55     UUU...U.UUQZ...U
     b39:	40 00 00 00 00 aa aa aa 55 55 05 55 55 55 50 00     @.......UU.UUUP.
     b49:	15 55 55 55 56 aa aa 95 55 aa 95 aa 95 55 55 55     .UUUV...U....UUU
     b59:	95 55 54 6a aa aa a5 55 40 00 00 0a a8 aa aa aa     .UTj...U@.......
     b69:	55 55 00 15 55 55 00 00 01 55 55 55 56 55 aa 95     UU..UU...UUUVU..
     b79:	5a aa a9 aa 95 55 55 55 65 55 55 2a aa aa a5 55     Z....UUUeUU*...U
     b89:	40 00 00 aa aa aa aa aa 55 55 40 01 55 54 00 00     @.......UU@.UT..
     b99:	00 55 55 55 55 55 6a 95 6a aa aa aa 55 55 55 55     .UUUUUj.j...UUUU
     ba9:	59 95 aa 6a aa aa a5 55 50 00 02 aa aa aa aa aa     Y..j...UP.......
     bb9:	55 55 41 54 55 54 00 00 00 15 01 55 55 55 6a 55     UUATUT.....UUUjU
     bc9:	6a aa aa aa a5 55 56 55 56 6a aa aa aa aa a5 55     j....UVUVj.....U
     bd9:	50 00 02 aa aa aa aa aa 55 55 45 55 55 50 00 00     P.......UUEUUP..
     be9:	00 10 00 55 55 55 5a a5 6a aa aa aa a5 55 55 95     ...UUUZ.j....UU.
     bf9:	56 aa aa aa aa aa a5 55 54 00 0a aa aa aa aa aa     V......UT.......
     c09:	55 55 55 55 00 50 00 00 00 00 15 55 55 55 aa aa     UUUU.P.....UUU..
     c19:	6a aa aa aa aa a9 55 55 aa aa aa aa aa aa a9 55     j.....UU.......U
     c29:	40 01 5a aa aa aa aa aa 55 55 55 50 00 00 00 00     @.Z.....UUUP....
     c39:	00 01 55 55 55 56 aa aa 9a aa 00 0a aa aa 95 59     ..UUUV.........Y
     c49:	5a aa aa aa aa aa aa 55 00 15 5a aa aa aa aa aa     Z......U..Z.....
     c59:	55 55 55 40 00 00 00 01 54 05 55 55 55 55 6a aa     UUU@....T.UUUUj.
     c69:	aa 80 00 00 2a aa a5 56 55 66 6a aa aa aa aa 54     ....*..VUfj....T
     c79:	00 55 5a aa aa aa aa aa 55 50 05 00 00 00 00 05     .UZ.....UP......
     c89:	55 45 55 55 55 55 55 aa aa 00 00 00 02 aa a9 55     UEUUUUU........U
     c99:	95 99 99 99 99 aa a9 55 50 55 5a aa aa aa a5 56     .......UPUZ....V
     ca9:	55 40 01 00 00 00 00 00 05 55 55 55 55 55 55 5a     U@.......UUUUUUZ
     cb9:	a8 00 00 00 00 aa a9 59 65 66 66 66 6a aa a5 55     .......Yefffj..U
     cc9:	54 55 5a aa aa aa 95 55 55 00 00 00 00 00 00 00     TUZ....UU.......
     cd9:	00 55 55 55 55 55 55 56 a8 00 00 00 00 2a 55 55     .UUUUUUV.....*UU
     ce9:	99 99 aa a9 aa aa 95 55 55 55 56 aa aa aa 55 55     .......UUUV...UU
     cf9:	05 00 00 00 00 00 00 00 00 14 05 55 55 55 55 55     ...........UUUUU
     d09:	a0 00 00 00 00 25 55 55 56 66 aa aa aa aa 95 55     .....%UUVf.....U
     d19:	55 55 55 aa aa aa 55 55 00 00 00 00 00 00 00 00     UUU...UU........
     d29:	00 00 00 55 55 55 55 00 20 00 00 00 00 05 55 55     ...UUUU. .....UU
     d39:	55 9a aa aa aa aa 55 55 55 55 aa aa aa aa 55 55     U.....UUUU....UU
	...
     d51:	00 00 00 55 55 55 50 00 00 00 00 00 00 05 55 55     ...UUUP.......UU
     d61:	55 5a aa aa aa aa 55 55 55 5a aa aa aa aa 55 55     UZ....UUUZ....UU
	...
     d79:	00 00 00 15 55 55 50 00 00 00 00 00 00 05 55 55     ....UUP.......UU
     d89:	55 56 aa aa aa aa 55 55 55 6a aa aa aa aa 55 55     UV....UUUj....UU
	...
     da1:	00 55 40 15 55 55 54 00 00 00 00 00 00 00 15 55     .U@.UUT........U
     db1:	55 56 aa ff fa aa 55 55 55 aa aa aa aa aa 95 55     UV....UUU......U
	...
     dc9:	05 55 54 15 55 55 55 00 00 00 00 00 40 00 01 55     .UT.UUU.....@..U
     dd9:	55 55 af ff ff aa 55 55 55 aa aa aa aa aa 55 55     UU....UUU.....UU
     de9:	00 00 00 00 00 00 01 54 15 55 55 15 55 55 55 00     .......T.UU.UUU.
     df9:	00 00 00 05 00 00 00 15 55 55 bf ff ff ea 95 55     ........UU.....U
     e09:	56 aa aa aa aa 95 55 55 ff c0 00 00 00 00 15 55     V.....UU.......U
     e19:	55 55 55 55 55 55 55 40 00 00 55 14 00 00 00 15     UUUUUUU@..U.....
     e29:	55 55 ff ff ff fa 95 56 aa aa aa aa a9 55 55 55     UU.....V.....UUU
     e39:	ff c0 3f fc 03 c0 55 55 55 55 57 d5 55 55 55 40     ..?...UUUUW.UUU@
     e49:	00 05 55 54 00 00 00 05 55 55 ff ff ff fa a5 6a     ..UT....UU.....j
     e59:	aa aa aa aa a5 55 55 55 ff c0 f0 00 03 c0 7f f5     .....UUU........
     e69:	ff f0 03 d5 55 01 55 05 50 15 55 50 00 00 00 05     ....U.U.P.UP....
     e79:	55 55 ff ff ff fe bf aa aa aa a5 5a 95 55 55 55     UU.........Z.UUU
     e89:	ff c0 f0 00 3f fd 55 7d f5 3c 3f fd 50 00 15 15     ....?.U}.<?.P...
     e99:	54 55 55 50 00 00 00 04 01 54 ff ff ff fe ff aa     TUUP.....T......
     ea9:	aa aa 55 56 95 55 55 55 ff c0 3f f0 03 c1 7f fd     ..UV.UUU..?.....
     eb9:	f4 00 03 c0 40 00 00 55 54 55 50 10 00 00 00 00     ....@..UTUP.....
     ec9:	00 57 ff ff ff ff ff aa aa a9 55 55 55 55 55 55     .W........UUUUUU
     ed9:	ff c0 00 3c 03 c1 f0 3d f4 00 03 c0 00 00 00 15     ...<...=........
     ee9:	55 55 00 00 00 00 00 00 00 55 55 3f ff ff ff aa     UU.......UU?....
     ef9:	aa aa a5 55 55 55 55 55 ff c0 00 3c 03 c0 f0 3c     ...UUUUU...<...<
     f09:	f0 00 03 c0 00 00 55 45 55 55 00 00 00 00 00 00     ......UEUU......
     f19:	55 15 55 53 ff ff ff ea aa aa a9 55 55 55 55 aa     U.US.......UUUU.
     f29:	ff c0 ff f0 03 c0 3f fc f0 00 03 c0 00 05 55 55     ......?.......UU
     f39:	55 54 55 50 00 00 00 00 05 55 55 54 ff ff fa aa     UTUP.....UUT....
     f49:	aa aa aa 55 55 55 6a aa ff c0 00 00 00 00 00 00     ...UUUj.........
     f59:	00 00 00 00 00 15 55 55 55 55 55 55 00 00 00 00     ......UUUUUU....
     f69:	01 50 05 55 3f ff ea aa aa aa aa 55 55 56 aa aa     .P.U?......UUV..
	...
     f85:	00 15 55 55 55 55 55 55 40 00 00 00 01 00 00 55     ..UUUUUU@......U
     f95:	7f ff ea aa aa aa aa 55 55 56 aa aa 00 00 55 00     .......UUV....U.
	...
     fad:	15 15 55 55 55 55 55 55 50 00 00 00 00 00 00 55     ..UUUUUUP......U
     fbd:	4c 55 6a aa aa aa a9 55 55 5a aa aa 00 55 55 50     LUj....UUZ...UUP
	...
     fd5:	00 55 55 55 55 55 55 55 50 00 00 00 00 00 00 15     .UUUUUUUP.......
     fe5:	55 55 55 6a aa aa aa a5 55 5a aa aa ff d5 55 54     UUUj....UZ....UT
	...
     ffd:	00 05 55 55 55 55 55 55 54 00 00 00 00 00 00 10     ..UUUUUUT.......
    100d:	05 55 55 55 5a aa aa aa 55 5a aa aa ff c0 3f fd     .UUUZ...UZ....?.
    101d:	00 55 40 00 00 00 15 40 00 01 55 55 55 55 55 55     .U@....@..UUUUUU
    102d:	54 05 40 00 00 00 00 00 00 01 55 55 aa aa a9 55     T.@.......UU...U
    103d:	55 5a aa aa ff c0 f0 00 7f fd 7f f0 ff f1 7f f4     UZ..............
    104d:	00 01 55 55 55 55 55 55 54 55 54 00 00 00 00 00     ..UUUUUUTUT.....
    105d:	00 2a aa aa aa aa 55 55 55 aa aa aa ff c0 f0 00     .*....UUU.......
    106d:	f0 15 f5 3c f0 3d f5 7d 00 00 55 55 55 55 55 55     ...<.=.}..UUUUUU
    107d:	55 55 55 00 00 55 6a aa aa aa aa aa aa a9 55 55     UUU..Uj.......UU
    108d:	5a aa aa aa ff c0 3f f0 f0 00 f5 3d f0 05 f5 7d     Z.....?....=...}
    109d:	40 00 40 15 55 55 55 55 55 55 55 55 55 55 5a a5     @.@.UUUUUUUUUUZ.
    10ad:	56 aa aa aa aa a5 55 55 6a aa aa aa ff c0 00 3c     V.....UUj......<
    10bd:	f0 00 f5 7d f5 15 ff f5 45 40 00 05 55 55 55 55     ...}....E@..UUUU
    10cd:	55 55 55 55 55 55 5a 55 55 6a aa aa aa a5 55 55     UUUUUUZUUj....UU
    10dd:	a5 55 a9 55 ff c0 00 3c f0 00 f0 3d f5 15 f5 55     .U.U...<...=...U
    10ed:	55 54 00 01 55 55 55 55 55 55 55 55 55 55 59 55     UT..UUUUUUUUUUYU
    10fd:	55 5a aa aa aa 95 55 55 95 55 65 55 ff c0 ff f0     UZ....UU.UeU....
    110d:	3f fc 3f f0 f5 55 7f f5 55 55 05 51 55 55 55 55     ?.?..U..UU.QUUUU
    111d:	55 55 55 55 55 55 55 55 55 56 aa aa aa 95 55 55     UUUUUUUUUV....UU
    112d:	55 55 55 55 ff c0 00 00 00 00 00 00 00 15 50 00     UUUU..........P.
    113d:	01 55 15 54 55 55 55 55 55 55 55 55 55 55 55 55     .U.TUUUUUUUUUUUU
    114d:	55 55 56 aa aa 95 55 55 55 55 55 55 00 00 00 00     UUV...UUUUUU....
	...
    1165:	00 01 55 55 55 55 55 55 55 55 55 55 55 55 55 55     ..UUUUUUUUUUUUUU
    1175:	55 55 55 6a a5 55 55 55 55 55 55 55 00 00 00 00     UUUj.UUUUUUU....
	...
    118d:	00 00 05 55 55 55 55 55 54 01 55 55 55 55 55 55     ...UUUUUT.UUUUUU
    119d:	55 55 55 5a 55 55 55 55 55 55 55 55 00 00 00 00     UUUZUUUUUUUU....
	...
    11b5:	00 00 00 05 55 55 55 55 00 00 00 15 55 50 15 55     ....UUUU....UP.U
    11c5:	55 55 55 59 55 55 55 55 55 55 55 55 ff c0 00 00     UUUYUUUUUUUU....
	...
    11e1:	01 55 55 00 00 00 00 00 05 40 01 55 55 55 55 55     .UU......@.UUUUU
    11f1:	55 55 55 55 55 55 55 55 ff d5 7f fd 55 55 55 55     UUUUUUUU....UUUU
    1201:	55 7d 57 d5 57 d5 55 55 55 55 55 55 56 aa aa aa     U}W.W.UUUUUUV...
    1211:	aa aa aa aa aa aa aa aa a5 55 55 55 55 55 55 55     .........UUUUUUU
    1221:	ff d5 f5 55 ff f5 7f f5 7f fd 55 55 57 d5 55 55     ...U......UUW.UU
    1231:	55 55 55 55 55 5a 55 6a aa aa ab fa aa aa aa a5     UUUUUZUj........
    1241:	55 55 55 55 55 55 55 55 ff d5 f5 55 f5 7d f5 7d     UUUUUUUU...U.}.}
    1251:	f5 7d 5f d5 7f fd 55 55 55 55 55 5a aa aa aa aa     .}_...UUUUUZ....
    1261:	aa ab ff fe aa aa aa aa aa aa a9 55 55 55 55 55     ...........UUUUU
    1271:	ff d5 f5 55 f5 55 f5 7d f5 7d 57 d5 57 d5 55 aa     ...U.U.}.}W.W.U.
    1281:	aa aa aa aa aa aa aa aa aa aa aa aa aa aa aa aa     ................
    1291:	aa aa 95 55 55 55 55 55 ff d5 f5 55 f5 55 ff f5     ...UUUUU...U.U..
    12a1:	f5 7d 57 d5 57 d5 55 55 56 aa aa aa aa aa aa aa     .}W.W.UUV.......
    12b1:	aa ab ff aa aa aa aa aa aa aa aa aa aa aa aa aa     ................
    12c1:	ff d5 f5 55 f5 55 f5 55 f5 7d 57 d5 57 d5 55 55     ...U.U.U.}W.W.UU
    12d1:	55 56 aa aa aa aa aa ab ff ff ff ff ea aa aa aa     UV..............
    12e1:	aa aa aa aa aa a9 55 55 ff d5 7f fd f5 55 7f f5     ......UU.....U..
    12f1:	7f fd 57 d5 5b e5 56 aa aa aa aa aa aa aa aa aa     ..W.[.V.........
    1301:	aa ff ff fe aa aa aa aa aa aa aa aa a9 55 55 55     .............UUU
    1311:	ff d5 55 55 55 55 55 55 55 5a aa aa aa aa aa aa     ..UUUUUUUZ......
    1321:	aa aa aa aa aa aa aa aa ff ff ff ff ff ab fa aa     ................
    1331:	aa aa aa aa aa aa aa aa 55 55 55 55 55 55 55 55     ........UUUUUUUU
    1341:	55 55 56 aa aa aa aa aa aa aa aa aa aa aa aa aa     UUV.............
    1351:	aa aa aa aa aa aa aa aa aa aa aa aa aa aa aa aa     ................
    1361:	55 55 55 55 55 55 aa aa 95 55 aa aa aa aa aa aa     UUUUUU...U......
    1371:	aa aa aa aa aa aa bf ff ff ff ff fa aa aa aa aa     ................
    1381:	aa aa aa aa aa aa aa aa 55 55 55 56 aa aa aa aa     ........UUUV....
    1391:	aa aa aa aa aa aa aa aa aa aa aa af eb ff ff ff     ................
    13a1:	ff ff ff ff ff ea aa aa aa aa aa aa aa aa aa aa     ................
    13b1:	aa aa 55 55 56 aa aa aa aa aa aa aa aa aa aa aa     ..UUV...........
    13c1:	aa aa aa aa aa ab ff ff ff ea aa aa aa aa aa aa     ................
    13d1:	aa aa aa aa aa aa aa aa aa aa a9 55 55 56 95 56     ...........UUV.V
    13e1:	aa aa aa aa aa aa aa aa aa aa aa aa aa aa aa bf     ................
    13f1:	ff ff fa aa aa aa aa aa aa aa aa aa aa aa aa aa     ................
    1401:	a5 59 55 55 5a aa aa aa aa aa aa aa aa aa aa aa     .YUUZ...........
    1411:	aa aa aa aa aa aa aa aa bf ff ff ff fe aa aa aa     ................
    1421:	aa aa aa aa aa aa aa aa aa aa aa aa aa aa aa aa     ................
    1431:	aa aa aa aa aa aa aa aa aa aa aa bf ff ff ff ff     ................
    1441:	ff ff ff fe aa aa aa aa aa aa aa aa aa aa aa aa     ................
    1451:	aa aa aa aa aa aa aa aa aa aa aa aa aa aa aa aa     ................
    1461:	ff ff ff ff ff ff ff ff ff ff fe aa aa bf ff ff     ................
    1471:	ff af aa aa aa aa aa aa                             ........

00001479 <_ZL9logoAtmel>:
    1479:	ff ff ff ff ff ff ff ff ff ff ff ff ff ff ff ff     ................
    1489:	ff ff ff ff ff ff ff ff ff ff ff ff ff ff ff ff     ................
    1499:	ff ff ff ff ff ff ff ff ff ff d5 5f f5 7f ff ff     ..........._....
    14a9:	ff ff ff ff ff ff ff ff ff ff d5 ff 7f ff ff ff     ................
    14b9:	ff ff ff ff ff ff ff ff ff ff ff ff ff ff ff ff     ................
    14c9:	d5 5f f5 7f ff ff ff ff ff ff ff ff ff ff ff ff     ._..............
    14d9:	d5 fd ff ff ff ff ff ff ff ff ff ff ff ff ff ff     ................
    14e9:	ff ff ff ff ff ff 55 5f f5 7f ff ff ff ff ff ff     ......U_........
    14f9:	ff ff ff ff ff ff d5 ff ff ff ff ff ff ff ff ff     ................
    1509:	ff ff ff ff ff ff ff ff ff ff ff fd 55 5f f5 7f     ............U_..
    1519:	ff ff ff ff ff ff ff ff ff ff ff ff d5 ff ff ff     ................
    1529:	ff ff ff ff ff ff ff ff ff ff ff ff ff ff ff ff     ................
    1539:	ff f5 5d 5f f5 7f ff ff ff ff ff ff ff ff ff ff     ..]_............
    1549:	ff ff d5 ff ff ff ff ff ff ff ff ff ff ff ff ff     ................
    1559:	ff ff ff ff ff ff ff d5 7d 5f f5 5f ff ff f5 7f     ........}_._....
    1569:	ff d5 ff ff ff d5 5f ff d5 ff ff ff ff ff ff ff     ......_.........
    1579:	ff ff ff ff ff ff ff ff ff ff ff ff ff 55 fd 5f     .............U._
    1589:	55 55 5f ff 55 57 f5 55 5f ff f5 55 55 ff d5 ff     UU_.UW.U_..UU...
    1599:	ff ff ff ff ff ff ff ff ff ff ff ff ff ff ff ff     ................
    15a9:	ff ff ff 57 fd 5f 55 55 5f fd 55 55 55 55 57 ff     ...W._UU_.UUUUW.
    15b9:	d5 55 55 7f d5 ff ff ff ff ff ff ff ff ff ff ff     .UU.............
    15c9:	ff ff ff ff ff ff ff ff fd 57 fd 5f 55 55 5f f5     .........W._UU_.
    15d9:	55 55 55 55 55 ff 55 5f d5 5f d5 ff ff ff ff ff     UUUUU.U_._......
    15e9:	ff ff ff ff ff ff ff ff ff ff ff ff ff ff f5 5f     ..............._
    15f9:	fd 5f f5 7f ff d5 5f f5 55 ff 55 ff 55 ff f5 5f     ._...._.U.U.U.._
    1609:	d5 ff ff ff ff ff ff ff ff ff ff ff ff ff ff ff     ................
    1619:	ff ff ff ff d5 7f fd 5f f5 7f ff d5 7f fd 57 ff     ......._......W.
    1629:	d5 fd 57 ff fd 57 d5 ff ff ff ff ff ff ff ff ff     ..W..W..........
    1639:	ff ff ff ff ff ff ff ff ff ff 55 ff fd 5f f5 7f     ..........U.._..
    1649:	ff d5 ff fd 5f ff d5 7d 57 ff fd 57 d5 ff ff ff     ...._..}W..W....
    1659:	ff ff ff ff ff ff ff ff ff ff ff ff ff ff ff fd     ................
    1669:	55 55 fd 5f f5 7f ff d5 ff fd 5f ff d5 7d 55 55     UU._......_..}UU
    1679:	55 57 d5 ff ff ff ff ff ff ff ff ff ff ff ff ff     UW..............
    1689:	ff ff ff ff ff f5 55 55 fd 5f f5 7f ff d5 ff fd     ......UU._......
    1699:	5f ff d5 7d 55 55 55 57 d5 ff ff ff ff ff ff ff     _..}UUUW........
    16a9:	ff ff ff ff ff ff ff ff ff ff ff f5 55 57 fd 5f     ............UW._
    16b9:	f5 7f ff d5 ff fd 5f ff d5 7d 55 55 55 57 d5 ff     ......_..}UUUW..
    16c9:	ff ff ff ff ff ff ff ff ff ff ff ff ff ff ff ff     ................
    16d9:	ff d5 7f ff fd 5f f5 7f ff d5 ff fd 5f ff d5 7d     ....._......_..}
    16e9:	5f ff ff ff d5 7f ff ff ff ff ff ff ff ff ff ff     _...............
    16f9:	ff ff ff ff ff ff ff 55 ff ff fd 5f f5 5f ff d5     .......U..._._..
    1709:	ff fd 5f ff d5 7d 57 ff ff ff d5 7f ff ff ff ff     .._..}W.........
    1719:	ff ff ff ff ff ff ff ff ff ff ff ff fd 57 ff ff     .............W..
    1729:	fd 5f fd 57 ff d5 ff fd 5f ff d5 7f 55 ff fd 5f     ._.W...._...U.._
    1739:	f5 5f ff ff ff ff ff ff ff ff ff ff ff ff ff ff     ._..............
    1749:	ff ff f5 5f ff ff fd 5f fd 55 5f d5 ff fd 5f ff     ..._..._.U_..._.
    1759:	d5 7f 55 7f d5 5f f5 55 7f ff ff ff ff ff ff ff     ..U.._.U........
    1769:	ff ff ff ff ff ff ff ff d5 7f ff ff fd 5f ff 55     ............._.U
    1779:	5f d5 ff fd 5f ff d5 7f d5 55 55 7f fd 55 7f ff     _..._....UU..U..
    1789:	ff ff ff ff ff ff ff ff ff ff ff ff ff ff 55 ff     ..............U.
    1799:	ff ff fd 5f ff d5 5f d5 ff fd 5f ff d5 7f f5 55     ..._.._..._....U
    17a9:	55 ff ff 55 7f ff ff ff ff ff ff ff ff ff ff ff     U..U............
    17b9:	ff ff ff ff 57 ff ff ff ff ff ff ff ff ff ff ff     ....W...........
    17c9:	ff ff ff ff ff d5 5f ff ff ff ff ff ff ff ff ff     ......_.........
    17d9:	ff ff ff ff ff ff ff ff ff ff ff ff ff ff ff ff     ................
    17e9:	ff ff fe aa aa bf ff ff ff ff ff ff ff ff ff ff     ................
    17f9:	ff ff ff ff ff ff ff ff ff ff ff ff ff ff ff ff     ................
    1809:	ff ff ff ff ff ff ff ff ea aa aa af af ff ff ff     ................
    1819:	ff ff ff ff ff ff ff ff ff ff ff ff ff ff ff ff     ................
    1829:	ff ff ff ff ff ff ff ff ff ff ff ff ff ff aa aa     ................
    1839:	aa ab ff ff ff ff ff ff ff ff ff ff ff ff ff ff     ................
    1849:	ff ff ff ff ff ff ff ff ff ff ff ff ff ff ff ff     ................
    1859:	ff ff ff fe aa aa aa aa ff ff ff ff ff ff ff ff     ................
    1869:	ff ff ff ff ff ff ff ff ff ff ff ff ff ff ff ff     ................
    1879:	ff ff ff ff ff ff ff ff ff fa aa aa aa aa ff ff     ................
    1889:	ff 0f ff f0 ff ff ff ff ff ff ff ff ff ff ff ff     ................
    1899:	ff ff ff ff ff ff ff ff ff ff ff ff ff ff ff ea     ................
    18a9:	ab ea aa fa bf ff fc 03 ff c0 3f ff ff ff ff ff     ..........?.....
    18b9:	ff ff ff ff ff ff ff ff ff ff ff ff ff ff ff ff     ................
    18c9:	ff ff ff ff ff aa af fa ab fe bf ff fc 03 ff c0     ................
    18d9:	3f ff ff ff ff ff ff ff ff ff ff ff ff ff ff ff     ?...............
    18e9:	ff ff ff ff ff ff ff ff ff ff ff aa bf fa af fe     ................
    18f9:	af ff fc 03 ff c0 3f ff ff ff ff ff ff ff ff ff     ......?.........
    1909:	ff ff ff ff ff ff ff ff ff ff ff ff ff ff ff ff     ................
    1919:	fe aa ff fe af ff ab ff fc 00 ff 00 3f 0f c0 00     ............?...
    1929:	3f 00 00 ff 00 00 ff 00 00 3c 3f f0 f0 fc 00 03     ?........<?.....
    1939:	ff ff ff ff ff ff fe aa bf fe af ff eb ff f0 00     ................
    1949:	ff 00 3f 0f 00 00 0f 00 00 3f 00 00 fc 00 00 3c     ..?......?.....<
    1959:	3f f0 f0 f0 00 00 ff ff ff ff ff ff fe aa bf ff     ?...............
    1969:	ab ff ea ff f0 00 3c 00 3f 0f 00 00 0f 00 00 3c     ......<.?......<
    1979:	00 00 3c 00 00 3c 3f f0 f0 f0 00 00 ff ff ff ff     ..<..<?.........
    1989:	ff ff fe af af ff eb ff fa bf f0 30 3c 0c 0f 0f     ...........0<...
    1999:	03 ff ff 0f fc 3c 0f f0 3c 0f ff fc 3f f0 f0 f0     .....<..<...?...
    19a9:	3f f0 ff ff ff ff ff ff fe af ab ff ea ff fe bf     ?...............
    19b9:	f0 30 3c 0c 0f 0f 0f ff ff 0f fc 3c 3f fc 3c 3f     .0<........<?.<?
    19c9:	ff fc 00 00 f0 f0 3f f0 ff ff ff ff ff ff fe bf     ......?.........
    19d9:	eb ff fa ff fe af f0 3c 00 3c 0f 0f 0f ff ff 0f     .......<.<......
    19e9:	fc 3c 3f fc 3c 3f ff fc 00 00 f0 f0 3f f0 ff ff     .<?.<?......?...
    19f9:	ff ff ff ff fe ff fa ff fe bf ff af f0 3c 00 3c     .............<.<
    1a09:	0f 0f 0f ff ff 00 00 3c 3f fc 3c 3f ff fc 00 00     .......<?.<?....
    1a19:	f0 f0 00 00 ff ff ff ff ff ff ff ff fa ff fe af     ................
    1a29:	ff ef f0 3c 00 3c 0f 0f 0f ff ff 00 00 3c 3f fc     ...<.<.......<?.
    1a39:	3c 3f ff fc 3f f0 f0 f0 00 03 ff ff ff ff ff ff     <?..?...........
    1a49:	ff ff fa bf ff af ff ff f0 3f 00 fc 0f 0f 03 ff     .........?......
    1a59:	ff 0f fc 3c 0f f0 3c 0f ff fc 3f f0 f0 f0 3f ff     ...<..<...?...?.
    1a69:	ff ff ff ff ff ff ff ff ea af fe ab ff ff f0 3f     ...............?
    1a79:	00 fc 0f 0f 00 00 0f 0f fc 3c 00 00 3c 00 00 3c     .........<..<..<
    1a89:	3f f0 f0 f0 3f ff ff ff ff ff ff ff ff ff aa af     ?...?...........
    1a99:	fe aa ff ff f0 3f c3 fc 0f 0f c0 00 0f 0f fc 3f     .....?.........?
    1aa9:	00 00 ff 00 00 3c 3f f0 f0 f0 3f ff ff ff ff ff     .....<?...?.....
    1ab9:	ff ff ff ff aa ab fa aa ff ff fc ff ff ff 3f ff     ..............?.
    1ac9:	ff ff ff ff ff ff ff ff ff ff ff ff ff ff ff fc     ................
    1ad9:	ff ff ff ff ff ff ff ff ff fe aa aa ea aa bf ff     ................
    1ae9:	ff ff ff ff ff ff ff ff ff ff ff ff ff ff ff ff     ................
    1af9:	ff ff ff ff ff ff ff ff ff ff ff ff ff ff ff fa     ................
    1b09:	aa aa aa aa bf ff ff ff ff ff ff ff ff ff ff ff     ................
    1b19:	ff ff ff ff ff ff ff ff ff ff ff ff ff ff ff ff     ................
    1b29:	ff ff ff ff ff fe aa aa aa aa bf ff ff ff ff ff     ................
    1b39:	ff ff ff ff ff ff ff ff ff ff ff ff ff ff ff ff     ................
    1b49:	ff ff ff ff ff ff ff ff ff ff ff ff ea aa aa aa     ................
    1b59:	ff ff ff ff ff ff ff ff ff ff ff ff ff ff ff ff     ................
    1b69:	ff ff ff ff ff ff ff ff ff ff ff ff ff ff ff ff     ................
    1b79:	ff ff fe aa aa af ff ff ff ff ff ff ff ff ff ff     ................
    1b89:	ff ff ff ff ff ff ff ff ff ff ff ff ff ff ff ff     ................

00001b99 <_ZL10groundTile>:
    1b99:	ff ff ff ff ff ff ff ff ff ff ff ff ff ff ff ff     ................
    1ba9:	ff ff ff ff ff ff ff ff aa aa aa aa aa aa aa aa     ................
    1bb9:	ff ff ff ff ff ff ff ff aa aa aa aa aa aa aa aa     ................
    1bc9:	aa aa aa aa aa aa aa aa ff ff ff ff ff ff ff ff     ................
    1bd9:	aa aa aa aa aa aa aa aa aa aa aa aa aa aa aa aa     ................
    1be9:	aa aa aa aa aa aa aa aa aa aa aa aa aa aa aa aa     ................
    1bf9:	66 66 66 66 66 66 66 66 99 99 99 99 99 99 99 99     ffffffff........
    1c09:	66 66 66 66 66 66 66 66 99 99 99 99 99 99 99 99     ffffffff........
    1c19:	55 55 55 55 55 55 55 55 55 55 55 55 55 55 55 55     UUUUUUUUUUUUUUUU
    1c29:	55 55 55 55 55 55 55 55 55 55 55 55 55 55 55 55     UUUUUUUUUUUUUUUU
    1c39:	44 44 44 44 44 44 44 44 11 11 11 11 11 11 11 11     DDDDDDDD........
    1c49:	44 44 44 44 44 44 44 44 11 11 11 11 11 11 11 11     DDDDDDDD........

00001c59 <_ZL9fontASCII>:
    1c59:	00 30 00 00 10 00 00 00 00 00 00 00 00 00 00 00     .0..............
    1c69:	00 78 6c 28 3c 66 20 30 18 30 54 18 00 00 00 06     .xl(<f 0.0T.....
    1c79:	00 78 24 7c 60 0c 50 10 30 18 38 18 00 00 00 0c     .x$|`.P.0.8.....
    1c89:	00 78 00 28 38 18 34 00 30 18 10 7e 00 7e 00 18     .x.(8.4.0..~.~..
    1c99:	00 30 00 7c 0c 30 48 00 30 18 38 18 00 00 00 30     .0.|.0H.0.8....0
    1ca9:	00 00 00 28 78 66 34 00 18 30 54 18 00 00 00 60     ...(xf4..0T....`
    1cb9:	00 30 00 00 10 00 00 00 00 00 00 00 30 00 30 00     .0..........0.0.
	...
    1cd5:	10 00 00 00 38 18 fc fc 06 fe 7c fe 7c 7c 00 00     ....8.....|.||..
    1ce5:	00 00 00 7c 4c 38 06 06 c6 c0 c0 06 c6 c6 00 00     ...|L8..........
    1cf5:	18 00 30 c6 c6 18 06 3c c6 fc fc 06 7c c6 30 30     ..0....<....|.00
    1d05:	30 7c 18 06 c6 18 7c 06 c6 06 c6 0c c6 c6 00 00     0|....|.........
    1d15:	60 00 0c 06 c6 18 c0 06 c6 06 c6 18 c6 7e 00 00     `............~..
    1d25:	30 7c 18 3c 64 18 c0 06 fe 06 c6 30 c6 06 30 30     0|.<d......0..00
    1d35:	18 00 30 00 38 3c fe fc 06 fc 7c 30 7c 7c 00 10     ..0.8<....|0||..
    1d45:	00 00 00 30 00 00 00 00 00 00 00 00 00 00 00 00     ...0............
    1d55:	00 00 00 00 7c 7c fc 7e fc fe fe 7c c6 3c 1e c6     ....||.~...|.<..
    1d65:	c0 c6 c6 7c c6 c6 c6 c0 c6 c0 c0 c6 c6 18 06 c6     ...|............
    1d75:	c0 ee e6 c6 c6 c6 c6 c0 c6 c0 c0 c0 c6 18 06 cc     ................
    1d85:	c0 fe f6 c6 d6 c6 fc c0 c6 f8 fc de fe 18 06 f8     ................
    1d95:	c0 d6 de c6 dc fe c6 c0 c6 c0 c0 c6 c6 18 06 cc     ................
    1da5:	c0 c6 ce c6 c0 c6 c6 c0 c6 c0 c0 c6 c6 18 c6 c6     ................
    1db5:	c0 c6 c6 c6 7c c6 fc 7e fc fe c0 7e c6 3c 7c c6     ....|..~...~.<|.
    1dc5:	fe c6 c6 7c 00 00 00 00 00 00 00 00 00 00 00 00     ...|............
    1dd5:	00 00 00 00 fc 7c fc 7e 7e c6 c6 c6 c6 66 fe 00     .....|.~~....f..
    1de5:	00 00 00 00 c6 c6 c6 c0 18 c6 c6 c6 c6 66 06 38     .............f.8
    1df5:	60 38 10 00 c6 c6 c6 c0 18 c6 c6 c6 6c 66 0c 30     `8..........lf.0
    1e05:	30 18 38 00 c6 c6 c6 7c 18 c6 c6 d6 38 3c 38 30     0.8....|....8<80
    1e15:	18 18 6c 00 fc de fc 06 18 c6 6c fe 6c 18 60 30     ..l.......l.l.`0
    1e25:	0c 18 44 00 c0 cc c6 06 18 c6 38 ee c6 18 c0 38     ..D.......8....8
    1e35:	06 38 00 00 c0 76 c6 fc 18 7c 10 c6 c6 18 fe 00     .8...v...|......
    1e45:	00 00 00 fe 00 00 00 00 00 00 00 00 00 00 00 00     ................
    1e55:	00 00 00 00 00 00 c0 00 06 00 3e 00 c0 18 0c c0     ..........>.....
    1e65:	38 00 00 00 60 7c fc 7e 7e 7c 60 7e c0 00 00 c6     8...`|.~~|`~....
    1e75:	18 fc fc 7c 20 06 c6 c0 c6 c6 60 c6 fc 38 1c cc     ...| .....`..8..
    1e85:	18 d6 c6 c6 00 7e c6 c0 c6 c6 fc c6 c6 18 0c f8     .....~..........
    1e95:	18 d6 c6 c6 00 c6 c6 c0 c6 fc 60 c6 c6 18 0c cc     ..........`.....
    1ea5:	18 d6 c6 c6 00 c6 c6 c0 c6 c0 60 7e c6 18 0c c6     ..........`~....
    1eb5:	18 d6 c6 c6 00 7e fc 7e 7e 7c 60 06 c6 18 0c c6     .....~.~~|`.....
    1ec5:	18 d6 c6 7c 00 00 00 00 00 00 00 7c 00 00 78 00     ...|.......|..x.
	...
    1edd:	18 00 00 00 00 00 00 00 00 00 00 00 fc 7e fc 7c     .............~.|
    1eed:	18 c6 c6 d6 c6 c6 fe 38 10 38 00 00 c6 c6 c6 c0     .......8.8......
    1efd:	7e c6 c6 d6 6c c6 0c 30 10 18 30 00 c6 c6 c0 7c     ~...l..0..0....|
    1f0d:	18 c6 c6 d6 38 c6 38 60 10 0c 5a 00 c6 c6 c0 06     ....8.8`..Z.....
    1f1d:	18 c6 6c d6 6c c6 60 30 10 18 0c 00 c6 c6 c0 06     ..l.l.`0........
    1f2d:	18 c6 38 d6 c6 7e c0 38 10 38 00 00 fc 7e c0 7c     ..8..~.8.8...~.|
    1f3d:	18 7e 10 7e c6 06 fe 00 00 00 00 00 c0 06 00 00     .~.~............
    1f4d:	00 00 00 00 00 7c 00 00 00 00 00 00                 .....|......

00001f59 <_ZL11presentTile>:
    1f59:	a0 0a a8 2a 15 54 fe 7f 3e 7c 2a 68 3e 7c 3e 7c     ...*.T..>|*h>|>|

00001f69 <_ZL8fireTile>:
    1f69:	01 00 01 00 05 10 16 54 5a a5 5b e5 5b e5 16 94     .......TZ.[.[...

00001f79 <_ZL8bombTile>:
    1f79:	00 fb 0f 6b 35 1c d9 47 d5 5c d5 5c 35 70 0f c0     ...k5..G.\.\5p..

00001f89 <_ZL8ballTile>:
    1f89:	0e b0 3f fc be be fa af b0 5e 68 69 1a a4 0a a0     ..?......^hi....

00001f99 <_ZL6charUp>:
    1f99:	00 3f f0 00 00 ea af 00 03 ab fe c0 03 af ff b0     .?..............
    1fa9:	0e af 3c b0 0e af 3c f0 0e 7f ff f0 0d 7f ff f0     ..<...<.........
    1fb9:	0d 73 fc f0 0d 74 00 f0 3d b5 41 f0 f5 b9 01 f0     .s...t..=.A.....
    1fc9:	fe ba 02 f0 3e 9a 00 6c 0e aa 00 ac 0e aa 00 6c     ....>..l.......l
    1fd9:	0e aa 00 30 0e aa 00 30 0e aa 00 70 0d aa 10 70     ...0...0...p...p
    1fe9:	0e 68 11 70 03 94 3d c0 00 e8 33 00 00 3c f0 00     .h.p..=...3..<..
    1ff9:	00 03 00 00 00 0f fc 00 00 fa ab 00 03 ab fe c0     ................
    2009:	0e af ff b0 0e af 3c b0 0e bf 3c f0 0e 7f ff f0     ......<...<.....
    2019:	0d 7f ff f0 0d 73 fc f0 0d 74 00 f0 0d b5 40 f0     .....s...t....@.
    2029:	0d b5 01 f0 3d b9 02 f0 3e 9a 02 70 0e aa 00 b0     ....=...>..p....
    2039:	0e aa 00 ac 0e aa 00 2c 0e aa 00 2c 0e aa 00 5c     .......,...,...\
    2049:	0e aa 10 70 0d 68 31 70 0e 94 3d c0 03 e8 33 00     ...p.h1p..=...3.
    2059:	00 3c f0 00 00 03 00 00 00 3f fc 00 00 ea ab 00     .<.......?......
    2069:	03 ab fe c0 03 af ff b0 0e bf 3c f0 3a bf 3c f0     ..........<.:.<.
    2079:	3a 7f ff f0 3a 7f ff f0 0d 73 fc f0 0d 74 00 f0     :...:....s...t..
    2089:	0d 74 00 f0 0d b5 41 f0 0e b9 01 f0 0e ba 02 f0     .t....A.........
    2099:	0e 9a 00 b0 0e aa 00 b0 0e aa 00 30 0e aa 00 30     ...........0...0
    20a9:	0d aa 00 70 0e 6a 20 5c 0e 68 11 5c 03 94 3f 70     ...p.j \.h.\..?p
    20b9:	00 e8 30 c0 00 3c f0 00 00 03 00 00 00 3f f0 00     ..0..<.......?..
    20c9:	00 ea af 00 03 ab fe c0 03 af ff b0 0e af 3c f0     ..............<.
    20d9:	0e af 3c f0 3a 7f ff f0 3a 7f ff f0 3a 73 fc f0     ..<.:...:...:s..
    20e9:	3a 74 00 f0 3d b5 00 f0 3e b5 41 f0 0e ba 02 f0     :t..=...>.A.....
    20f9:	0e 9a 02 70 0e aa 00 b0 0e aa 00 b0 0e aa 00 30     ...p...........0
    2109:	0e aa 00 30 0e aa 00 70 0d aa 20 70 0e 68 11 70     ...0...p.. p.h.p
    2119:	03 98 3f 70 00 e4 30 c0 00 38 f0 00 00 0f 00 00     ..?p..0..8......

00002129 <_ZL7charRun>:
    2129:	00 00 00 00 00 00 00 0f fc 00 00 f0 fa ab c0 03     ................
    2139:	ff aa aa b0 03 ea aa aa ac 00 fa aa aa fc 00 0d     ................
    2149:	6a af ff 00 0d 5d 5f ff 00 03 d7 ff 3c 00 00 35     j....]_.....<..5
    2159:	57 3c 00 00 f5 57 fc 00 03 aa 57 f0 00 3e aa 60     W<...W....W..>.`
    2169:	70 00 ea a9 80 70 03 aa a9 80 c0 0e aa 96 02 c0     p....p..........
    2179:	0e 95 68 07 00 39 6a 80 03 00 0e b5 50 03 00 03     ..h..9j.....P...
    2189:	cd 40 0c 00 00 00 00 ff c0 00 00 0f aa b0 00 00     .@..............
    2199:	3a aa ac 00 f3 ea aa fc 03 fe aa aa ff 03 ea aa     :...............
    21a9:	ab ff 00 f5 aa 9f fc 00 0d 55 5f 3c 00 03 f7 5f     .........U_<..._
    21b9:	3c 00 00 39 f7 f0 00 00 e9 54 70 00 03 aa 98 70     <..9.....Tp....p
    21c9:	00 0e aa 60 c0 00 3a aa 60 c0 00 ea a9 80 c0 03     ...`..:.`.......
    21d9:	aa a9 80 c0 0e aa 96 00 c0 39 55 68 c3 00 0e aa     .........9Uh....
    21e9:	83 3c 00 03 fc 0c 00 00 00 00 0f ff f0 00 00 3a     .<.............:
    21f9:	aa ac 00 00 ea aa ff 00 03 aa ab ff 00 3f aa ab     .............?..
    2209:	ff 00 fe aa af 3c 00 fa aa b7 3c 00 3d 55 d7 fc     .....<....<.=U..
    2219:	00 03 d5 d7 f0 00 03 a9 54 70 00 0e aa 60 b0 00     ........Tp...`..
    2229:	3a a9 80 b0 00 3a a6 02 b0 00 ea a6 02 c0 00 ea     :....:..........
    2239:	98 00 c0 00 ea 98 00 c0 03 95 58 f0 c0 00 ea a3     ..........X.....
    2249:	0c c0 00 3c 0c 03 00 00 03 30 00 00 00 00 ff ff     ...<.....0......
    2259:	c0 00 03 aa aa b0 00 0e aa aa ac 00 3a aa aa ff     ............:...
    2269:	00 ea aa af ff 03 e6 ab ff fc 03 fd 9f 57 3c 00     .............W<.
    2279:	ff 57 57 3c 00 0f a5 57 fc 00 3a a9 53 f0 00 ea     .WW<...W..:.S...
    2289:	a6 80 c0 03 aa 98 00 c0 03 aa 60 02 b0 0e a9 80     ..........`.....
    2299:	02 b0 0d a9 80 0a b0 0e 69 80 02 c0 03 95 80 03     ........i.......
    22a9:	00 00 ea 00 00 c0 00 3f 01 70 c0 00 00 ff cc 30     .......?.p.....0
    22b9:	00 03 ff fc 00 00 3e aa ab c0 03 ea aa aa b0 0f     ......>.........
    22c9:	aa aa aa ac 0f f6 aa ab ff 03 cd af af ff 00 03     ................
    22d9:	75 ff fc 00 00 d5 57 3c 00 00 d5 57 3c 00 03 e5     u.....W<...W<...
    22e9:	57 fc 00 3e a9 63 f0 03 ea a6 80 c0 0e aa 98 00     W..>.c..........
    22f9:	c0 3a aa 60 02 c0 36 a9 80 02 c0 39 a6 00 0a c0     .:.`..6....9....
    2309:	0e 56 40 0a c0 03 ab 50 03 00 00 fc c0 03 00 00     .V@....P........
    2319:	00 3a 83 00 00 00 00 00 00 00 00 0f fc 00 00 f0     .:..............
    2329:	fa ab c0 03 ff aa aa b0 03 ea aa aa ac 00 d6 aa     ................
    2339:	ab fc 00 3d 6a bf ff 00 0d 5d 5f ff 00 03 d7 fc     ...=j....]_.....
    2349:	fc 00 00 35 5c fc 00 00 f5 5f fc 00 03 a9 4f f0     ...5\...._....O.
    2359:	00 3e a9 80 70 00 ea a6 00 70 03 aa a6 00 70 0e     .>..p....p....p.
    2369:	aa 58 02 c0 0e 55 a0 0a c0 39 aa 00 03 00 0e b5     .X...U...9......
    2379:	50 03 00 03 cd 4c 0c 00                             P....L..

00002381 <_ZL8charDown>:
    2381:	00 00 00 00 00 3c 00 00 00 ff c0 00 00 fa bc 00     .....<..........
    2391:	00 3a ab 00 00 3a aa c0 00 ea aa b0 00 ea aa b0     .:...:..........
    23a1:	03 aa af ac 03 aa bf ac 03 6a bf dc 03 5a ff dc     .........j...Z..
    23b1:	03 57 cf 1c 03 d7 cf 3c 0e a4 ff d7 3a a9 00 57     .W.....<....:..W
    23c1:	ea a9 50 55 ea a9 50 55 da a9 80 55 e6 a9 80 57     ..PU..PU...U...W
    23d1:	39 56 00 5c 0e a8 00 f0 03 f0 00 c0 00 0c 00 c0     9V.\............
    23e1:	00 03 c0 c0 00 00 c3 00 00 00 c3 00 00 00 cc 00     ................
    23f1:	00 00 cc 00 00 00 30 00 00 00 00 00 00 03 c0 00     ......0.........
    2401:	00 0f ff 00 00 0f ab c0 00 03 aa c0 00 3e aa b0     .............>..
    2411:	00 fa aa b0 03 ea aa ac 03 aa af ac 03 5a af ec     .............Z..
    2421:	03 5a bf ec 00 d7 ff dc 00 37 cf 1c 00 d7 cf 3c     .Z.......7.....<
    2431:	0f a4 ff d7 3a a9 00 55 ea a9 50 55 ea aa 50 57     ....:..U..PU..PW
    2441:	da aa 60 5c e5 55 80 5c 3a aa 00 70 0f f0 00 c0     ..`\.U.\:..p....
    2451:	00 30 00 c0 00 0c 00 c0 00 03 c0 c0 00 00 c3 00     .0..............
    2461:	00 00 c3 00 00 00 cf 00 00 00 cc 00 00 00 30 00     ..............0.
    2471:	00 00 f0 00 00 03 fc 00 00 0f bc 00 00 3e ab 00     .............>..
    2481:	00 fa aa c0 00 ea aa c0 03 ea aa c0 03 aa ab b0     ................
    2491:	03 6a af b0 00 da af ac 00 d6 ff 6c 00 d7 ff dc     .j.........l....
    24a1:	00 37 cf 1c 0f d7 cf 3f 3a a4 ff d5 ea a9 00 55     .7.....?:......U
    24b1:	ea a9 50 55 da aa 50 55 e6 aa 60 57 39 55 a0 7c     ..PU..PU..`W9U.|
    24c1:	0e aa 00 c0 03 f0 00 c0 00 30 00 c0 00 0c 00 c0     .........0......
    24d1:	00 03 c0 c0 00 00 c3 00 00 00 c3 00 00 00 cc 00     ................
    24e1:	00 00 cc 00 00 00 30 00 00 03 c0 00 00 0f f0 00     ......0.........
    24f1:	00 0f b0 00 00 3e ac 00 00 fa ab 00 00 ea ab 00     .....>..........
    2501:	00 ea aa c0 00 ea ae b0 00 ea af ac 00 ea bf ac     ................
    2511:	00 da ff ac 00 da ff dc 03 57 cf 1c 03 d7 cf 3c     .........W.....<
    2521:	0e a4 ff d7 3a a9 00 55 ea a9 50 55 da aa 50 55     ....:..U..PU..PU
    2531:	e6 aa 60 55 39 6a 60 57 0e 95 80 fc 03 ea 00 c0     ..`U9j`W........
    2541:	00 30 00 c0 00 0c 00 c0 00 03 c0 c0 00 00 c3 00     .0..............
    2551:	00 00 c3 00 00 00 cc 00 00 00 cc 00 00 00 30 00     ..............0.
	...

00002562 <__ctors_start>:
    2562:	9a 13       	cpse	r25, r26

00002564 <__ctors_end>:
    2564:	11 24       	eor	r1, r1
    2566:	1f be       	out	0x3f, r1	; 63
    2568:	cf ef       	ldi	r28, 0xFF	; 255
    256a:	d8 e0       	ldi	r29, 0x08	; 8
    256c:	de bf       	out	0x3e, r29	; 62
    256e:	cd bf       	out	0x3d, r28	; 61

00002570 <__do_copy_data>:
    2570:	11 e0       	ldi	r17, 0x01	; 1
    2572:	a0 e0       	ldi	r26, 0x00	; 0
    2574:	b1 e0       	ldi	r27, 0x01	; 1
    2576:	e0 e8       	ldi	r30, 0x80	; 128
    2578:	f8 e5       	ldi	r31, 0x58	; 88
    257a:	02 c0       	rjmp	.+4      	; 0x2580 <__do_copy_data+0x10>
    257c:	05 90       	lpm	r0, Z+
    257e:	0d 92       	st	X+, r0
    2580:	ae 3e       	cpi	r26, 0xEE	; 238
    2582:	b1 07       	cpc	r27, r17
    2584:	d9 f7       	brne	.-10     	; 0x257c <__do_copy_data+0xc>

00002586 <__do_clear_bss>:
    2586:	22 e0       	ldi	r18, 0x02	; 2
    2588:	ae ee       	ldi	r26, 0xEE	; 238
    258a:	b1 e0       	ldi	r27, 0x01	; 1
    258c:	01 c0       	rjmp	.+2      	; 0x2590 <.do_clear_bss_start>

0000258e <.do_clear_bss_loop>:
    258e:	1d 92       	st	X+, r1

00002590 <.do_clear_bss_start>:
    2590:	a6 34       	cpi	r26, 0x46	; 70
    2592:	b2 07       	cpc	r27, r18
    2594:	e1 f7       	brne	.-8      	; 0x258e <.do_clear_bss_loop>

00002596 <__do_global_ctors>:
    2596:	12 e1       	ldi	r17, 0x12	; 18
    2598:	c2 eb       	ldi	r28, 0xB2	; 178
    259a:	d2 e1       	ldi	r29, 0x12	; 18
    259c:	04 c0       	rjmp	.+8      	; 0x25a6 <__do_global_ctors+0x10>
    259e:	21 97       	sbiw	r28, 0x01	; 1
    25a0:	fe 01       	movw	r30, r28
    25a2:	0e 94 f3 2b 	call	0x57e6	; 0x57e6 <__tablejump2__>
    25a6:	c1 3b       	cpi	r28, 0xB1	; 177
    25a8:	d1 07       	cpc	r29, r17
    25aa:	c9 f7       	brne	.-14     	; 0x259e <__do_global_ctors+0x8>
    25ac:	0e 94 dc 12 	call	0x25b8	; 0x25b8 <main>
    25b0:	0c 94 3e 2c 	jmp	0x587c	; 0x587c <_exit>

000025b4 <__bad_interrupt>:
    25b4:	0c 94 00 00 	jmp	0	; 0x0 <__vectors>

000025b8 <main>:
--------------  MAIN START  --------------
//========================================*/

int main(void)
{
  beginPort(B, OUT);
    25b8:	61 e0       	ldi	r22, 0x01	; 1
    25ba:	80 e0       	ldi	r24, 0x00	; 0
    25bc:	0e 94 a5 26 	call	0x4d4a	; 0x4d4a <_ZN3MCU7Setting9beginPortEab>
  beginPort(C, IN);
    25c0:	60 e0       	ldi	r22, 0x00	; 0
    25c2:	81 e0       	ldi	r24, 0x01	; 1
    25c4:	0e 94 a5 26 	call	0x4d4a	; 0x4d4a <_ZN3MCU7Setting9beginPortEab>
  beginPin(D, 6);
    25c8:	66 e0       	ldi	r22, 0x06	; 6
    25ca:	82 e0       	ldi	r24, 0x02	; 2
    25cc:	0e 94 78 26 	call	0x4cf0	; 0x4cf0 <_ZN3MCU7Setting8beginPinEaa>

  beginINT(0, DOWN);
    25d0:	61 e0       	ldi	r22, 0x01	; 1
    25d2:	80 e0       	ldi	r24, 0x00	; 0
    25d4:	0e 94 b5 26 	call	0x4d6a	; 0x4d6a <_ZN3MCU7Setting8beginINTEaa>
  beginINT(1, DOWN);
    25d8:	61 e0       	ldi	r22, 0x01	; 1
    25da:	81 e0       	ldi	r24, 0x01	; 1
    25dc:	0e 94 b5 26 	call	0x4d6a	; 0x4d6a <_ZN3MCU7Setting8beginINTEaa>
  beginTimer(0, OVF);
    25e0:	60 e0       	ldi	r22, 0x00	; 0
    25e2:	80 e0       	ldi	r24, 0x00	; 0
    25e4:	0e 94 d0 26 	call	0x4da0	; 0x4da0 <_ZN3MCU7Setting10beginTimerEab>
  //beginTimer(1, COMP);
  beginTimer(2, COMP);
    25e8:	61 e0       	ldi	r22, 0x01	; 1
    25ea:	82 e0       	ldi	r24, 0x02	; 2
    25ec:	0e 94 d0 26 	call	0x4da0	; 0x4da0 <_ZN3MCU7Setting10beginTimerEab>

  beginSPI();
    25f0:	0e 94 26 27 	call	0x4e4c	; 0x4e4c <_ZN3MCU7Setting8beginSPIEv>
  sei();
    25f4:	78 94       	sei

  while (1)
  {
    game.title();
    25f6:	8e ee       	ldi	r24, 0xEE	; 238
    25f8:	91 e0       	ldi	r25, 0x01	; 1
    25fa:	0e 94 a8 21 	call	0x4350	; 0x4350 <_ZN4Game5titleEv>
    game.start();
    25fe:	8e ee       	ldi	r24, 0xEE	; 238
    2600:	91 e0       	ldi	r25, 0x01	; 1
    2602:	0e 94 e3 1e 	call	0x3dc6	; 0x3dc6 <_ZN4Game5startEv>
    game.end();
    2606:	8e ee       	ldi	r24, 0xEE	; 238
    2608:	91 e0       	ldi	r25, 0x01	; 1
    260a:	0e 94 ab 1f 	call	0x3f56	; 0x3f56 <_ZN4Game3endEv>
    260e:	f3 cf       	rjmp	.-26     	; 0x25f6 <main+0x3e>

00002610 <__vector_16>:
---------------  MAIN END  ---------------
//========================================*/


ISR(TIMER0_OVF_vect)
{
    2610:	1f 92       	push	r1
    2612:	0f 92       	push	r0
    2614:	0f b6       	in	r0, 0x3f	; 63
    2616:	0f 92       	push	r0
    2618:	11 24       	eor	r1, r1
    261a:	2f 93       	push	r18
    261c:	3f 93       	push	r19
    261e:	4f 93       	push	r20
    2620:	5f 93       	push	r21
    2622:	6f 93       	push	r22
    2624:	7f 93       	push	r23
    2626:	8f 93       	push	r24
    2628:	9f 93       	push	r25
    262a:	af 93       	push	r26
    262c:	bf 93       	push	r27
    262e:	ef 93       	push	r30
    2630:	ff 93       	push	r31
  SW::update();
    2632:	0e 94 2b 27 	call	0x4e56	; 0x4e56 <_ZN2SW6updateEv>

  if (SW::result != SW_OFF)
    2636:	80 91 45 02 	lds	r24, 0x0245	; 0x800245 <_ZN2SW6resultE>
    263a:	88 23       	and	r24, r24
    263c:	39 f1       	breq	.+78     	; 0x268c <__vector_16+0x7c>
  {
    switch (SW::result)
    263e:	80 91 45 02 	lds	r24, 0x0245	; 0x800245 <_ZN2SW6resultE>
    2642:	84 30       	cpi	r24, 0x04	; 4
    2644:	c1 f0       	breq	.+48     	; 0x2676 <__vector_16+0x66>
    2646:	28 f4       	brcc	.+10     	; 0x2652 <__vector_16+0x42>
    2648:	81 30       	cpi	r24, 0x01	; 1
    264a:	89 f0       	breq	.+34     	; 0x266e <__vector_16+0x5e>
    264c:	82 30       	cpi	r24, 0x02	; 2
    264e:	59 f0       	breq	.+22     	; 0x2666 <__vector_16+0x56>
    2650:	1d c0       	rjmp	.+58     	; 0x268c <__vector_16+0x7c>
    2652:	80 31       	cpi	r24, 0x10	; 16
    2654:	a1 f0       	breq	.+40     	; 0x267e <__vector_16+0x6e>
    2656:	80 32       	cpi	r24, 0x20	; 32
    2658:	b1 f0       	breq	.+44     	; 0x2686 <__vector_16+0x76>
    265a:	88 30       	cpi	r24, 0x08	; 8
    265c:	b9 f4       	brne	.+46     	; 0x268c <__vector_16+0x7c>
    {
    case SW_UP:
      SW::up = ON;
    265e:	81 e0       	ldi	r24, 0x01	; 1
    2660:	80 93 40 02 	sts	0x0240, r24	; 0x800240 <_ZN2SW2upE>
      break;
    2664:	13 c0       	rjmp	.+38     	; 0x268c <__vector_16+0x7c>
    
    case SW_DOWN:
      SW::down = ON;
    2666:	81 e0       	ldi	r24, 0x01	; 1
    2668:	80 93 3f 02 	sts	0x023F, r24	; 0x80023f <_ZN2SW4downE>
      break;
    266c:	0f c0       	rjmp	.+30     	; 0x268c <__vector_16+0x7c>
    
    case SW_LEFT:
      SW::left = ON;
    266e:	81 e0       	ldi	r24, 0x01	; 1
    2670:	80 93 3e 02 	sts	0x023E, r24	; 0x80023e <_ZN2SW4leftE>
      break;
    2674:	0b c0       	rjmp	.+22     	; 0x268c <__vector_16+0x7c>
    
    case SW_RIGHT:
      SW::right = ON;
    2676:	81 e0       	ldi	r24, 0x01	; 1
    2678:	80 93 3d 02 	sts	0x023D, r24	; 0x80023d <_ZN2SW5rightE>
      break;
    267c:	07 c0       	rjmp	.+14     	; 0x268c <__vector_16+0x7c>
    
    case SW_START:
      SW::start = ON;
    267e:	81 e0       	ldi	r24, 0x01	; 1
    2680:	80 93 3c 02 	sts	0x023C, r24	; 0x80023c <_ZN2SW5startE>
      break;
    2684:	03 c0       	rjmp	.+6      	; 0x268c <__vector_16+0x7c>
    
    case SW_SELECT:
      SW::select = ON;
    2686:	81 e0       	ldi	r24, 0x01	; 1
    2688:	80 93 3b 02 	sts	0x023B, r24	; 0x80023b <_ZN2SW6selectE>

    default:
      break;
    }
  }
}
    268c:	ff 91       	pop	r31
    268e:	ef 91       	pop	r30
    2690:	bf 91       	pop	r27
    2692:	af 91       	pop	r26
    2694:	9f 91       	pop	r25
    2696:	8f 91       	pop	r24
    2698:	7f 91       	pop	r23
    269a:	6f 91       	pop	r22
    269c:	5f 91       	pop	r21
    269e:	4f 91       	pop	r20
    26a0:	3f 91       	pop	r19
    26a2:	2f 91       	pop	r18
    26a4:	0f 90       	pop	r0
    26a6:	0f be       	out	0x3f, r0	; 63
    26a8:	0f 90       	pop	r0
    26aa:	1f 90       	pop	r1
    26ac:	18 95       	reti

000026ae <__vector_7>:
    break;
  }
}
*/
ISR(TIMER2_COMPA_vect)
{
    26ae:	1f 92       	push	r1
    26b0:	0f 92       	push	r0
    26b2:	0f b6       	in	r0, 0x3f	; 63
    26b4:	0f 92       	push	r0
    26b6:	11 24       	eor	r1, r1
    26b8:	8f 93       	push	r24
    26ba:	9f 93       	push	r25
    26bc:	af 93       	push	r26
    26be:	bf 93       	push	r27
  Frame::presentTime++;
    26c0:	80 91 35 02 	lds	r24, 0x0235	; 0x800235 <_ZN5Frame11presentTimeE>
    26c4:	90 91 36 02 	lds	r25, 0x0236	; 0x800236 <_ZN5Frame11presentTimeE+0x1>
    26c8:	a0 91 37 02 	lds	r26, 0x0237	; 0x800237 <_ZN5Frame11presentTimeE+0x2>
    26cc:	b0 91 38 02 	lds	r27, 0x0238	; 0x800238 <_ZN5Frame11presentTimeE+0x3>
    26d0:	01 96       	adiw	r24, 0x01	; 1
    26d2:	a1 1d       	adc	r26, r1
    26d4:	b1 1d       	adc	r27, r1
    26d6:	80 93 35 02 	sts	0x0235, r24	; 0x800235 <_ZN5Frame11presentTimeE>
    26da:	90 93 36 02 	sts	0x0236, r25	; 0x800236 <_ZN5Frame11presentTimeE+0x1>
    26de:	a0 93 37 02 	sts	0x0237, r26	; 0x800237 <_ZN5Frame11presentTimeE+0x2>
    26e2:	b0 93 38 02 	sts	0x0238, r27	; 0x800238 <_ZN5Frame11presentTimeE+0x3>
}
    26e6:	bf 91       	pop	r27
    26e8:	af 91       	pop	r26
    26ea:	9f 91       	pop	r25
    26ec:	8f 91       	pop	r24
    26ee:	0f 90       	pop	r0
    26f0:	0f be       	out	0x3f, r0	; 63
    26f2:	0f 90       	pop	r0
    26f4:	1f 90       	pop	r1
    26f6:	18 95       	reti

000026f8 <__vector_1>:

ISR(INT0_vect)
{
    26f8:	1f 92       	push	r1
    26fa:	0f 92       	push	r0
    26fc:	0f b6       	in	r0, 0x3f	; 63
    26fe:	0f 92       	push	r0
    2700:	11 24       	eor	r1, r1
    2702:	8f 93       	push	r24
  SW::interrupt0 = ON;
    2704:	81 e0       	ldi	r24, 0x01	; 1
    2706:	80 93 42 02 	sts	0x0242, r24	; 0x800242 <_ZN2SW10interrupt0E>
}
    270a:	8f 91       	pop	r24
    270c:	0f 90       	pop	r0
    270e:	0f be       	out	0x3f, r0	; 63
    2710:	0f 90       	pop	r0
    2712:	1f 90       	pop	r1
    2714:	18 95       	reti

00002716 <__vector_2>:

ISR(INT1_vect)
{
    2716:	1f 92       	push	r1
    2718:	0f 92       	push	r0
    271a:	0f b6       	in	r0, 0x3f	; 63
    271c:	0f 92       	push	r0
    271e:	11 24       	eor	r1, r1
    2720:	8f 93       	push	r24
  SW::interrupt1 = ON;
    2722:	81 e0       	ldi	r24, 0x01	; 1
    2724:	80 93 41 02 	sts	0x0241, r24	; 0x800241 <_ZN2SW10interrupt1E>
    2728:	8f 91       	pop	r24
    272a:	0f 90       	pop	r0
    272c:	0f be       	out	0x3f, r0	; 63
    272e:	0f 90       	pop	r0
    2730:	1f 90       	pop	r1
    2732:	18 95       	reti

00002734 <_GLOBAL__sub_I_game>:
private:
  int16_t m_Width;
  int16_t m_Height;

public:
  TFT() : SPI() { m_Width = 240; m_Height = 320; }
    2734:	ee ee       	ldi	r30, 0xEE	; 238
    2736:	f1 e0       	ldi	r31, 0x01	; 1
    2738:	80 ef       	ldi	r24, 0xF0	; 240
    273a:	90 e0       	ldi	r25, 0x00	; 0
    273c:	91 83       	std	Z+1, r25	; 0x01
    273e:	80 83       	st	Z, r24
    2740:	80 e4       	ldi	r24, 0x40	; 64
    2742:	91 e0       	ldi	r25, 0x01	; 1
    2744:	93 83       	std	Z+3, r25	; 0x03
    2746:	82 83       	std	Z+2, r24	; 0x02

  void resetScore(void);
  void readScore(void);

public:
  Game() : Font() { m_IsHardmode = false; }
    2748:	11 8a       	std	Z+17, r1	; 0x11
    274a:	08 95       	ret

0000274c <_ZN4Font11printLetterEiih>:
/*----------------------------------------//
              Print 8x8 Letter
//----------------------------------------*/

void Font::printLetter(int16_t xPos, int16_t yPos, uint8_t ASCII)
{
    274c:	8f 92       	push	r8
    274e:	9f 92       	push	r9
    2750:	af 92       	push	r10
    2752:	bf 92       	push	r11
    2754:	cf 92       	push	r12
    2756:	df 92       	push	r13
    2758:	ef 92       	push	r14
    275a:	ff 92       	push	r15
    275c:	0f 93       	push	r16
    275e:	1f 93       	push	r17
    2760:	cf 93       	push	r28
    2762:	df 93       	push	r29
    2764:	ec 01       	movw	r28, r24

  uint8_t data;
  uint8_t temp;
  int16_t ASCIIValue = ASCII - 32;
    2766:	82 2f       	mov	r24, r18
    2768:	90 e0       	ldi	r25, 0x00	; 0
    276a:	80 97       	sbiw	r24, 0x20	; 32
  ASCIIValue = (ASCIIValue / 16) * 128 + (ASCIIValue % 16);
    276c:	9c 01       	movw	r18, r24
    276e:	12 f4       	brpl	.+4      	; 0x2774 <_ZN4Font11printLetterEiih+0x28>
    2770:	21 5f       	subi	r18, 0xF1	; 241
    2772:	3f 4f       	sbci	r19, 0xFF	; 255
    2774:	49 01       	movw	r8, r18
    2776:	95 94       	asr	r9
    2778:	87 94       	ror	r8
    277a:	95 94       	asr	r9
    277c:	87 94       	ror	r8
    277e:	95 94       	asr	r9
    2780:	87 94       	ror	r8
    2782:	95 94       	asr	r9
    2784:	87 94       	ror	r8
    2786:	96 94       	lsr	r9
    2788:	98 2c       	mov	r9, r8
    278a:	88 24       	eor	r8, r8
    278c:	97 94       	ror	r9
    278e:	87 94       	ror	r8
    2790:	8f 70       	andi	r24, 0x0F	; 15
    2792:	90 78       	andi	r25, 0x80	; 128
    2794:	99 23       	and	r25, r25
    2796:	24 f4       	brge	.+8      	; 0x27a0 <_ZN4Font11printLetterEiih+0x54>
    2798:	01 97       	sbiw	r24, 0x01	; 1
    279a:	80 6f       	ori	r24, 0xF0	; 240
    279c:	9f 6f       	ori	r25, 0xFF	; 255
    279e:	01 96       	adiw	r24, 0x01	; 1
    27a0:	88 0e       	add	r8, r24
    27a2:	99 1e       	adc	r9, r25

  setAddress(xPos, yPos, (xPos + 15), (yPos + 15));
    27a4:	8a 01       	movw	r16, r20
    27a6:	01 5f       	subi	r16, 0xF1	; 241
    27a8:	1f 4f       	sbci	r17, 0xFF	; 255
    27aa:	9b 01       	movw	r18, r22
    27ac:	21 5f       	subi	r18, 0xF1	; 241
    27ae:	3f 4f       	sbci	r19, 0xFF	; 255
    27b0:	ce 01       	movw	r24, r28
    27b2:	0e 94 ee 27 	call	0x4fdc	; 0x4fdc <_ZN3TFT10setAddressEiiii>
    27b6:	54 01       	movw	r10, r8
    27b8:	80 e8       	ldi	r24, 0x80	; 128
    27ba:	88 0e       	add	r8, r24
    27bc:	91 1c       	adc	r9, r1
/*----------------------------------------//
              Print 8x8 Letter
//----------------------------------------*/

void Font::printLetter(int16_t xPos, int16_t yPos, uint8_t ASCII)
{
    27be:	68 94       	set
    27c0:	cc 24       	eor	r12, r12
    27c2:	c1 f8       	bld	r12, 1
    27c4:	d1 2c       	mov	r13, r1
  for (int i=0; i<(16 / 2); i++)
  {
    for (int j=0; j<2; j++)
    {

      data = pgm_read_byte(&m_Bitmap[(i * 16) + ASCIIValue]);
    27c6:	ec 81       	ldd	r30, Y+4	; 0x04
    27c8:	fd 81       	ldd	r31, Y+5	; 0x05
    27ca:	ea 0d       	add	r30, r10
    27cc:	fb 1d       	adc	r31, r11
    27ce:	14 91       	lpm	r17, Z
    27d0:	68 94       	set
    27d2:	ee 24       	eor	r14, r14
    27d4:	e3 f8       	bld	r14, 3
    27d6:	f1 2c       	mov	r15, r1
        temp = data >> 7;

        for (int l=0; l<2; l++)
        {

          if (temp == 0x00)       //1Pixel = 0
    27d8:	11 23       	and	r17, r17
    27da:	5c f4       	brge	.+22     	; 0x27f2 <_ZN4Font11printLetterEiih+0xa6>
            exportLongData(m_Background);
          }

          else                    //1Pixel = 1
          {
            exportLongData(m_Colored);
    27dc:	68 85       	ldd	r22, Y+8	; 0x08
    27de:	79 85       	ldd	r23, Y+9	; 0x09
    27e0:	ce 01       	movw	r24, r28
    27e2:	0e 94 5e 27 	call	0x4ebc	; 0x4ebc <_ZN3SPI14exportLongDataEj>
    27e6:	68 85       	ldd	r22, Y+8	; 0x08
    27e8:	79 85       	ldd	r23, Y+9	; 0x09
    27ea:	ce 01       	movw	r24, r28
    27ec:	0e 94 5e 27 	call	0x4ebc	; 0x4ebc <_ZN3SPI14exportLongDataEj>
    27f0:	0a c0       	rjmp	.+20     	; 0x2806 <_ZN4Font11printLetterEiih+0xba>
        for (int l=0; l<2; l++)
        {

          if (temp == 0x00)       //1Pixel = 0
          {
            exportLongData(m_Background);
    27f2:	6e 81       	ldd	r22, Y+6	; 0x06
    27f4:	7f 81       	ldd	r23, Y+7	; 0x07
    27f6:	ce 01       	movw	r24, r28
    27f8:	0e 94 5e 27 	call	0x4ebc	; 0x4ebc <_ZN3SPI14exportLongDataEj>
    27fc:	6e 81       	ldd	r22, Y+6	; 0x06
    27fe:	7f 81       	ldd	r23, Y+7	; 0x07
    2800:	ce 01       	movw	r24, r28
    2802:	0e 94 5e 27 	call	0x4ebc	; 0x4ebc <_ZN3SPI14exportLongDataEj>
            exportLongData(m_Colored);
          }

        }

        data <<= 1;
    2806:	11 0f       	add	r17, r17
    2808:	81 e0       	ldi	r24, 0x01	; 1
    280a:	e8 1a       	sub	r14, r24
    280c:	f1 08       	sbc	r15, r1
    for (int j=0; j<2; j++)
    {

      data = pgm_read_byte(&m_Bitmap[(i * 16) + ASCIIValue]);

      for (int k=0; k<8; k++)
    280e:	21 f7       	brne	.-56     	; 0x27d8 <_ZN4Font11printLetterEiih+0x8c>
    2810:	81 e0       	ldi	r24, 0x01	; 1
    2812:	c8 1a       	sub	r12, r24
    2814:	d1 08       	sbc	r13, r1

  setAddress(xPos, yPos, (xPos + 15), (yPos + 15));

  for (int i=0; i<(16 / 2); i++)
  {
    for (int j=0; j<2; j++)
    2816:	b9 f6       	brne	.-82     	; 0x27c6 <_ZN4Font11printLetterEiih+0x7a>
    2818:	80 e1       	ldi	r24, 0x10	; 16
    281a:	a8 0e       	add	r10, r24
    281c:	b1 1c       	adc	r11, r1
  int16_t ASCIIValue = ASCII - 32;
  ASCIIValue = (ASCIIValue / 16) * 128 + (ASCIIValue % 16);

  setAddress(xPos, yPos, (xPos + 15), (yPos + 15));

  for (int i=0; i<(16 / 2); i++)
    281e:	a8 14       	cp	r10, r8
    2820:	b9 04       	cpc	r11, r9
    2822:	69 f6       	brne	.-102    	; 0x27be <_ZN4Font11printLetterEiih+0x72>
      }

    }
  }

}
    2824:	df 91       	pop	r29
    2826:	cf 91       	pop	r28
    2828:	1f 91       	pop	r17
    282a:	0f 91       	pop	r16
    282c:	ff 90       	pop	r15
    282e:	ef 90       	pop	r14
    2830:	df 90       	pop	r13
    2832:	cf 90       	pop	r12
    2834:	bf 90       	pop	r11
    2836:	af 90       	pop	r10
    2838:	9f 90       	pop	r9
    283a:	8f 90       	pop	r8
    283c:	08 95       	ret

0000283e <_ZN4Font5printEiiPKc>:
/*----------------------------------------//
              Print String
//----------------------------------------*/

void Font::print(int16_t xPos, int16_t yPos, const char *stringValue)
{
    283e:	cf 92       	push	r12
    2840:	df 92       	push	r13
    2842:	ef 92       	push	r14
    2844:	ff 92       	push	r15
    2846:	0f 93       	push	r16
    2848:	1f 93       	push	r17
    284a:	cf 93       	push	r28
    284c:	df 93       	push	r29
    284e:	7c 01       	movw	r14, r24
    2850:	eb 01       	movw	r28, r22
    2852:	6a 01       	movw	r12, r20
    2854:	f9 01       	movw	r30, r18

  while (*stringValue != '\0')
    2856:	20 81       	ld	r18, Z
    2858:	22 23       	and	r18, r18
    285a:	71 f0       	breq	.+28     	; 0x2878 <_ZN4Font5printEiiPKc+0x3a>
    285c:	8f 01       	movw	r16, r30
    285e:	0f 5f       	subi	r16, 0xFF	; 255
    2860:	1f 4f       	sbci	r17, 0xFF	; 255
  {
    printLetter(xPos, yPos, *stringValue);
    2862:	a6 01       	movw	r20, r12
    2864:	be 01       	movw	r22, r28
    2866:	c7 01       	movw	r24, r14
    2868:	0e 94 a6 13 	call	0x274c	; 0x274c <_ZN4Font11printLetterEiih>
    stringValue++;
    xPos += 16;
    286c:	60 96       	adiw	r28, 0x10	; 16
//----------------------------------------*/

void Font::print(int16_t xPos, int16_t yPos, const char *stringValue)
{

  while (*stringValue != '\0')
    286e:	f8 01       	movw	r30, r16
    2870:	21 91       	ld	r18, Z+
    2872:	8f 01       	movw	r16, r30
    2874:	21 11       	cpse	r18, r1
    2876:	f5 cf       	rjmp	.-22     	; 0x2862 <_ZN4Font5printEiiPKc+0x24>
    printLetter(xPos, yPos, *stringValue);
    stringValue++;
    xPos += 16;
  }

}
    2878:	df 91       	pop	r29
    287a:	cf 91       	pop	r28
    287c:	1f 91       	pop	r17
    287e:	0f 91       	pop	r16
    2880:	ff 90       	pop	r15
    2882:	ef 90       	pop	r14
    2884:	df 90       	pop	r13
    2886:	cf 90       	pop	r12
    2888:	08 95       	ret

0000288a <_ZN4Font5printEiim>:
/*----------------------------------------//
              Print Intager
//----------------------------------------*/

void Font::print(int16_t xPos, int16_t yPos, uint32_t intager)
{
    288a:	2f 92       	push	r2
    288c:	3f 92       	push	r3
    288e:	4f 92       	push	r4
    2890:	5f 92       	push	r5
    2892:	6f 92       	push	r6
    2894:	7f 92       	push	r7
    2896:	8f 92       	push	r8
    2898:	9f 92       	push	r9
    289a:	af 92       	push	r10
    289c:	bf 92       	push	r11
    289e:	cf 92       	push	r12
    28a0:	df 92       	push	r13
    28a2:	ef 92       	push	r14
    28a4:	ff 92       	push	r15
    28a6:	0f 93       	push	r16
    28a8:	1f 93       	push	r17
    28aa:	cf 93       	push	r28
    28ac:	df 93       	push	r29
    28ae:	cd b7       	in	r28, 0x3d	; 61
    28b0:	de b7       	in	r29, 0x3e	; 62
    28b2:	27 97       	sbiw	r28, 0x07	; 7
    28b4:	0f b6       	in	r0, 0x3f	; 63
    28b6:	f8 94       	cli
    28b8:	de bf       	out	0x3e, r29	; 62
    28ba:	0f be       	out	0x3f, r0	; 63
    28bc:	cd bf       	out	0x3d, r28	; 61
    28be:	9a 83       	std	Y+2, r25	; 0x02
    28c0:	89 83       	std	Y+1, r24	; 0x01
    28c2:	b6 2e       	mov	r11, r22
    28c4:	a7 2e       	mov	r10, r23
    28c6:	5c 83       	std	Y+4, r21	; 0x04
    28c8:	4b 83       	std	Y+3, r20	; 0x03
    28ca:	68 01       	movw	r12, r16
    28cc:	79 01       	movw	r14, r18

  uint32_t placeValue = 1;
  uint8_t digit = 1;

  while ((intager / placeValue) > 9)
    28ce:	0a 30       	cpi	r16, 0x0A	; 10
    28d0:	11 05       	cpc	r17, r1
    28d2:	21 05       	cpc	r18, r1
    28d4:	31 05       	cpc	r19, r1
    28d6:	88 f1       	brcs	.+98     	; 0x293a <_ZN4Font5printEiim+0xb0>
    28d8:	91 e0       	ldi	r25, 0x01	; 1
    28da:	9d 83       	std	Y+5, r25	; 0x05
    28dc:	41 2c       	mov	r4, r1
    28de:	51 2c       	mov	r5, r1
    28e0:	32 01       	movw	r6, r4
    28e2:	43 94       	inc	r4
    28e4:	09 c0       	rjmp	.+18     	; 0x28f8 <_ZN4Font5printEiim+0x6e>
  {
    digit++;
    placeValue *= 10;
  }
  
  for (int i=0; i<digit; i++)
    28e6:	9d 81       	ldd	r25, Y+5	; 0x05
    28e8:	89 2f       	mov	r24, r25
    28ea:	90 e0       	ldi	r25, 0x00	; 0
    28ec:	9f 83       	std	Y+7, r25	; 0x07
    28ee:	8e 83       	std	Y+6, r24	; 0x06
    28f0:	18 16       	cp	r1, r24
    28f2:	19 06       	cpc	r1, r25
    28f4:	54 f1       	brlt	.+84     	; 0x294a <_ZN4Font5printEiim+0xc0>
    28f6:	57 c0       	rjmp	.+174    	; 0x29a6 <_ZN4Font5printEiim+0x11c>
  uint32_t placeValue = 1;
  uint8_t digit = 1;

  while ((intager / placeValue) > 9)
  {
    digit++;
    28f8:	8d 81       	ldd	r24, Y+5	; 0x05
    28fa:	8f 5f       	subi	r24, 0xFF	; 255
    28fc:	8d 83       	std	Y+5, r24	; 0x05
    placeValue *= 10;
    28fe:	44 0c       	add	r4, r4
    2900:	55 1c       	adc	r5, r5
    2902:	66 1c       	adc	r6, r6
    2904:	77 1c       	adc	r7, r7
    2906:	d3 01       	movw	r26, r6
    2908:	c2 01       	movw	r24, r4
    290a:	88 0f       	add	r24, r24
    290c:	99 1f       	adc	r25, r25
    290e:	aa 1f       	adc	r26, r26
    2910:	bb 1f       	adc	r27, r27
    2912:	88 0f       	add	r24, r24
    2914:	99 1f       	adc	r25, r25
    2916:	aa 1f       	adc	r26, r26
    2918:	bb 1f       	adc	r27, r27
    291a:	48 0e       	add	r4, r24
    291c:	59 1e       	adc	r5, r25
    291e:	6a 1e       	adc	r6, r26
    2920:	7b 1e       	adc	r7, r27
{

  uint32_t placeValue = 1;
  uint8_t digit = 1;

  while ((intager / placeValue) > 9)
    2922:	c7 01       	movw	r24, r14
    2924:	b6 01       	movw	r22, r12
    2926:	a3 01       	movw	r20, r6
    2928:	92 01       	movw	r18, r4
    292a:	0e 94 c6 2b 	call	0x578c	; 0x578c <__udivmodsi4>
    292e:	2a 30       	cpi	r18, 0x0A	; 10
    2930:	31 05       	cpc	r19, r1
    2932:	41 05       	cpc	r20, r1
    2934:	51 05       	cpc	r21, r1
    2936:	00 f7       	brcc	.-64     	; 0x28f8 <_ZN4Font5printEiim+0x6e>
    2938:	d6 cf       	rjmp	.-84     	; 0x28e6 <_ZN4Font5printEiim+0x5c>
  {
    digit++;
    placeValue *= 10;
  }
  
  for (int i=0; i<digit; i++)
    293a:	81 e0       	ldi	r24, 0x01	; 1
    293c:	90 e0       	ldi	r25, 0x00	; 0
    293e:	9f 83       	std	Y+7, r25	; 0x07
    2940:	8e 83       	std	Y+6, r24	; 0x06
//----------------------------------------*/

void Font::print(int16_t xPos, int16_t yPos, uint32_t intager)
{

  uint32_t placeValue = 1;
    2942:	41 2c       	mov	r4, r1
    2944:	51 2c       	mov	r5, r1
    2946:	32 01       	movw	r6, r4
    2948:	43 94       	inc	r4
    294a:	0b 2d       	mov	r16, r11
    294c:	1a 2d       	mov	r17, r10
    294e:	a1 2c       	mov	r10, r1
    2950:	b1 2c       	mov	r11, r1
    placeValue *= 10;
  }
  
  for (int i=0; i<digit; i++)
  {
    printLetter(xPos + (16 * i), yPos, (intager / placeValue) + 0x30);
    2952:	c7 01       	movw	r24, r14
    2954:	b6 01       	movw	r22, r12
    2956:	a3 01       	movw	r20, r6
    2958:	92 01       	movw	r18, r4
    295a:	0e 94 c6 2b 	call	0x578c	; 0x578c <__udivmodsi4>
    295e:	26 2e       	mov	r2, r22
    2960:	37 2e       	mov	r3, r23
    2962:	88 2e       	mov	r8, r24
    2964:	99 2e       	mov	r9, r25
    2966:	20 5d       	subi	r18, 0xD0	; 208
    2968:	4b 81       	ldd	r20, Y+3	; 0x03
    296a:	5c 81       	ldd	r21, Y+4	; 0x04
    296c:	b8 01       	movw	r22, r16
    296e:	89 81       	ldd	r24, Y+1	; 0x01
    2970:	9a 81       	ldd	r25, Y+2	; 0x02
    2972:	0e 94 a6 13 	call	0x274c	; 0x274c <_ZN4Font11printLetterEiih>
    intager %= placeValue;
    2976:	c2 2c       	mov	r12, r2
    2978:	d3 2c       	mov	r13, r3
    297a:	e8 2c       	mov	r14, r8
    297c:	f9 2c       	mov	r15, r9
    placeValue /= 10;
    297e:	c3 01       	movw	r24, r6
    2980:	b2 01       	movw	r22, r4
    2982:	2a e0       	ldi	r18, 0x0A	; 10
    2984:	30 e0       	ldi	r19, 0x00	; 0
    2986:	40 e0       	ldi	r20, 0x00	; 0
    2988:	50 e0       	ldi	r21, 0x00	; 0
    298a:	0e 94 c6 2b 	call	0x578c	; 0x578c <__udivmodsi4>
    298e:	29 01       	movw	r4, r18
    2990:	3a 01       	movw	r6, r20
  {
    digit++;
    placeValue *= 10;
  }
  
  for (int i=0; i<digit; i++)
    2992:	9f ef       	ldi	r25, 0xFF	; 255
    2994:	a9 1a       	sub	r10, r25
    2996:	b9 0a       	sbc	r11, r25
    2998:	00 5f       	subi	r16, 0xF0	; 240
    299a:	1f 4f       	sbci	r17, 0xFF	; 255
    299c:	8e 81       	ldd	r24, Y+6	; 0x06
    299e:	9f 81       	ldd	r25, Y+7	; 0x07
    29a0:	a8 16       	cp	r10, r24
    29a2:	b9 06       	cpc	r11, r25
    29a4:	b4 f2       	brlt	.-84     	; 0x2952 <_ZN4Font5printEiim+0xc8>
    printLetter(xPos + (16 * i), yPos, (intager / placeValue) + 0x30);
    intager %= placeValue;
    placeValue /= 10;
  }

    29a6:	27 96       	adiw	r28, 0x07	; 7
    29a8:	0f b6       	in	r0, 0x3f	; 63
    29aa:	f8 94       	cli
    29ac:	de bf       	out	0x3e, r29	; 62
    29ae:	0f be       	out	0x3f, r0	; 63
    29b0:	cd bf       	out	0x3d, r28	; 61
    29b2:	df 91       	pop	r29
    29b4:	cf 91       	pop	r28
    29b6:	1f 91       	pop	r17
    29b8:	0f 91       	pop	r16
    29ba:	ff 90       	pop	r15
    29bc:	ef 90       	pop	r14
    29be:	df 90       	pop	r13
    29c0:	cf 90       	pop	r12
    29c2:	bf 90       	pop	r11
    29c4:	af 90       	pop	r10
    29c6:	9f 90       	pop	r9
    29c8:	8f 90       	pop	r8
    29ca:	7f 90       	pop	r7
    29cc:	6f 90       	pop	r6
    29ce:	5f 90       	pop	r5
    29d0:	4f 90       	pop	r4
    29d2:	3f 90       	pop	r3
    29d4:	2f 90       	pop	r2
    29d6:	08 95       	ret

000029d8 <_ZN5Frame6updateEv>:
//----------------------------------------*/

void Frame::update(void)
{

  if (presentTime >= pastTick + 5)
    29d8:	80 91 35 02 	lds	r24, 0x0235	; 0x800235 <_ZN5Frame11presentTimeE>
    29dc:	90 91 36 02 	lds	r25, 0x0236	; 0x800236 <_ZN5Frame11presentTimeE+0x1>
    29e0:	a0 91 37 02 	lds	r26, 0x0237	; 0x800237 <_ZN5Frame11presentTimeE+0x2>
    29e4:	b0 91 38 02 	lds	r27, 0x0238	; 0x800238 <_ZN5Frame11presentTimeE+0x3>
    29e8:	40 91 31 02 	lds	r20, 0x0231	; 0x800231 <_ZN5Frame8pastTickE>
    29ec:	50 91 32 02 	lds	r21, 0x0232	; 0x800232 <_ZN5Frame8pastTickE+0x1>
    29f0:	60 91 33 02 	lds	r22, 0x0233	; 0x800233 <_ZN5Frame8pastTickE+0x2>
    29f4:	70 91 34 02 	lds	r23, 0x0234	; 0x800234 <_ZN5Frame8pastTickE+0x3>
    29f8:	4b 5f       	subi	r20, 0xFB	; 251
    29fa:	5f 4f       	sbci	r21, 0xFF	; 255
    29fc:	6f 4f       	sbci	r22, 0xFF	; 255
    29fe:	7f 4f       	sbci	r23, 0xFF	; 255
    2a00:	84 17       	cp	r24, r20
    2a02:	95 07       	cpc	r25, r21
    2a04:	a6 07       	cpc	r26, r22
    2a06:	b7 07       	cpc	r27, r23
    2a08:	90 f0       	brcs	.+36     	; 0x2a2e <_ZN5Frame6updateEv+0x56>
  {

    pastTick = presentTime;
    2a0a:	80 93 31 02 	sts	0x0231, r24	; 0x800231 <_ZN5Frame8pastTickE>
    2a0e:	90 93 32 02 	sts	0x0232, r25	; 0x800232 <_ZN5Frame8pastTickE+0x1>
    2a12:	a0 93 33 02 	sts	0x0233, r26	; 0x800233 <_ZN5Frame8pastTickE+0x2>
    2a16:	b0 93 34 02 	sts	0x0234, r27	; 0x800234 <_ZN5Frame8pastTickE+0x3>

    oneTick++;
    2a1a:	20 91 28 02 	lds	r18, 0x0228	; 0x800228 <_ZN5Frame7oneTickE>
    2a1e:	2f 5f       	subi	r18, 0xFF	; 255

    if (oneTick == 3)
    2a20:	23 30       	cpi	r18, 0x03	; 3
    2a22:	19 f0       	breq	.+6      	; 0x2a2a <_ZN5Frame6updateEv+0x52>
  if (presentTime >= pastTick + 5)
  {

    pastTick = presentTime;

    oneTick++;
    2a24:	20 93 28 02 	sts	0x0228, r18	; 0x800228 <_ZN5Frame7oneTickE>
    2a28:	02 c0       	rjmp	.+4      	; 0x2a2e <_ZN5Frame6updateEv+0x56>

    if (oneTick == 3)
    {
      oneTick = 0;
    2a2a:	10 92 28 02 	sts	0x0228, r1	; 0x800228 <_ZN5Frame7oneTickE>
    }

  }

  if (presentTime >= pastFrame + 100)
    2a2e:	40 91 2d 02 	lds	r20, 0x022D	; 0x80022d <_ZN5Frame9pastFrameE>
    2a32:	50 91 2e 02 	lds	r21, 0x022E	; 0x80022e <_ZN5Frame9pastFrameE+0x1>
    2a36:	60 91 2f 02 	lds	r22, 0x022F	; 0x80022f <_ZN5Frame9pastFrameE+0x2>
    2a3a:	70 91 30 02 	lds	r23, 0x0230	; 0x800230 <_ZN5Frame9pastFrameE+0x3>
    2a3e:	4c 59       	subi	r20, 0x9C	; 156
    2a40:	5f 4f       	sbci	r21, 0xFF	; 255
    2a42:	6f 4f       	sbci	r22, 0xFF	; 255
    2a44:	7f 4f       	sbci	r23, 0xFF	; 255
    2a46:	84 17       	cp	r24, r20
    2a48:	95 07       	cpc	r25, r21
    2a4a:	a6 07       	cpc	r26, r22
    2a4c:	b7 07       	cpc	r27, r23
    2a4e:	18 f1       	brcs	.+70     	; 0x2a96 <_ZN5Frame6updateEv+0xbe>
  {

    pastFrame = presentTime;
    2a50:	80 93 2d 02 	sts	0x022D, r24	; 0x80022d <_ZN5Frame9pastFrameE>
    2a54:	90 93 2e 02 	sts	0x022E, r25	; 0x80022e <_ZN5Frame9pastFrameE+0x1>
    2a58:	a0 93 2f 02 	sts	0x022F, r26	; 0x80022f <_ZN5Frame9pastFrameE+0x2>
    2a5c:	b0 93 30 02 	sts	0x0230, r27	; 0x800230 <_ZN5Frame9pastFrameE+0x3>

    secondFrame++;
    2a60:	40 91 27 02 	lds	r20, 0x0227	; 0x800227 <_ZN5Frame11secondFrameE>
    2a64:	4f 5f       	subi	r20, 0xFF	; 255
    2a66:	40 93 27 02 	sts	0x0227, r20	; 0x800227 <_ZN5Frame11secondFrameE>
    fourFrames++;
    2a6a:	30 91 26 02 	lds	r19, 0x0226	; 0x800226 <_ZN5Frame10fourFramesE>
    2a6e:	3f 5f       	subi	r19, 0xFF	; 255
    2a70:	30 93 26 02 	sts	0x0226, r19	; 0x800226 <_ZN5Frame10fourFramesE>
    sixFrames++;
    2a74:	20 91 25 02 	lds	r18, 0x0225	; 0x800225 <_ZN5Frame9sixFramesE>
    2a78:	2f 5f       	subi	r18, 0xFF	; 255
    2a7a:	20 93 25 02 	sts	0x0225, r18	; 0x800225 <_ZN5Frame9sixFramesE>

    if (secondFrame == 10)
    2a7e:	4a 30       	cpi	r20, 0x0A	; 10
    2a80:	11 f4       	brne	.+4      	; 0x2a86 <_ZN5Frame6updateEv+0xae>
    {
      secondFrame = 0;
    2a82:	10 92 27 02 	sts	0x0227, r1	; 0x800227 <_ZN5Frame11secondFrameE>
    }

    if (fourFrames == 4)
    2a86:	34 30       	cpi	r19, 0x04	; 4
    2a88:	11 f4       	brne	.+4      	; 0x2a8e <_ZN5Frame6updateEv+0xb6>
    {
      fourFrames = 0;
    2a8a:	10 92 26 02 	sts	0x0226, r1	; 0x800226 <_ZN5Frame10fourFramesE>
    }

    if (sixFrames == 6)
    2a8e:	26 30       	cpi	r18, 0x06	; 6
    2a90:	11 f4       	brne	.+4      	; 0x2a96 <_ZN5Frame6updateEv+0xbe>
    {
      sixFrames = 0;
    2a92:	10 92 25 02 	sts	0x0225, r1	; 0x800225 <_ZN5Frame9sixFramesE>
    }

  }

  if (presentTime >= pastBeat + 125)
    2a96:	40 91 29 02 	lds	r20, 0x0229	; 0x800229 <_ZN5Frame8pastBeatE>
    2a9a:	50 91 2a 02 	lds	r21, 0x022A	; 0x80022a <_ZN5Frame8pastBeatE+0x1>
    2a9e:	60 91 2b 02 	lds	r22, 0x022B	; 0x80022b <_ZN5Frame8pastBeatE+0x2>
    2aa2:	70 91 2c 02 	lds	r23, 0x022C	; 0x80022c <_ZN5Frame8pastBeatE+0x3>
    2aa6:	43 58       	subi	r20, 0x83	; 131
    2aa8:	5f 4f       	sbci	r21, 0xFF	; 255
    2aaa:	6f 4f       	sbci	r22, 0xFF	; 255
    2aac:	7f 4f       	sbci	r23, 0xFF	; 255
    2aae:	84 17       	cp	r24, r20
    2ab0:	95 07       	cpc	r25, r21
    2ab2:	a6 07       	cpc	r26, r22
    2ab4:	b7 07       	cpc	r27, r23
    2ab6:	d8 f0       	brcs	.+54     	; 0x2aee <_ZN5Frame6updateEv+0x116>
  {

    pastBeat = presentTime;
    2ab8:	80 93 29 02 	sts	0x0229, r24	; 0x800229 <_ZN5Frame8pastBeatE>
    2abc:	90 93 2a 02 	sts	0x022A, r25	; 0x80022a <_ZN5Frame8pastBeatE+0x1>
    2ac0:	a0 93 2b 02 	sts	0x022B, r26	; 0x80022b <_ZN5Frame8pastBeatE+0x2>
    2ac4:	b0 93 2c 02 	sts	0x022C, r27	; 0x80022c <_ZN5Frame8pastBeatE+0x3>

    scoreTime++;
    2ac8:	80 91 39 02 	lds	r24, 0x0239	; 0x800239 <_ZN5Frame9scoreTimeE>
    2acc:	90 91 3a 02 	lds	r25, 0x023A	; 0x80023a <_ZN5Frame9scoreTimeE+0x1>
    2ad0:	01 96       	adiw	r24, 0x01	; 1
    2ad2:	90 93 3a 02 	sts	0x023A, r25	; 0x80023a <_ZN5Frame9scoreTimeE+0x1>
    2ad6:	80 93 39 02 	sts	0x0239, r24	; 0x800239 <_ZN5Frame9scoreTimeE>
    sixteenBeats++;
    2ada:	80 91 00 01 	lds	r24, 0x0100	; 0x800100 <__DATA_REGION_ORIGIN__>
    2ade:	8f 5f       	subi	r24, 0xFF	; 255

    if (sixteenBeats == 2)
    2ae0:	82 30       	cpi	r24, 0x02	; 2
    2ae2:	19 f0       	breq	.+6      	; 0x2aea <_ZN5Frame6updateEv+0x112>
  {

    pastBeat = presentTime;

    scoreTime++;
    sixteenBeats++;
    2ae4:	80 93 00 01 	sts	0x0100, r24	; 0x800100 <__DATA_REGION_ORIGIN__>
    2ae8:	08 95       	ret

    if (sixteenBeats == 2)
    {
      sixteenBeats = 0;
    2aea:	10 92 00 01 	sts	0x0100, r1	; 0x800100 <__DATA_REGION_ORIGIN__>
    2aee:	08 95       	ret

00002af0 <_ZN5Frame4initEv>:
              Initialize Frame
//----------------------------------------*/

void Frame::init(void)
{
  pastTick = presentTime;
    2af0:	80 91 35 02 	lds	r24, 0x0235	; 0x800235 <_ZN5Frame11presentTimeE>
    2af4:	90 91 36 02 	lds	r25, 0x0236	; 0x800236 <_ZN5Frame11presentTimeE+0x1>
    2af8:	a0 91 37 02 	lds	r26, 0x0237	; 0x800237 <_ZN5Frame11presentTimeE+0x2>
    2afc:	b0 91 38 02 	lds	r27, 0x0238	; 0x800238 <_ZN5Frame11presentTimeE+0x3>
    2b00:	80 93 31 02 	sts	0x0231, r24	; 0x800231 <_ZN5Frame8pastTickE>
    2b04:	90 93 32 02 	sts	0x0232, r25	; 0x800232 <_ZN5Frame8pastTickE+0x1>
    2b08:	a0 93 33 02 	sts	0x0233, r26	; 0x800233 <_ZN5Frame8pastTickE+0x2>
    2b0c:	b0 93 34 02 	sts	0x0234, r27	; 0x800234 <_ZN5Frame8pastTickE+0x3>
  pastFrame = presentTime;
    2b10:	80 93 2d 02 	sts	0x022D, r24	; 0x80022d <_ZN5Frame9pastFrameE>
    2b14:	90 93 2e 02 	sts	0x022E, r25	; 0x80022e <_ZN5Frame9pastFrameE+0x1>
    2b18:	a0 93 2f 02 	sts	0x022F, r26	; 0x80022f <_ZN5Frame9pastFrameE+0x2>
    2b1c:	b0 93 30 02 	sts	0x0230, r27	; 0x800230 <_ZN5Frame9pastFrameE+0x3>
  pastBeat = presentTime;
    2b20:	80 93 29 02 	sts	0x0229, r24	; 0x800229 <_ZN5Frame8pastBeatE>
    2b24:	90 93 2a 02 	sts	0x022A, r25	; 0x80022a <_ZN5Frame8pastBeatE+0x1>
    2b28:	a0 93 2b 02 	sts	0x022B, r26	; 0x80022b <_ZN5Frame8pastBeatE+0x2>
    2b2c:	b0 93 2c 02 	sts	0x022C, r27	; 0x80022c <_ZN5Frame8pastBeatE+0x3>
    2b30:	08 95       	ret

00002b32 <_ZN4Game9titleLoopEv>:
/*----------------------------------------//
              Game Title Loop
//----------------------------------------*/

void Game::titleLoop(void)
{
    2b32:	2f 92       	push	r2
    2b34:	3f 92       	push	r3
    2b36:	4f 92       	push	r4
    2b38:	5f 92       	push	r5
    2b3a:	6f 92       	push	r6
    2b3c:	7f 92       	push	r7
    2b3e:	8f 92       	push	r8
    2b40:	9f 92       	push	r9
    2b42:	af 92       	push	r10
    2b44:	bf 92       	push	r11
    2b46:	cf 92       	push	r12
    2b48:	df 92       	push	r13
    2b4a:	ef 92       	push	r14
    2b4c:	ff 92       	push	r15
    2b4e:	0f 93       	push	r16
    2b50:	1f 93       	push	r17
    2b52:	cf 93       	push	r28
    2b54:	df 93       	push	r29
    2b56:	ec 01       	movw	r28, r24
  Font() : TFT(){};
  Font(const uint8_t *bitmap) : TFT() { m_Bitmap = bitmap; }
  ~Font(){};

  void setFont(const uint8_t *bitmap) { m_Bitmap = bitmap; }
  void setColor(uint16_t color0, uint16_t color1) { m_Background = color0; m_Colored = color1; }
    2b58:	0f 2e       	mov	r0, r31
    2b5a:	f0 ee       	ldi	r31, 0xE0	; 224
    2b5c:	6f 2e       	mov	r6, r31
    2b5e:	77 24       	eor	r7, r7
    2b60:	7a 94       	dec	r7
    2b62:	f0 2d       	mov	r31, r0
    2b64:	0f 2e       	mov	r0, r31
    2b66:	ff ee       	ldi	r31, 0xEF	; 239
    2b68:	4f 2e       	mov	r4, r31
    2b6a:	fb e7       	ldi	r31, 0x7B	; 123
    2b6c:	5f 2e       	mov	r5, r31
    2b6e:	f0 2d       	mov	r31, r0
    2b70:	0f 2e       	mov	r0, r31
    2b72:	ff e1       	ldi	r31, 0x1F	; 31
    2b74:	2f 2e       	mov	r2, r31
    2b76:	31 2c       	mov	r3, r1
    2b78:	f0 2d       	mov	r31, r0

  while (1)
  {

    Frame::update();
    2b7a:	0e 94 ec 14 	call	0x29d8	; 0x29d8 <_ZN5Frame6updateEv>
    
    if (m_IsScore == true && m_IsCredit == false)
    2b7e:	8e 85       	ldd	r24, Y+14	; 0x0e
    2b80:	88 23       	and	r24, r24
    2b82:	09 f4       	brne	.+2      	; 0x2b86 <_ZN4Game9titleLoopEv+0x54>
    2b84:	22 c1       	rjmp	.+580    	; 0x2dca <_ZN4Game9titleLoopEv+0x298>
    2b86:	8f 85       	ldd	r24, Y+15	; 0x0f
    2b88:	81 11       	cpse	r24, r1
    2b8a:	f7 cf       	rjmp	.-18     	; 0x2b7a <_ZN4Game9titleLoopEv+0x48>
    {
      print(120, 30, "Score");
    2b8c:	2d ed       	ldi	r18, 0xDD	; 221
    2b8e:	31 e0       	ldi	r19, 0x01	; 1
    2b90:	4e e1       	ldi	r20, 0x1E	; 30
    2b92:	50 e0       	ldi	r21, 0x00	; 0
    2b94:	68 e7       	ldi	r22, 0x78	; 120
    2b96:	70 e0       	ldi	r23, 0x00	; 0
    2b98:	ce 01       	movw	r24, r28
    2b9a:	0e 94 1f 14 	call	0x283e	; 0x283e <_ZN4Font5printEiiPKc>

      print(70, 65, "1");
    2b9e:	28 e3       	ldi	r18, 0x38	; 56
    2ba0:	31 e0       	ldi	r19, 0x01	; 1
    2ba2:	41 e4       	ldi	r20, 0x41	; 65
    2ba4:	50 e0       	ldi	r21, 0x00	; 0
    2ba6:	66 e4       	ldi	r22, 0x46	; 70
    2ba8:	70 e0       	ldi	r23, 0x00	; 0
    2baa:	ce 01       	movw	r24, r28
    2bac:	0e 94 1f 14 	call	0x283e	; 0x283e <_ZN4Font5printEiiPKc>
      printLetter(102, 65, firstName1st);
    2bb0:	2c 89       	ldd	r18, Y+20	; 0x14
    2bb2:	41 e4       	ldi	r20, 0x41	; 65
    2bb4:	50 e0       	ldi	r21, 0x00	; 0
    2bb6:	66 e6       	ldi	r22, 0x66	; 102
    2bb8:	70 e0       	ldi	r23, 0x00	; 0
    2bba:	ce 01       	movw	r24, r28
    2bbc:	0e 94 a6 13 	call	0x274c	; 0x274c <_ZN4Font11printLetterEiih>
      printLetter(118, 65, firstName2nd);
    2bc0:	2d 89       	ldd	r18, Y+21	; 0x15
    2bc2:	41 e4       	ldi	r20, 0x41	; 65
    2bc4:	50 e0       	ldi	r21, 0x00	; 0
    2bc6:	66 e7       	ldi	r22, 0x76	; 118
    2bc8:	70 e0       	ldi	r23, 0x00	; 0
    2bca:	ce 01       	movw	r24, r28
    2bcc:	0e 94 a6 13 	call	0x274c	; 0x274c <_ZN4Font11printLetterEiih>
      printLetter(134, 65, firstName3rd);
    2bd0:	2e 89       	ldd	r18, Y+22	; 0x16
    2bd2:	41 e4       	ldi	r20, 0x41	; 65
    2bd4:	50 e0       	ldi	r21, 0x00	; 0
    2bd6:	66 e8       	ldi	r22, 0x86	; 134
    2bd8:	70 e0       	ldi	r23, 0x00	; 0
    2bda:	ce 01       	movw	r24, r28
    2bdc:	0e 94 a6 13 	call	0x274c	; 0x274c <_ZN4Font11printLetterEiih>
      print(166, 65, firstScore);
    2be0:	08 8d       	ldd	r16, Y+24	; 0x18
    2be2:	19 8d       	ldd	r17, Y+25	; 0x19
    2be4:	20 e0       	ldi	r18, 0x00	; 0
    2be6:	30 e0       	ldi	r19, 0x00	; 0
    2be8:	41 e4       	ldi	r20, 0x41	; 65
    2bea:	50 e0       	ldi	r21, 0x00	; 0
    2bec:	66 ea       	ldi	r22, 0xA6	; 166
    2bee:	70 e0       	ldi	r23, 0x00	; 0
    2bf0:	ce 01       	movw	r24, r28
    2bf2:	0e 94 45 14 	call	0x288a	; 0x288a <_ZN4Font5printEiim>

      print(70, 95, "2");
    2bf6:	21 e0       	ldi	r18, 0x01	; 1
    2bf8:	31 e0       	ldi	r19, 0x01	; 1
    2bfa:	4f e5       	ldi	r20, 0x5F	; 95
    2bfc:	50 e0       	ldi	r21, 0x00	; 0
    2bfe:	66 e4       	ldi	r22, 0x46	; 70
    2c00:	70 e0       	ldi	r23, 0x00	; 0
    2c02:	ce 01       	movw	r24, r28
    2c04:	0e 94 1f 14 	call	0x283e	; 0x283e <_ZN4Font5printEiiPKc>
      printLetter(102, 95, secondName1st);
    2c08:	2a 8d       	ldd	r18, Y+26	; 0x1a
    2c0a:	4f e5       	ldi	r20, 0x5F	; 95
    2c0c:	50 e0       	ldi	r21, 0x00	; 0
    2c0e:	66 e6       	ldi	r22, 0x66	; 102
    2c10:	70 e0       	ldi	r23, 0x00	; 0
    2c12:	ce 01       	movw	r24, r28
    2c14:	0e 94 a6 13 	call	0x274c	; 0x274c <_ZN4Font11printLetterEiih>
      printLetter(118, 95, secondName2nd);
    2c18:	2b 8d       	ldd	r18, Y+27	; 0x1b
    2c1a:	4f e5       	ldi	r20, 0x5F	; 95
    2c1c:	50 e0       	ldi	r21, 0x00	; 0
    2c1e:	66 e7       	ldi	r22, 0x76	; 118
    2c20:	70 e0       	ldi	r23, 0x00	; 0
    2c22:	ce 01       	movw	r24, r28
    2c24:	0e 94 a6 13 	call	0x274c	; 0x274c <_ZN4Font11printLetterEiih>
      printLetter(134, 95, secondName3rd);
    2c28:	2c 8d       	ldd	r18, Y+28	; 0x1c
    2c2a:	4f e5       	ldi	r20, 0x5F	; 95
    2c2c:	50 e0       	ldi	r21, 0x00	; 0
    2c2e:	66 e8       	ldi	r22, 0x86	; 134
    2c30:	70 e0       	ldi	r23, 0x00	; 0
    2c32:	ce 01       	movw	r24, r28
    2c34:	0e 94 a6 13 	call	0x274c	; 0x274c <_ZN4Font11printLetterEiih>
      print(166, 95, secondScore);
    2c38:	0e 8d       	ldd	r16, Y+30	; 0x1e
    2c3a:	1f 8d       	ldd	r17, Y+31	; 0x1f
    2c3c:	20 e0       	ldi	r18, 0x00	; 0
    2c3e:	30 e0       	ldi	r19, 0x00	; 0
    2c40:	4f e5       	ldi	r20, 0x5F	; 95
    2c42:	50 e0       	ldi	r21, 0x00	; 0
    2c44:	66 ea       	ldi	r22, 0xA6	; 166
    2c46:	70 e0       	ldi	r23, 0x00	; 0
    2c48:	ce 01       	movw	r24, r28
    2c4a:	0e 94 45 14 	call	0x288a	; 0x288a <_ZN4Font5printEiim>

      print(70, 125, "3");
    2c4e:	23 e0       	ldi	r18, 0x03	; 3
    2c50:	31 e0       	ldi	r19, 0x01	; 1
    2c52:	4d e7       	ldi	r20, 0x7D	; 125
    2c54:	50 e0       	ldi	r21, 0x00	; 0
    2c56:	66 e4       	ldi	r22, 0x46	; 70
    2c58:	70 e0       	ldi	r23, 0x00	; 0
    2c5a:	ce 01       	movw	r24, r28
    2c5c:	0e 94 1f 14 	call	0x283e	; 0x283e <_ZN4Font5printEiiPKc>
      printLetter(102, 125, thirdName1st);
    2c60:	28 a1       	ldd	r18, Y+32	; 0x20
    2c62:	4d e7       	ldi	r20, 0x7D	; 125
    2c64:	50 e0       	ldi	r21, 0x00	; 0
    2c66:	66 e6       	ldi	r22, 0x66	; 102
    2c68:	70 e0       	ldi	r23, 0x00	; 0
    2c6a:	ce 01       	movw	r24, r28
    2c6c:	0e 94 a6 13 	call	0x274c	; 0x274c <_ZN4Font11printLetterEiih>
      printLetter(118, 125, thirdName2nd);
    2c70:	29 a1       	ldd	r18, Y+33	; 0x21
    2c72:	4d e7       	ldi	r20, 0x7D	; 125
    2c74:	50 e0       	ldi	r21, 0x00	; 0
    2c76:	66 e7       	ldi	r22, 0x76	; 118
    2c78:	70 e0       	ldi	r23, 0x00	; 0
    2c7a:	ce 01       	movw	r24, r28
    2c7c:	0e 94 a6 13 	call	0x274c	; 0x274c <_ZN4Font11printLetterEiih>
      printLetter(134, 125, thirdName3rd);
    2c80:	2a a1       	ldd	r18, Y+34	; 0x22
    2c82:	4d e7       	ldi	r20, 0x7D	; 125
    2c84:	50 e0       	ldi	r21, 0x00	; 0
    2c86:	66 e8       	ldi	r22, 0x86	; 134
    2c88:	70 e0       	ldi	r23, 0x00	; 0
    2c8a:	ce 01       	movw	r24, r28
    2c8c:	0e 94 a6 13 	call	0x274c	; 0x274c <_ZN4Font11printLetterEiih>
      print(166, 125, thirdScore);
    2c90:	0c a1       	ldd	r16, Y+36	; 0x24
    2c92:	1d a1       	ldd	r17, Y+37	; 0x25
    2c94:	20 e0       	ldi	r18, 0x00	; 0
    2c96:	30 e0       	ldi	r19, 0x00	; 0
    2c98:	4d e7       	ldi	r20, 0x7D	; 125
    2c9a:	50 e0       	ldi	r21, 0x00	; 0
    2c9c:	66 ea       	ldi	r22, 0xA6	; 166
    2c9e:	70 e0       	ldi	r23, 0x00	; 0
    2ca0:	ce 01       	movw	r24, r28
    2ca2:	0e 94 45 14 	call	0x288a	; 0x288a <_ZN4Font5printEiim>

      print(70, 155, "4");
    2ca6:	25 e0       	ldi	r18, 0x05	; 5
    2ca8:	31 e0       	ldi	r19, 0x01	; 1
    2caa:	4b e9       	ldi	r20, 0x9B	; 155
    2cac:	50 e0       	ldi	r21, 0x00	; 0
    2cae:	66 e4       	ldi	r22, 0x46	; 70
    2cb0:	70 e0       	ldi	r23, 0x00	; 0
    2cb2:	ce 01       	movw	r24, r28
    2cb4:	0e 94 1f 14 	call	0x283e	; 0x283e <_ZN4Font5printEiiPKc>
      printLetter(102, 155, fourthName1st);
    2cb8:	2e a1       	ldd	r18, Y+38	; 0x26
    2cba:	4b e9       	ldi	r20, 0x9B	; 155
    2cbc:	50 e0       	ldi	r21, 0x00	; 0
    2cbe:	66 e6       	ldi	r22, 0x66	; 102
    2cc0:	70 e0       	ldi	r23, 0x00	; 0
    2cc2:	ce 01       	movw	r24, r28
    2cc4:	0e 94 a6 13 	call	0x274c	; 0x274c <_ZN4Font11printLetterEiih>
      printLetter(118, 155, fourthName2nd);
    2cc8:	2f a1       	ldd	r18, Y+39	; 0x27
    2cca:	4b e9       	ldi	r20, 0x9B	; 155
    2ccc:	50 e0       	ldi	r21, 0x00	; 0
    2cce:	66 e7       	ldi	r22, 0x76	; 118
    2cd0:	70 e0       	ldi	r23, 0x00	; 0
    2cd2:	ce 01       	movw	r24, r28
    2cd4:	0e 94 a6 13 	call	0x274c	; 0x274c <_ZN4Font11printLetterEiih>
      printLetter(134, 155, fourthName3rd);
    2cd8:	28 a5       	ldd	r18, Y+40	; 0x28
    2cda:	4b e9       	ldi	r20, 0x9B	; 155
    2cdc:	50 e0       	ldi	r21, 0x00	; 0
    2cde:	66 e8       	ldi	r22, 0x86	; 134
    2ce0:	70 e0       	ldi	r23, 0x00	; 0
    2ce2:	ce 01       	movw	r24, r28
    2ce4:	0e 94 a6 13 	call	0x274c	; 0x274c <_ZN4Font11printLetterEiih>
      print(166, 155, fourthScore);
    2ce8:	0a a5       	ldd	r16, Y+42	; 0x2a
    2cea:	1b a5       	ldd	r17, Y+43	; 0x2b
    2cec:	20 e0       	ldi	r18, 0x00	; 0
    2cee:	30 e0       	ldi	r19, 0x00	; 0
    2cf0:	4b e9       	ldi	r20, 0x9B	; 155
    2cf2:	50 e0       	ldi	r21, 0x00	; 0
    2cf4:	66 ea       	ldi	r22, 0xA6	; 166
    2cf6:	70 e0       	ldi	r23, 0x00	; 0
    2cf8:	ce 01       	movw	r24, r28
    2cfa:	0e 94 45 14 	call	0x288a	; 0x288a <_ZN4Font5printEiim>

      print(70, 185, "5");
    2cfe:	27 e0       	ldi	r18, 0x07	; 7
    2d00:	31 e0       	ldi	r19, 0x01	; 1
    2d02:	49 eb       	ldi	r20, 0xB9	; 185
    2d04:	50 e0       	ldi	r21, 0x00	; 0
    2d06:	66 e4       	ldi	r22, 0x46	; 70
    2d08:	70 e0       	ldi	r23, 0x00	; 0
    2d0a:	ce 01       	movw	r24, r28
    2d0c:	0e 94 1f 14 	call	0x283e	; 0x283e <_ZN4Font5printEiiPKc>
      printLetter(102, 185, fifthName1st);
    2d10:	2c a5       	ldd	r18, Y+44	; 0x2c
    2d12:	49 eb       	ldi	r20, 0xB9	; 185
    2d14:	50 e0       	ldi	r21, 0x00	; 0
    2d16:	66 e6       	ldi	r22, 0x66	; 102
    2d18:	70 e0       	ldi	r23, 0x00	; 0
    2d1a:	ce 01       	movw	r24, r28
    2d1c:	0e 94 a6 13 	call	0x274c	; 0x274c <_ZN4Font11printLetterEiih>
      printLetter(118, 185, fifthName2nd);
    2d20:	2d a5       	ldd	r18, Y+45	; 0x2d
    2d22:	49 eb       	ldi	r20, 0xB9	; 185
    2d24:	50 e0       	ldi	r21, 0x00	; 0
    2d26:	66 e7       	ldi	r22, 0x76	; 118
    2d28:	70 e0       	ldi	r23, 0x00	; 0
    2d2a:	ce 01       	movw	r24, r28
    2d2c:	0e 94 a6 13 	call	0x274c	; 0x274c <_ZN4Font11printLetterEiih>
      printLetter(134, 185, fifthName3rd);
    2d30:	2e a5       	ldd	r18, Y+46	; 0x2e
    2d32:	49 eb       	ldi	r20, 0xB9	; 185
    2d34:	50 e0       	ldi	r21, 0x00	; 0
    2d36:	66 e8       	ldi	r22, 0x86	; 134
    2d38:	70 e0       	ldi	r23, 0x00	; 0
    2d3a:	ce 01       	movw	r24, r28
    2d3c:	0e 94 a6 13 	call	0x274c	; 0x274c <_ZN4Font11printLetterEiih>
      print(166, 185, fifthScore);
    2d40:	08 a9       	ldd	r16, Y+48	; 0x30
    2d42:	19 a9       	ldd	r17, Y+49	; 0x31
    2d44:	20 e0       	ldi	r18, 0x00	; 0
    2d46:	30 e0       	ldi	r19, 0x00	; 0
    2d48:	49 eb       	ldi	r20, 0xB9	; 185
    2d4a:	50 e0       	ldi	r21, 0x00	; 0
    2d4c:	66 ea       	ldi	r22, 0xA6	; 166
    2d4e:	70 e0       	ldi	r23, 0x00	; 0
    2d50:	ce 01       	movw	r24, r28
    2d52:	0e 94 45 14 	call	0x288a	; 0x288a <_ZN4Font5printEiim>
	#else
		//round up by default
		__ticks_dc = (uint32_t)(ceil(fabs(__tmp)));
	#endif

	__builtin_avr_delay_cycles(__ticks_dc);
    2d56:	2f ef       	ldi	r18, 0xFF	; 255
    2d58:	81 ee       	ldi	r24, 0xE1	; 225
    2d5a:	94 e0       	ldi	r25, 0x04	; 4
    2d5c:	21 50       	subi	r18, 0x01	; 1
    2d5e:	80 40       	sbci	r24, 0x00	; 0
    2d60:	90 40       	sbci	r25, 0x00	; 0
    2d62:	e1 f7       	brne	.-8      	; 0x2d5c <_ZN4Game9titleLoopEv+0x22a>
    2d64:	00 c0       	rjmp	.+0      	; 0x2d66 <_ZN4Game9titleLoopEv+0x234>
    2d66:	00 00       	nop

      _delay_ms(100);

      if (SW::interrupt0 == ON)
    2d68:	80 91 42 02 	lds	r24, 0x0242	; 0x800242 <_ZN2SW10interrupt0E>
    2d6c:	88 23       	and	r24, r24
    2d6e:	09 f4       	brne	.+2      	; 0x2d72 <_ZN4Game9titleLoopEv+0x240>
    2d70:	04 cf       	rjmp	.-504    	; 0x2b7a <_ZN4Game9titleLoopEv+0x48>
    2d72:	1f 82       	std	Y+7, r1	; 0x07
    2d74:	1e 82       	std	Y+6, r1	; 0x06
    2d76:	8f ef       	ldi	r24, 0xFF	; 255
    2d78:	9f ef       	ldi	r25, 0xFF	; 255
    2d7a:	99 87       	std	Y+9, r25	; 0x09
    2d7c:	88 87       	std	Y+8, r24	; 0x08
      {
        setColor(BLACK, WHITE);
        draw(0, 16, 320, 224, titleMenu, BLACK, MAROON, RED, WHITE);
    2d7e:	2f ef       	ldi	r18, 0xFF	; 255
    2d80:	2f 93       	push	r18
    2d82:	2f 93       	push	r18
    2d84:	0f 2e       	mov	r0, r31
    2d86:	81 2c       	mov	r8, r1
    2d88:	f8 ef       	ldi	r31, 0xF8	; 248
    2d8a:	9f 2e       	mov	r9, r31
    2d8c:	f0 2d       	mov	r31, r0
    2d8e:	0f 2e       	mov	r0, r31
    2d90:	a1 2c       	mov	r10, r1
    2d92:	f8 e7       	ldi	r31, 0x78	; 120
    2d94:	bf 2e       	mov	r11, r31
    2d96:	f0 2d       	mov	r31, r0
    2d98:	c1 2c       	mov	r12, r1
    2d9a:	d1 2c       	mov	r13, r1
    2d9c:	0f 2e       	mov	r0, r31
    2d9e:	f9 ef       	ldi	r31, 0xF9	; 249
    2da0:	ef 2e       	mov	r14, r31
    2da2:	f2 e0       	ldi	r31, 0x02	; 2
    2da4:	ff 2e       	mov	r15, r31
    2da6:	f0 2d       	mov	r31, r0
    2da8:	00 ee       	ldi	r16, 0xE0	; 224
    2daa:	10 e0       	ldi	r17, 0x00	; 0
    2dac:	20 e4       	ldi	r18, 0x40	; 64
    2dae:	31 e0       	ldi	r19, 0x01	; 1
    2db0:	40 e1       	ldi	r20, 0x10	; 16
    2db2:	50 e0       	ldi	r21, 0x00	; 0
    2db4:	60 e0       	ldi	r22, 0x00	; 0
    2db6:	70 e0       	ldi	r23, 0x00	; 0
    2db8:	ce 01       	movw	r24, r28
    2dba:	0e 94 4a 29 	call	0x5294	; 0x5294 <_ZN3TFT4drawEiiiiPKhjjjj>
        SW::init();
    2dbe:	0e 94 3c 27 	call	0x4e78	; 0x4e78 <_ZN2SW4initEv>
        m_IsScore = false;
    2dc2:	1e 86       	std	Y+14, r1	; 0x0e
    2dc4:	0f 90       	pop	r0
    2dc6:	0f 90       	pop	r0
    2dc8:	d8 ce       	rjmp	.-592    	; 0x2b7a <_ZN4Game9titleLoopEv+0x48>
      }
    }

    else if (m_IsScore == false && m_IsCredit == true)
    2dca:	8f 85       	ldd	r24, Y+15	; 0x0f
    2dcc:	88 23       	and	r24, r24
    2dce:	09 f4       	brne	.+2      	; 0x2dd2 <_ZN4Game9titleLoopEv+0x2a0>
    2dd0:	25 c1       	rjmp	.+586    	; 0x301c <_ZN4Game9titleLoopEv+0x4ea>
    {
      if (SW::select == OFF)
    2dd2:	80 91 3b 02 	lds	r24, 0x023B	; 0x80023b <_ZN2SW6selectE>
    2dd6:	81 11       	cpse	r24, r1
    2dd8:	a8 c0       	rjmp	.+336    	; 0x2f2a <_ZN4Game9titleLoopEv+0x3f8>
    2dda:	1f 82       	std	Y+7, r1	; 0x07
    2ddc:	1e 82       	std	Y+6, r1	; 0x06
    2dde:	79 86       	std	Y+9, r7	; 0x09
    2de0:	68 86       	std	Y+8, r6	; 0x08
      {
        setColor(BLACK, YELLOW);
        print(30, 16, "Game Designed &");
    2de2:	29 e0       	ldi	r18, 0x09	; 9
    2de4:	31 e0       	ldi	r19, 0x01	; 1
    2de6:	40 e1       	ldi	r20, 0x10	; 16
    2de8:	50 e0       	ldi	r21, 0x00	; 0
    2dea:	6e e1       	ldi	r22, 0x1E	; 30
    2dec:	70 e0       	ldi	r23, 0x00	; 0
    2dee:	ce 01       	movw	r24, r28
    2df0:	0e 94 1f 14 	call	0x283e	; 0x283e <_ZN4Font5printEiiPKc>
        print(16, 36, "Programmed By");
    2df4:	29 e1       	ldi	r18, 0x19	; 25
    2df6:	31 e0       	ldi	r19, 0x01	; 1
    2df8:	44 e2       	ldi	r20, 0x24	; 36
    2dfa:	50 e0       	ldi	r21, 0x00	; 0
    2dfc:	60 e1       	ldi	r22, 0x10	; 16
    2dfe:	70 e0       	ldi	r23, 0x00	; 0
    2e00:	ce 01       	movw	r24, r28
    2e02:	0e 94 1f 14 	call	0x283e	; 0x283e <_ZN4Font5printEiiPKc>
    2e06:	1f 82       	std	Y+7, r1	; 0x07
    2e08:	1e 82       	std	Y+6, r1	; 0x06
    2e0a:	0f ef       	ldi	r16, 0xFF	; 255
    2e0c:	1f ef       	ldi	r17, 0xFF	; 255
    2e0e:	19 87       	std	Y+9, r17	; 0x09
    2e10:	08 87       	std	Y+8, r16	; 0x08

        setColor(BLACK, WHITE);
        print(240, 36, "CLJ");
    2e12:	27 e2       	ldi	r18, 0x27	; 39
    2e14:	31 e0       	ldi	r19, 0x01	; 1
    2e16:	44 e2       	ldi	r20, 0x24	; 36
    2e18:	50 e0       	ldi	r21, 0x00	; 0
    2e1a:	60 ef       	ldi	r22, 0xF0	; 240
    2e1c:	70 e0       	ldi	r23, 0x00	; 0
    2e1e:	ce 01       	movw	r24, r28
    2e20:	0e 94 1f 14 	call	0x283e	; 0x283e <_ZN4Font5printEiiPKc>
    2e24:	1f 82       	std	Y+7, r1	; 0x07
    2e26:	1e 82       	std	Y+6, r1	; 0x06
    2e28:	59 86       	std	Y+9, r5	; 0x09
    2e2a:	48 86       	std	Y+8, r4	; 0x08

        setColor(BLACK, GRAY);
        print(30, 56, "Github:");
    2e2c:	2b e2       	ldi	r18, 0x2B	; 43
    2e2e:	31 e0       	ldi	r19, 0x01	; 1
    2e30:	48 e3       	ldi	r20, 0x38	; 56
    2e32:	50 e0       	ldi	r21, 0x00	; 0
    2e34:	6e e1       	ldi	r22, 0x1E	; 30
    2e36:	70 e0       	ldi	r23, 0x00	; 0
    2e38:	ce 01       	movw	r24, r28
    2e3a:	0e 94 1f 14 	call	0x283e	; 0x283e <_ZN4Font5printEiiPKc>
    2e3e:	1f 82       	std	Y+7, r1	; 0x07
    2e40:	1e 82       	std	Y+6, r1	; 0x06
    2e42:	19 87       	std	Y+9, r17	; 0x09
    2e44:	08 87       	std	Y+8, r16	; 0x08

        setColor(BLACK, WHITE);
        print(158, 56, "vine91");
    2e46:	23 e3       	ldi	r18, 0x33	; 51
    2e48:	31 e0       	ldi	r19, 0x01	; 1
    2e4a:	48 e3       	ldi	r20, 0x38	; 56
    2e4c:	50 e0       	ldi	r21, 0x00	; 0
    2e4e:	6e e9       	ldi	r22, 0x9E	; 158
    2e50:	70 e0       	ldi	r23, 0x00	; 0
    2e52:	ce 01       	movw	r24, r28
    2e54:	0e 94 1f 14 	call	0x283e	; 0x283e <_ZN4Font5printEiiPKc>
    2e58:	1f 82       	std	Y+7, r1	; 0x07
    2e5a:	1e 82       	std	Y+6, r1	; 0x06
    2e5c:	80 e0       	ldi	r24, 0x00	; 0
    2e5e:	98 ef       	ldi	r25, 0xF8	; 248
    2e60:	99 87       	std	Y+9, r25	; 0x09
    2e62:	88 87       	std	Y+8, r24	; 0x08

        setColor(BLACK, RED);
        print(40, 88, "Special Thanks");
    2e64:	2a e3       	ldi	r18, 0x3A	; 58
    2e66:	31 e0       	ldi	r19, 0x01	; 1
    2e68:	48 e5       	ldi	r20, 0x58	; 88
    2e6a:	50 e0       	ldi	r21, 0x00	; 0
    2e6c:	68 e2       	ldi	r22, 0x28	; 40
    2e6e:	70 e0       	ldi	r23, 0x00	; 0
    2e70:	ce 01       	movw	r24, r28
    2e72:	0e 94 1f 14 	call	0x283e	; 0x283e <_ZN4Font5printEiiPKc>
    2e76:	1f 82       	std	Y+7, r1	; 0x07
    2e78:	1e 82       	std	Y+6, r1	; 0x06
    2e7a:	19 87       	std	Y+9, r17	; 0x09
    2e7c:	08 87       	std	Y+8, r16	; 0x08

        setColor(BLACK, WHITE);
        print(0, 110, "The");
    2e7e:	29 e4       	ldi	r18, 0x49	; 73
    2e80:	31 e0       	ldi	r19, 0x01	; 1
    2e82:	4e e6       	ldi	r20, 0x6E	; 110
    2e84:	50 e0       	ldi	r21, 0x00	; 0
    2e86:	60 e0       	ldi	r22, 0x00	; 0
    2e88:	70 e0       	ldi	r23, 0x00	; 0
    2e8a:	ce 01       	movw	r24, r28
    2e8c:	0e 94 1f 14 	call	0x283e	; 0x283e <_ZN4Font5printEiiPKc>
        print(58, 110, "1st");
    2e90:	2d e4       	ldi	r18, 0x4D	; 77
    2e92:	31 e0       	ldi	r19, 0x01	; 1
    2e94:	4e e6       	ldi	r20, 0x6E	; 110
    2e96:	50 e0       	ldi	r21, 0x00	; 0
    2e98:	6a e3       	ldi	r22, 0x3A	; 58
    2e9a:	70 e0       	ldi	r23, 0x00	; 0
    2e9c:	ce 01       	movw	r24, r28
    2e9e:	0e 94 1f 14 	call	0x283e	; 0x283e <_ZN4Font5printEiiPKc>
        print(116, 110, "Generation");
    2ea2:	21 e5       	ldi	r18, 0x51	; 81
    2ea4:	31 e0       	ldi	r19, 0x01	; 1
    2ea6:	4e e6       	ldi	r20, 0x6E	; 110
    2ea8:	50 e0       	ldi	r21, 0x00	; 0
    2eaa:	64 e7       	ldi	r22, 0x74	; 116
    2eac:	70 e0       	ldi	r23, 0x00	; 0
    2eae:	ce 01       	movw	r24, r28
    2eb0:	0e 94 1f 14 	call	0x283e	; 0x283e <_ZN4Font5printEiiPKc>
        print(286, 110, "Of");
    2eb4:	2c e5       	ldi	r18, 0x5C	; 92
    2eb6:	31 e0       	ldi	r19, 0x01	; 1
    2eb8:	4e e6       	ldi	r20, 0x6E	; 110
    2eba:	50 e0       	ldi	r21, 0x00	; 0
    2ebc:	6e e1       	ldi	r22, 0x1E	; 30
    2ebe:	71 e0       	ldi	r23, 0x01	; 1
    2ec0:	ce 01       	movw	r24, r28
    2ec2:	0e 94 1f 14 	call	0x283e	; 0x283e <_ZN4Font5printEiiPKc>
        print(8, 130, "Medical Engineering");
    2ec6:	2f e5       	ldi	r18, 0x5F	; 95
    2ec8:	31 e0       	ldi	r19, 0x01	; 1
    2eca:	42 e8       	ldi	r20, 0x82	; 130
    2ecc:	50 e0       	ldi	r21, 0x00	; 0
    2ece:	68 e0       	ldi	r22, 0x08	; 8
    2ed0:	70 e0       	ldi	r23, 0x00	; 0
    2ed2:	ce 01       	movw	r24, r28
    2ed4:	0e 94 1f 14 	call	0x283e	; 0x283e <_ZN4Font5printEiiPKc>
        print(60, 150, "Students And");
    2ed8:	23 e7       	ldi	r18, 0x73	; 115
    2eda:	31 e0       	ldi	r19, 0x01	; 1
    2edc:	46 e9       	ldi	r20, 0x96	; 150
    2ede:	50 e0       	ldi	r21, 0x00	; 0
    2ee0:	6c e3       	ldi	r22, 0x3C	; 60
    2ee2:	70 e0       	ldi	r23, 0x00	; 0
    2ee4:	ce 01       	movw	r24, r28
    2ee6:	0e 94 1f 14 	call	0x283e	; 0x283e <_ZN4Font5printEiiPKc>
        print(50, 170, "Professors in");
    2eea:	20 e8       	ldi	r18, 0x80	; 128
    2eec:	31 e0       	ldi	r19, 0x01	; 1
    2eee:	4a ea       	ldi	r20, 0xAA	; 170
    2ef0:	50 e0       	ldi	r21, 0x00	; 0
    2ef2:	62 e3       	ldi	r22, 0x32	; 50
    2ef4:	70 e0       	ldi	r23, 0x00	; 0
    2ef6:	ce 01       	movw	r24, r28
    2ef8:	0e 94 1f 14 	call	0x283e	; 0x283e <_ZN4Font5printEiiPKc>
    2efc:	1f 82       	std	Y+7, r1	; 0x07
    2efe:	1e 82       	std	Y+6, r1	; 0x06
    2f00:	39 86       	std	Y+9, r3	; 0x09
    2f02:	28 86       	std	Y+8, r2	; 0x08

        setColor(BLACK, BLUE);
        print(5, 202, "Korea");
    2f04:	2e e8       	ldi	r18, 0x8E	; 142
    2f06:	31 e0       	ldi	r19, 0x01	; 1
    2f08:	4a ec       	ldi	r20, 0xCA	; 202
    2f0a:	50 e0       	ldi	r21, 0x00	; 0
    2f0c:	65 e0       	ldi	r22, 0x05	; 5
    2f0e:	70 e0       	ldi	r23, 0x00	; 0
    2f10:	ce 01       	movw	r24, r28
    2f12:	0e 94 1f 14 	call	0x283e	; 0x283e <_ZN4Font5printEiiPKc>
        print(95, 202, "Polytechnics..");
    2f16:	24 e9       	ldi	r18, 0x94	; 148
    2f18:	31 e0       	ldi	r19, 0x01	; 1
    2f1a:	4a ec       	ldi	r20, 0xCA	; 202
    2f1c:	50 e0       	ldi	r21, 0x00	; 0
    2f1e:	6f e5       	ldi	r22, 0x5F	; 95
    2f20:	70 e0       	ldi	r23, 0x00	; 0
    2f22:	ce 01       	movw	r24, r28
    2f24:	0e 94 1f 14 	call	0x283e	; 0x283e <_ZN4Font5printEiiPKc>
    2f28:	40 c0       	rjmp	.+128    	; 0x2faa <_ZN4Game9titleLoopEv+0x478>
      }
      
      else
      {
        clear(0, 110, 320, 20, BLACK);
    2f2a:	e1 2c       	mov	r14, r1
    2f2c:	f1 2c       	mov	r15, r1
    2f2e:	04 e1       	ldi	r16, 0x14	; 20
    2f30:	10 e0       	ldi	r17, 0x00	; 0
    2f32:	20 e4       	ldi	r18, 0x40	; 64
    2f34:	31 e0       	ldi	r19, 0x01	; 1
    2f36:	4e e6       	ldi	r20, 0x6E	; 110
    2f38:	50 e0       	ldi	r21, 0x00	; 0
    2f3a:	60 e0       	ldi	r22, 0x00	; 0
    2f3c:	70 e0       	ldi	r23, 0x00	; 0
    2f3e:	ce 01       	movw	r24, r28
    2f40:	0e 94 67 28 	call	0x50ce	; 0x50ce <_ZN3TFT5clearEiiiij>
        clear(0, 130, 24, 20, BLACK);
    2f44:	28 e1       	ldi	r18, 0x18	; 24
    2f46:	30 e0       	ldi	r19, 0x00	; 0
    2f48:	42 e8       	ldi	r20, 0x82	; 130
    2f4a:	50 e0       	ldi	r21, 0x00	; 0
    2f4c:	60 e0       	ldi	r22, 0x00	; 0
    2f4e:	70 e0       	ldi	r23, 0x00	; 0
    2f50:	ce 01       	movw	r24, r28
    2f52:	0e 94 67 28 	call	0x50ce	; 0x50ce <_ZN3TFT5clearEiiiij>
        clear(296, 130, 24, 20, BLACK);
    2f56:	28 e1       	ldi	r18, 0x18	; 24
    2f58:	30 e0       	ldi	r19, 0x00	; 0
    2f5a:	42 e8       	ldi	r20, 0x82	; 130
    2f5c:	50 e0       	ldi	r21, 0x00	; 0
    2f5e:	68 e2       	ldi	r22, 0x28	; 40
    2f60:	71 e0       	ldi	r23, 0x01	; 1
    2f62:	ce 01       	movw	r24, r28
    2f64:	0e 94 67 28 	call	0x50ce	; 0x50ce <_ZN3TFT5clearEiiiij>
        clear(0, 190, 320, 30, BLACK);
    2f68:	0e e1       	ldi	r16, 0x1E	; 30
    2f6a:	10 e0       	ldi	r17, 0x00	; 0
    2f6c:	20 e4       	ldi	r18, 0x40	; 64
    2f6e:	31 e0       	ldi	r19, 0x01	; 1
    2f70:	4e eb       	ldi	r20, 0xBE	; 190
    2f72:	50 e0       	ldi	r21, 0x00	; 0
    2f74:	60 e0       	ldi	r22, 0x00	; 0
    2f76:	70 e0       	ldi	r23, 0x00	; 0
    2f78:	ce 01       	movw	r24, r28
    2f7a:	0e 94 67 28 	call	0x50ce	; 0x50ce <_ZN3TFT5clearEiiiij>

        draw(24, 130, 272, 60, creditMenu, BLACK, WHITE);
    2f7e:	aa 24       	eor	r10, r10
    2f80:	aa 94       	dec	r10
    2f82:	ba 2c       	mov	r11, r10
    2f84:	c1 2c       	mov	r12, r1
    2f86:	d1 2c       	mov	r13, r1
    2f88:	0f 2e       	mov	r0, r31
    2f8a:	fb ef       	ldi	r31, 0xFB	; 251
    2f8c:	ef 2e       	mov	r14, r31
    2f8e:	f0 e0       	ldi	r31, 0x00	; 0
    2f90:	ff 2e       	mov	r15, r31
    2f92:	f0 2d       	mov	r31, r0
    2f94:	0c e3       	ldi	r16, 0x3C	; 60
    2f96:	10 e0       	ldi	r17, 0x00	; 0
    2f98:	20 e1       	ldi	r18, 0x10	; 16
    2f9a:	31 e0       	ldi	r19, 0x01	; 1
    2f9c:	42 e8       	ldi	r20, 0x82	; 130
    2f9e:	50 e0       	ldi	r21, 0x00	; 0
    2fa0:	68 e1       	ldi	r22, 0x18	; 24
    2fa2:	70 e0       	ldi	r23, 0x00	; 0
    2fa4:	ce 01       	movw	r24, r28
    2fa6:	0e 94 a0 28 	call	0x5140	; 0x5140 <_ZN3TFT4drawEiiiiPKhjj>
    2faa:	8f ef       	ldi	r24, 0xFF	; 255
    2fac:	91 ee       	ldi	r25, 0xE1	; 225
    2fae:	24 e0       	ldi	r18, 0x04	; 4
    2fb0:	81 50       	subi	r24, 0x01	; 1
    2fb2:	90 40       	sbci	r25, 0x00	; 0
    2fb4:	20 40       	sbci	r18, 0x00	; 0
    2fb6:	e1 f7       	brne	.-8      	; 0x2fb0 <_ZN4Game9titleLoopEv+0x47e>
    2fb8:	00 c0       	rjmp	.+0      	; 0x2fba <_ZN4Game9titleLoopEv+0x488>
    2fba:	00 00       	nop
      }

      _delay_ms(100);

      if (SW::interrupt0 == ON)
    2fbc:	80 91 42 02 	lds	r24, 0x0242	; 0x800242 <_ZN2SW10interrupt0E>
    2fc0:	88 23       	and	r24, r24
    2fc2:	09 f4       	brne	.+2      	; 0x2fc6 <_ZN4Game9titleLoopEv+0x494>
    2fc4:	da cd       	rjmp	.-1100   	; 0x2b7a <_ZN4Game9titleLoopEv+0x48>
    2fc6:	1f 82       	std	Y+7, r1	; 0x07
    2fc8:	1e 82       	std	Y+6, r1	; 0x06
    2fca:	8f ef       	ldi	r24, 0xFF	; 255
    2fcc:	9f ef       	ldi	r25, 0xFF	; 255
    2fce:	99 87       	std	Y+9, r25	; 0x09
    2fd0:	88 87       	std	Y+8, r24	; 0x08
      {
        setColor(BLACK, WHITE);
        draw(0, 16, 320, 224, titleMenu, BLACK, MAROON, RED, WHITE);
    2fd2:	8f 93       	push	r24
    2fd4:	8f 93       	push	r24
    2fd6:	0f 2e       	mov	r0, r31
    2fd8:	81 2c       	mov	r8, r1
    2fda:	f8 ef       	ldi	r31, 0xF8	; 248
    2fdc:	9f 2e       	mov	r9, r31
    2fde:	f0 2d       	mov	r31, r0
    2fe0:	0f 2e       	mov	r0, r31
    2fe2:	a1 2c       	mov	r10, r1
    2fe4:	f8 e7       	ldi	r31, 0x78	; 120
    2fe6:	bf 2e       	mov	r11, r31
    2fe8:	f0 2d       	mov	r31, r0
    2fea:	c1 2c       	mov	r12, r1
    2fec:	d1 2c       	mov	r13, r1
    2fee:	0f 2e       	mov	r0, r31
    2ff0:	f9 ef       	ldi	r31, 0xF9	; 249
    2ff2:	ef 2e       	mov	r14, r31
    2ff4:	f2 e0       	ldi	r31, 0x02	; 2
    2ff6:	ff 2e       	mov	r15, r31
    2ff8:	f0 2d       	mov	r31, r0
    2ffa:	00 ee       	ldi	r16, 0xE0	; 224
    2ffc:	10 e0       	ldi	r17, 0x00	; 0
    2ffe:	20 e4       	ldi	r18, 0x40	; 64
    3000:	31 e0       	ldi	r19, 0x01	; 1
    3002:	40 e1       	ldi	r20, 0x10	; 16
    3004:	50 e0       	ldi	r21, 0x00	; 0
    3006:	60 e0       	ldi	r22, 0x00	; 0
    3008:	70 e0       	ldi	r23, 0x00	; 0
    300a:	ce 01       	movw	r24, r28
    300c:	0e 94 4a 29 	call	0x5294	; 0x5294 <_ZN3TFT4drawEiiiiPKhjjjj>
        SW::init();
    3010:	0e 94 3c 27 	call	0x4e78	; 0x4e78 <_ZN2SW4initEv>
        m_IsCredit = false;
    3014:	1f 86       	std	Y+15, r1	; 0x0f
    3016:	0f 90       	pop	r0
    3018:	0f 90       	pop	r0
    301a:	af cd       	rjmp	.-1186   	; 0x2b7a <_ZN4Game9titleLoopEv+0x48>
      }
    }

    else if (m_IsScore == false && m_IsCredit == false)
    {
      if (SW::up == ON)
    301c:	80 91 40 02 	lds	r24, 0x0240	; 0x800240 <_ZN2SW2upE>
    3020:	88 23       	and	r24, r24
    3022:	09 f4       	brne	.+2      	; 0x3026 <_ZN4Game9titleLoopEv+0x4f4>
    3024:	73 c0       	rjmp	.+230    	; 0x310c <_ZN4Game9titleLoopEv+0x5da>
      {
        m_Cursor -= 1;
    3026:	8a 85       	ldd	r24, Y+10	; 0x0a
    3028:	81 50       	subi	r24, 0x01	; 1
    302a:	8a 87       	std	Y+10, r24	; 0x0a

        if (m_Cursor < 0)
    302c:	88 23       	and	r24, r24
    302e:	14 f4       	brge	.+4      	; 0x3034 <_ZN4Game9titleLoopEv+0x502>
        {
          m_Cursor = 0;
    3030:	1a 86       	std	Y+10, r1	; 0x0a
    3032:	07 c0       	rjmp	.+14     	; 0x3042 <_ZN4Game9titleLoopEv+0x510>
        }

        switch (m_Cursor)
    3034:	81 30       	cpi	r24, 0x01	; 1
    3036:	f9 f0       	breq	.+62     	; 0x3076 <_ZN4Game9titleLoopEv+0x544>
    3038:	20 f0       	brcs	.+8      	; 0x3042 <_ZN4Game9titleLoopEv+0x510>
    303a:	82 30       	cpi	r24, 0x02	; 2
    303c:	09 f4       	brne	.+2      	; 0x3040 <_ZN4Game9titleLoopEv+0x50e>
    303e:	41 c0       	rjmp	.+130    	; 0x30c2 <_ZN4Game9titleLoopEv+0x590>
    3040:	59 c0       	rjmp	.+178    	; 0x30f4 <_ZN4Game9titleLoopEv+0x5c2>
        {
        case 0:
          clear(2, 160, 6, 14, BLACK);
    3042:	e1 2c       	mov	r14, r1
    3044:	f1 2c       	mov	r15, r1
    3046:	0e e0       	ldi	r16, 0x0E	; 14
    3048:	10 e0       	ldi	r17, 0x00	; 0
    304a:	26 e0       	ldi	r18, 0x06	; 6
    304c:	30 e0       	ldi	r19, 0x00	; 0
    304e:	40 ea       	ldi	r20, 0xA0	; 160
    3050:	50 e0       	ldi	r21, 0x00	; 0
    3052:	62 e0       	ldi	r22, 0x02	; 2
    3054:	70 e0       	ldi	r23, 0x00	; 0
    3056:	ce 01       	movw	r24, r28
    3058:	0e 94 67 28 	call	0x50ce	; 0x50ce <_ZN3TFT5clearEiiiij>
          clear(2, 184, 6, 14, WHITE);
    305c:	ee 24       	eor	r14, r14
    305e:	ea 94       	dec	r14
    3060:	fe 2c       	mov	r15, r14
    3062:	26 e0       	ldi	r18, 0x06	; 6
    3064:	30 e0       	ldi	r19, 0x00	; 0
    3066:	48 eb       	ldi	r20, 0xB8	; 184
    3068:	50 e0       	ldi	r21, 0x00	; 0
    306a:	62 e0       	ldi	r22, 0x02	; 2
    306c:	70 e0       	ldi	r23, 0x00	; 0
    306e:	ce 01       	movw	r24, r28
    3070:	0e 94 67 28 	call	0x50ce	; 0x50ce <_ZN3TFT5clearEiiiij>

          break;
    3074:	3f c0       	rjmp	.+126    	; 0x30f4 <_ZN4Game9titleLoopEv+0x5c2>

        case 1:
          clear(2, 160, 6, 14, WHITE);
    3076:	ee 24       	eor	r14, r14
    3078:	ea 94       	dec	r14
    307a:	fe 2c       	mov	r15, r14
    307c:	0e e0       	ldi	r16, 0x0E	; 14
    307e:	10 e0       	ldi	r17, 0x00	; 0
    3080:	26 e0       	ldi	r18, 0x06	; 6
    3082:	30 e0       	ldi	r19, 0x00	; 0
    3084:	40 ea       	ldi	r20, 0xA0	; 160
    3086:	50 e0       	ldi	r21, 0x00	; 0
    3088:	62 e0       	ldi	r22, 0x02	; 2
    308a:	70 e0       	ldi	r23, 0x00	; 0
    308c:	ce 01       	movw	r24, r28
    308e:	0e 94 67 28 	call	0x50ce	; 0x50ce <_ZN3TFT5clearEiiiij>
          clear(2, 184, 6, 14, BLACK);
    3092:	e1 2c       	mov	r14, r1
    3094:	f1 2c       	mov	r15, r1
    3096:	26 e0       	ldi	r18, 0x06	; 6
    3098:	30 e0       	ldi	r19, 0x00	; 0
    309a:	48 eb       	ldi	r20, 0xB8	; 184
    309c:	50 e0       	ldi	r21, 0x00	; 0
    309e:	62 e0       	ldi	r22, 0x02	; 2
    30a0:	70 e0       	ldi	r23, 0x00	; 0
    30a2:	ce 01       	movw	r24, r28
    30a4:	0e 94 67 28 	call	0x50ce	; 0x50ce <_ZN3TFT5clearEiiiij>
          clear(2, 208, 6, 14, WHITE);
    30a8:	ee 24       	eor	r14, r14
    30aa:	ea 94       	dec	r14
    30ac:	fe 2c       	mov	r15, r14
    30ae:	26 e0       	ldi	r18, 0x06	; 6
    30b0:	30 e0       	ldi	r19, 0x00	; 0
    30b2:	40 ed       	ldi	r20, 0xD0	; 208
    30b4:	50 e0       	ldi	r21, 0x00	; 0
    30b6:	62 e0       	ldi	r22, 0x02	; 2
    30b8:	70 e0       	ldi	r23, 0x00	; 0
    30ba:	ce 01       	movw	r24, r28
    30bc:	0e 94 67 28 	call	0x50ce	; 0x50ce <_ZN3TFT5clearEiiiij>

          break;
    30c0:	19 c0       	rjmp	.+50     	; 0x30f4 <_ZN4Game9titleLoopEv+0x5c2>

        case 2:
          clear(2, 184, 6, 14, WHITE);
    30c2:	ee 24       	eor	r14, r14
    30c4:	ea 94       	dec	r14
    30c6:	fe 2c       	mov	r15, r14
    30c8:	0e e0       	ldi	r16, 0x0E	; 14
    30ca:	10 e0       	ldi	r17, 0x00	; 0
    30cc:	26 e0       	ldi	r18, 0x06	; 6
    30ce:	30 e0       	ldi	r19, 0x00	; 0
    30d0:	48 eb       	ldi	r20, 0xB8	; 184
    30d2:	50 e0       	ldi	r21, 0x00	; 0
    30d4:	62 e0       	ldi	r22, 0x02	; 2
    30d6:	70 e0       	ldi	r23, 0x00	; 0
    30d8:	ce 01       	movw	r24, r28
    30da:	0e 94 67 28 	call	0x50ce	; 0x50ce <_ZN3TFT5clearEiiiij>
          clear(2, 208, 6, 14, BLACK);
    30de:	e1 2c       	mov	r14, r1
    30e0:	f1 2c       	mov	r15, r1
    30e2:	26 e0       	ldi	r18, 0x06	; 6
    30e4:	30 e0       	ldi	r19, 0x00	; 0
    30e6:	40 ed       	ldi	r20, 0xD0	; 208
    30e8:	50 e0       	ldi	r21, 0x00	; 0
    30ea:	62 e0       	ldi	r22, 0x02	; 2
    30ec:	70 e0       	ldi	r23, 0x00	; 0
    30ee:	ce 01       	movw	r24, r28
    30f0:	0e 94 67 28 	call	0x50ce	; 0x50ce <_ZN3TFT5clearEiiiij>
    30f4:	9f ef       	ldi	r25, 0xFF	; 255
    30f6:	21 ee       	ldi	r18, 0xE1	; 225
    30f8:	84 e0       	ldi	r24, 0x04	; 4
    30fa:	91 50       	subi	r25, 0x01	; 1
    30fc:	20 40       	sbci	r18, 0x00	; 0
    30fe:	80 40       	sbci	r24, 0x00	; 0
    3100:	e1 f7       	brne	.-8      	; 0x30fa <_ZN4Game9titleLoopEv+0x5c8>
    3102:	00 c0       	rjmp	.+0      	; 0x3104 <_ZN4Game9titleLoopEv+0x5d2>
    3104:	00 00       	nop
        default:
          break;
        }

        _delay_ms(100);
        SW::up = OFF;
    3106:	10 92 40 02 	sts	0x0240, r1	; 0x800240 <_ZN2SW2upE>
    310a:	78 c0       	rjmp	.+240    	; 0x31fc <_ZN4Game9titleLoopEv+0x6ca>
      }

      else if (SW::down == ON)
    310c:	80 91 3f 02 	lds	r24, 0x023F	; 0x80023f <_ZN2SW4downE>
    3110:	88 23       	and	r24, r24
    3112:	09 f4       	brne	.+2      	; 0x3116 <_ZN4Game9titleLoopEv+0x5e4>
    3114:	73 c0       	rjmp	.+230    	; 0x31fc <_ZN4Game9titleLoopEv+0x6ca>
      {
        m_Cursor += 1;
    3116:	8a 85       	ldd	r24, Y+10	; 0x0a
    3118:	8f 5f       	subi	r24, 0xFF	; 255
    311a:	8a 87       	std	Y+10, r24	; 0x0a

        if (m_Cursor > 2)
    311c:	83 30       	cpi	r24, 0x03	; 3
    311e:	1c f0       	brlt	.+6      	; 0x3126 <_ZN4Game9titleLoopEv+0x5f4>
        {
          m_Cursor = 2;
    3120:	92 e0       	ldi	r25, 0x02	; 2
    3122:	9a 87       	std	Y+10, r25	; 0x0a
    3124:	47 c0       	rjmp	.+142    	; 0x31b4 <_ZN4Game9titleLoopEv+0x682>
        }

        switch (m_Cursor)
    3126:	81 30       	cpi	r24, 0x01	; 1
    3128:	f9 f0       	breq	.+62     	; 0x3168 <_ZN4Game9titleLoopEv+0x636>
    312a:	20 f0       	brcs	.+8      	; 0x3134 <_ZN4Game9titleLoopEv+0x602>
    312c:	82 30       	cpi	r24, 0x02	; 2
    312e:	09 f0       	breq	.+2      	; 0x3132 <_ZN4Game9titleLoopEv+0x600>
    3130:	5a c0       	rjmp	.+180    	; 0x31e6 <_ZN4Game9titleLoopEv+0x6b4>
    3132:	40 c0       	rjmp	.+128    	; 0x31b4 <_ZN4Game9titleLoopEv+0x682>
        {
        case 0:
          clear(2, 160, 6, 14, BLACK);
    3134:	e1 2c       	mov	r14, r1
    3136:	f1 2c       	mov	r15, r1
    3138:	0e e0       	ldi	r16, 0x0E	; 14
    313a:	10 e0       	ldi	r17, 0x00	; 0
    313c:	26 e0       	ldi	r18, 0x06	; 6
    313e:	30 e0       	ldi	r19, 0x00	; 0
    3140:	40 ea       	ldi	r20, 0xA0	; 160
    3142:	50 e0       	ldi	r21, 0x00	; 0
    3144:	62 e0       	ldi	r22, 0x02	; 2
    3146:	70 e0       	ldi	r23, 0x00	; 0
    3148:	ce 01       	movw	r24, r28
    314a:	0e 94 67 28 	call	0x50ce	; 0x50ce <_ZN3TFT5clearEiiiij>
          clear(2, 184, 6, 14, WHITE);
    314e:	ee 24       	eor	r14, r14
    3150:	ea 94       	dec	r14
    3152:	fe 2c       	mov	r15, r14
    3154:	26 e0       	ldi	r18, 0x06	; 6
    3156:	30 e0       	ldi	r19, 0x00	; 0
    3158:	48 eb       	ldi	r20, 0xB8	; 184
    315a:	50 e0       	ldi	r21, 0x00	; 0
    315c:	62 e0       	ldi	r22, 0x02	; 2
    315e:	70 e0       	ldi	r23, 0x00	; 0
    3160:	ce 01       	movw	r24, r28
    3162:	0e 94 67 28 	call	0x50ce	; 0x50ce <_ZN3TFT5clearEiiiij>

          break;
    3166:	3f c0       	rjmp	.+126    	; 0x31e6 <_ZN4Game9titleLoopEv+0x6b4>

        case 1:
          clear(2, 160, 6, 14, WHITE);
    3168:	ee 24       	eor	r14, r14
    316a:	ea 94       	dec	r14
    316c:	fe 2c       	mov	r15, r14
    316e:	0e e0       	ldi	r16, 0x0E	; 14
    3170:	10 e0       	ldi	r17, 0x00	; 0
    3172:	26 e0       	ldi	r18, 0x06	; 6
    3174:	30 e0       	ldi	r19, 0x00	; 0
    3176:	40 ea       	ldi	r20, 0xA0	; 160
    3178:	50 e0       	ldi	r21, 0x00	; 0
    317a:	62 e0       	ldi	r22, 0x02	; 2
    317c:	70 e0       	ldi	r23, 0x00	; 0
    317e:	ce 01       	movw	r24, r28
    3180:	0e 94 67 28 	call	0x50ce	; 0x50ce <_ZN3TFT5clearEiiiij>
          clear(2, 184, 6, 14, BLACK);
    3184:	e1 2c       	mov	r14, r1
    3186:	f1 2c       	mov	r15, r1
    3188:	26 e0       	ldi	r18, 0x06	; 6
    318a:	30 e0       	ldi	r19, 0x00	; 0
    318c:	48 eb       	ldi	r20, 0xB8	; 184
    318e:	50 e0       	ldi	r21, 0x00	; 0
    3190:	62 e0       	ldi	r22, 0x02	; 2
    3192:	70 e0       	ldi	r23, 0x00	; 0
    3194:	ce 01       	movw	r24, r28
    3196:	0e 94 67 28 	call	0x50ce	; 0x50ce <_ZN3TFT5clearEiiiij>
          clear(2, 208, 6, 14, WHITE);
    319a:	ee 24       	eor	r14, r14
    319c:	ea 94       	dec	r14
    319e:	fe 2c       	mov	r15, r14
    31a0:	26 e0       	ldi	r18, 0x06	; 6
    31a2:	30 e0       	ldi	r19, 0x00	; 0
    31a4:	40 ed       	ldi	r20, 0xD0	; 208
    31a6:	50 e0       	ldi	r21, 0x00	; 0
    31a8:	62 e0       	ldi	r22, 0x02	; 2
    31aa:	70 e0       	ldi	r23, 0x00	; 0
    31ac:	ce 01       	movw	r24, r28
    31ae:	0e 94 67 28 	call	0x50ce	; 0x50ce <_ZN3TFT5clearEiiiij>

          break;
    31b2:	19 c0       	rjmp	.+50     	; 0x31e6 <_ZN4Game9titleLoopEv+0x6b4>

        case 2:
          clear(2, 184, 6, 14, WHITE);
    31b4:	ee 24       	eor	r14, r14
    31b6:	ea 94       	dec	r14
    31b8:	fe 2c       	mov	r15, r14
    31ba:	0e e0       	ldi	r16, 0x0E	; 14
    31bc:	10 e0       	ldi	r17, 0x00	; 0
    31be:	26 e0       	ldi	r18, 0x06	; 6
    31c0:	30 e0       	ldi	r19, 0x00	; 0
    31c2:	48 eb       	ldi	r20, 0xB8	; 184
    31c4:	50 e0       	ldi	r21, 0x00	; 0
    31c6:	62 e0       	ldi	r22, 0x02	; 2
    31c8:	70 e0       	ldi	r23, 0x00	; 0
    31ca:	ce 01       	movw	r24, r28
    31cc:	0e 94 67 28 	call	0x50ce	; 0x50ce <_ZN3TFT5clearEiiiij>
          clear(2, 208, 6, 14, BLACK);
    31d0:	e1 2c       	mov	r14, r1
    31d2:	f1 2c       	mov	r15, r1
    31d4:	26 e0       	ldi	r18, 0x06	; 6
    31d6:	30 e0       	ldi	r19, 0x00	; 0
    31d8:	40 ed       	ldi	r20, 0xD0	; 208
    31da:	50 e0       	ldi	r21, 0x00	; 0
    31dc:	62 e0       	ldi	r22, 0x02	; 2
    31de:	70 e0       	ldi	r23, 0x00	; 0
    31e0:	ce 01       	movw	r24, r28
    31e2:	0e 94 67 28 	call	0x50ce	; 0x50ce <_ZN3TFT5clearEiiiij>
    31e6:	2f ef       	ldi	r18, 0xFF	; 255
    31e8:	81 ee       	ldi	r24, 0xE1	; 225
    31ea:	94 e0       	ldi	r25, 0x04	; 4
    31ec:	21 50       	subi	r18, 0x01	; 1
    31ee:	80 40       	sbci	r24, 0x00	; 0
    31f0:	90 40       	sbci	r25, 0x00	; 0
    31f2:	e1 f7       	brne	.-8      	; 0x31ec <_ZN4Game9titleLoopEv+0x6ba>
    31f4:	00 c0       	rjmp	.+0      	; 0x31f6 <_ZN4Game9titleLoopEv+0x6c4>
    31f6:	00 00       	nop
        default:
          break;
        }

        _delay_ms(100);
        SW::down = OFF;
    31f8:	10 92 3f 02 	sts	0x023F, r1	; 0x80023f <_ZN2SW4downE>
      }

      switch (m_Cursor)
    31fc:	8a 85       	ldd	r24, Y+10	; 0x0a
    31fe:	81 30       	cpi	r24, 0x01	; 1
    3200:	69 f1       	breq	.+90     	; 0x325c <_ZN4Game9titleLoopEv+0x72a>
    3202:	82 30       	cpi	r24, 0x02	; 2
    3204:	09 f4       	brne	.+2      	; 0x3208 <_ZN4Game9titleLoopEv+0x6d6>
    3206:	63 c0       	rjmp	.+198    	; 0x32ce <_ZN4Game9titleLoopEv+0x79c>
    3208:	81 11       	cpse	r24, r1
    320a:	b7 cc       	rjmp	.-1682   	; 0x2b7a <_ZN4Game9titleLoopEv+0x48>
      {
      case 0:
        if (Frame::sixFrames == 0)
    320c:	80 91 25 02 	lds	r24, 0x0225	; 0x800225 <_ZN5Frame9sixFramesE>
    3210:	81 11       	cpse	r24, r1
    3212:	0e c0       	rjmp	.+28     	; 0x3230 <_ZN4Game9titleLoopEv+0x6fe>
        {
          clear(2, 160, 6, 14, BLACK);
    3214:	e1 2c       	mov	r14, r1
    3216:	f1 2c       	mov	r15, r1
    3218:	0e e0       	ldi	r16, 0x0E	; 14
    321a:	10 e0       	ldi	r17, 0x00	; 0
    321c:	26 e0       	ldi	r18, 0x06	; 6
    321e:	30 e0       	ldi	r19, 0x00	; 0
    3220:	40 ea       	ldi	r20, 0xA0	; 160
    3222:	50 e0       	ldi	r21, 0x00	; 0
    3224:	62 e0       	ldi	r22, 0x02	; 2
    3226:	70 e0       	ldi	r23, 0x00	; 0
    3228:	ce 01       	movw	r24, r28
    322a:	0e 94 67 28 	call	0x50ce	; 0x50ce <_ZN3TFT5clearEiiiij>
    322e:	10 c0       	rjmp	.+32     	; 0x3250 <_ZN4Game9titleLoopEv+0x71e>
        }

        else if (Frame::sixFrames == 4)
    3230:	84 30       	cpi	r24, 0x04	; 4
    3232:	71 f4       	brne	.+28     	; 0x3250 <_ZN4Game9titleLoopEv+0x71e>
        {
          clear(2, 160, 6, 14, WHITE);
    3234:	ee 24       	eor	r14, r14
    3236:	ea 94       	dec	r14
    3238:	fe 2c       	mov	r15, r14
    323a:	0e e0       	ldi	r16, 0x0E	; 14
    323c:	10 e0       	ldi	r17, 0x00	; 0
    323e:	26 e0       	ldi	r18, 0x06	; 6
    3240:	30 e0       	ldi	r19, 0x00	; 0
    3242:	40 ea       	ldi	r20, 0xA0	; 160
    3244:	50 e0       	ldi	r21, 0x00	; 0
    3246:	62 e0       	ldi	r22, 0x02	; 2
    3248:	70 e0       	ldi	r23, 0x00	; 0
    324a:	ce 01       	movw	r24, r28
    324c:	0e 94 67 28 	call	0x50ce	; 0x50ce <_ZN3TFT5clearEiiiij>
        }

        if (SW::interrupt0 == ON)
    3250:	80 91 42 02 	lds	r24, 0x0242	; 0x800242 <_ZN2SW10interrupt0E>
    3254:	88 23       	and	r24, r24
    3256:	09 f4       	brne	.+2      	; 0x325a <_ZN4Game9titleLoopEv+0x728>
    3258:	90 cc       	rjmp	.-1760   	; 0x2b7a <_ZN4Game9titleLoopEv+0x48>
    325a:	6a c0       	rjmp	.+212    	; 0x3330 <_ZN4Game9titleLoopEv+0x7fe>
        }

        break;

      case 1:
        if (Frame::sixFrames == 0)
    325c:	80 91 25 02 	lds	r24, 0x0225	; 0x800225 <_ZN5Frame9sixFramesE>
    3260:	81 11       	cpse	r24, r1
    3262:	0e c0       	rjmp	.+28     	; 0x3280 <_ZN4Game9titleLoopEv+0x74e>
        {
          clear(2, 184, 6, 14, BLACK);
    3264:	e1 2c       	mov	r14, r1
    3266:	f1 2c       	mov	r15, r1
    3268:	0e e0       	ldi	r16, 0x0E	; 14
    326a:	10 e0       	ldi	r17, 0x00	; 0
    326c:	26 e0       	ldi	r18, 0x06	; 6
    326e:	30 e0       	ldi	r19, 0x00	; 0
    3270:	48 eb       	ldi	r20, 0xB8	; 184
    3272:	50 e0       	ldi	r21, 0x00	; 0
    3274:	62 e0       	ldi	r22, 0x02	; 2
    3276:	70 e0       	ldi	r23, 0x00	; 0
    3278:	ce 01       	movw	r24, r28
    327a:	0e 94 67 28 	call	0x50ce	; 0x50ce <_ZN3TFT5clearEiiiij>
    327e:	10 c0       	rjmp	.+32     	; 0x32a0 <_ZN4Game9titleLoopEv+0x76e>
        }

        else if (Frame::sixFrames == 4)
    3280:	84 30       	cpi	r24, 0x04	; 4
    3282:	71 f4       	brne	.+28     	; 0x32a0 <_ZN4Game9titleLoopEv+0x76e>
        {
          clear(2, 184, 6, 14, WHITE);
    3284:	ee 24       	eor	r14, r14
    3286:	ea 94       	dec	r14
    3288:	fe 2c       	mov	r15, r14
    328a:	0e e0       	ldi	r16, 0x0E	; 14
    328c:	10 e0       	ldi	r17, 0x00	; 0
    328e:	26 e0       	ldi	r18, 0x06	; 6
    3290:	30 e0       	ldi	r19, 0x00	; 0
    3292:	48 eb       	ldi	r20, 0xB8	; 184
    3294:	50 e0       	ldi	r21, 0x00	; 0
    3296:	62 e0       	ldi	r22, 0x02	; 2
    3298:	70 e0       	ldi	r23, 0x00	; 0
    329a:	ce 01       	movw	r24, r28
    329c:	0e 94 67 28 	call	0x50ce	; 0x50ce <_ZN3TFT5clearEiiiij>
        }

        if (SW::interrupt0 == ON)
    32a0:	80 91 42 02 	lds	r24, 0x0242	; 0x800242 <_ZN2SW10interrupt0E>
    32a4:	88 23       	and	r24, r24
    32a6:	09 f4       	brne	.+2      	; 0x32aa <_ZN4Game9titleLoopEv+0x778>
    32a8:	68 cc       	rjmp	.-1840   	; 0x2b7a <_ZN4Game9titleLoopEv+0x48>
        {
          clear(55, 20, 210, 200, BLACK);
    32aa:	e1 2c       	mov	r14, r1
    32ac:	f1 2c       	mov	r15, r1
    32ae:	08 ec       	ldi	r16, 0xC8	; 200
    32b0:	10 e0       	ldi	r17, 0x00	; 0
    32b2:	22 ed       	ldi	r18, 0xD2	; 210
    32b4:	30 e0       	ldi	r19, 0x00	; 0
    32b6:	44 e1       	ldi	r20, 0x14	; 20
    32b8:	50 e0       	ldi	r21, 0x00	; 0
    32ba:	67 e3       	ldi	r22, 0x37	; 55
    32bc:	70 e0       	ldi	r23, 0x00	; 0
    32be:	ce 01       	movw	r24, r28
    32c0:	0e 94 67 28 	call	0x50ce	; 0x50ce <_ZN3TFT5clearEiiiij>
          SW::init();
    32c4:	0e 94 3c 27 	call	0x4e78	; 0x4e78 <_ZN2SW4initEv>
          m_IsScore = true;
    32c8:	21 e0       	ldi	r18, 0x01	; 1
    32ca:	2e 87       	std	Y+14, r18	; 0x0e
    32cc:	56 cc       	rjmp	.-1876   	; 0x2b7a <_ZN4Game9titleLoopEv+0x48>
        }

        break;

      case 2:
        if (Frame::sixFrames == 0)
    32ce:	80 91 25 02 	lds	r24, 0x0225	; 0x800225 <_ZN5Frame9sixFramesE>
    32d2:	81 11       	cpse	r24, r1
    32d4:	0e c0       	rjmp	.+28     	; 0x32f2 <_ZN4Game9titleLoopEv+0x7c0>
        {
          clear(2, 208, 6, 14, BLACK);
    32d6:	e1 2c       	mov	r14, r1
    32d8:	f1 2c       	mov	r15, r1
    32da:	0e e0       	ldi	r16, 0x0E	; 14
    32dc:	10 e0       	ldi	r17, 0x00	; 0
    32de:	26 e0       	ldi	r18, 0x06	; 6
    32e0:	30 e0       	ldi	r19, 0x00	; 0
    32e2:	40 ed       	ldi	r20, 0xD0	; 208
    32e4:	50 e0       	ldi	r21, 0x00	; 0
    32e6:	62 e0       	ldi	r22, 0x02	; 2
    32e8:	70 e0       	ldi	r23, 0x00	; 0
    32ea:	ce 01       	movw	r24, r28
    32ec:	0e 94 67 28 	call	0x50ce	; 0x50ce <_ZN3TFT5clearEiiiij>
    32f0:	10 c0       	rjmp	.+32     	; 0x3312 <_ZN4Game9titleLoopEv+0x7e0>
        }

        else if (Frame::sixFrames == 4)
    32f2:	84 30       	cpi	r24, 0x04	; 4
    32f4:	71 f4       	brne	.+28     	; 0x3312 <_ZN4Game9titleLoopEv+0x7e0>
        {
          clear(2, 208, 6, 14, WHITE);
    32f6:	ee 24       	eor	r14, r14
    32f8:	ea 94       	dec	r14
    32fa:	fe 2c       	mov	r15, r14
    32fc:	0e e0       	ldi	r16, 0x0E	; 14
    32fe:	10 e0       	ldi	r17, 0x00	; 0
    3300:	26 e0       	ldi	r18, 0x06	; 6
    3302:	30 e0       	ldi	r19, 0x00	; 0
    3304:	40 ed       	ldi	r20, 0xD0	; 208
    3306:	50 e0       	ldi	r21, 0x00	; 0
    3308:	62 e0       	ldi	r22, 0x02	; 2
    330a:	70 e0       	ldi	r23, 0x00	; 0
    330c:	ce 01       	movw	r24, r28
    330e:	0e 94 67 28 	call	0x50ce	; 0x50ce <_ZN3TFT5clearEiiiij>
        }

        if (SW::interrupt0 == ON)
    3312:	80 91 42 02 	lds	r24, 0x0242	; 0x800242 <_ZN2SW10interrupt0E>
    3316:	88 23       	and	r24, r24
    3318:	09 f4       	brne	.+2      	; 0x331c <_ZN4Game9titleLoopEv+0x7ea>
    331a:	2f cc       	rjmp	.-1954   	; 0x2b7a <_ZN4Game9titleLoopEv+0x48>
        {
          fillScreen(BLACK);
    331c:	60 e0       	ldi	r22, 0x00	; 0
    331e:	70 e0       	ldi	r23, 0x00	; 0
    3320:	ce 01       	movw	r24, r28
    3322:	0e 94 22 28 	call	0x5044	; 0x5044 <_ZN3TFT10fillScreenEj>
          SW::init();
    3326:	0e 94 3c 27 	call	0x4e78	; 0x4e78 <_ZN2SW4initEv>
          m_IsCredit = true;
    332a:	81 e0       	ldi	r24, 0x01	; 1
    332c:	8f 87       	std	Y+15, r24	; 0x0f
    332e:	25 cc       	rjmp	.-1974   	; 0x2b7a <_ZN4Game9titleLoopEv+0x48>
      }
    }

  }

}
    3330:	df 91       	pop	r29
    3332:	cf 91       	pop	r28
    3334:	1f 91       	pop	r17
    3336:	0f 91       	pop	r16
    3338:	ff 90       	pop	r15
    333a:	ef 90       	pop	r14
    333c:	df 90       	pop	r13
    333e:	cf 90       	pop	r12
    3340:	bf 90       	pop	r11
    3342:	af 90       	pop	r10
    3344:	9f 90       	pop	r9
    3346:	8f 90       	pop	r8
    3348:	7f 90       	pop	r7
    334a:	6f 90       	pop	r6
    334c:	5f 90       	pop	r5
    334e:	4f 90       	pop	r4
    3350:	3f 90       	pop	r3
    3352:	2f 90       	pop	r2
    3354:	08 95       	ret

00003356 <_ZN4Game9startLoopEv>:
/*----------------------------------------//
              Game Start Loop
//----------------------------------------*/

void Game::startLoop(void)
{
    3356:	6f 92       	push	r6
    3358:	7f 92       	push	r7
    335a:	8f 92       	push	r8
    335c:	9f 92       	push	r9
    335e:	af 92       	push	r10
    3360:	bf 92       	push	r11
    3362:	cf 92       	push	r12
    3364:	df 92       	push	r13
    3366:	ef 92       	push	r14
    3368:	ff 92       	push	r15
    336a:	0f 93       	push	r16
    336c:	1f 93       	push	r17
    336e:	cf 93       	push	r28
    3370:	df 93       	push	r29
    3372:	cd b7       	in	r28, 0x3d	; 61
    3374:	de b7       	in	r29, 0x3e	; 62
    3376:	cc 59       	subi	r28, 0x9C	; 156
    3378:	d1 09       	sbc	r29, r1
    337a:	0f b6       	in	r0, 0x3f	; 63
    337c:	f8 94       	cli
    337e:	de bf       	out	0x3e, r29	; 62
    3380:	0f be       	out	0x3f, r0	; 63
    3382:	cd bf       	out	0x3d, r28	; 61
    3384:	4c 01       	movw	r8, r24
private:
  int16_t m_Width;
  int16_t m_Height;

public:
  TFT() : SPI() { m_Width = 240; m_Height = 320; }
    3386:	0f 2e       	mov	r0, r31
    3388:	f0 ef       	ldi	r31, 0xF0	; 240
    338a:	cf 2e       	mov	r12, r31
    338c:	d1 2c       	mov	r13, r1
    338e:	f0 2d       	mov	r31, r0
    3390:	da 82       	std	Y+2, r13	; 0x02
    3392:	c9 82       	std	Y+1, r12	; 0x01
    3394:	00 e4       	ldi	r16, 0x40	; 64
    3396:	11 e0       	ldi	r17, 0x01	; 1
    3398:	1c 83       	std	Y+4, r17	; 0x04
    339a:	0b 83       	std	Y+3, r16	; 0x03

  void running(void);
  void jumping(void);

public:
  Player() : TFT() { m_JumpSpeed = 6; m_IsReset = false; m_IsUp = false; isJump = false; }
    339c:	86 e0       	ldi	r24, 0x06	; 6
    339e:	8f 83       	std	Y+7, r24	; 0x07
    33a0:	19 86       	std	Y+9, r1	; 0x09
    33a2:	1a 86       	std	Y+10, r1	; 0x0a
    33a4:	1c 86       	std	Y+12, r1	; 0x0c
    33a6:	de 86       	std	Y+14, r13	; 0x0e
    33a8:	cd 86       	std	Y+13, r12	; 0x0d
    33aa:	18 8b       	std	Y+16, r17	; 0x10
    33ac:	0f 87       	std	Y+15, r16	; 0x0f
  void present(void);
  void rollBlock(void);
  void rollBackground(void);

public:
  Object() : TFT() { m_MoveSpeed = 3; m_IsBlock = true; m_IsReset = false; isRolling = false; isPresent = false; init(); }
    33ae:	0f 2e       	mov	r0, r31
    33b0:	f3 e0       	ldi	r31, 0x03	; 3
    33b2:	af 2e       	mov	r10, r31
    33b4:	f0 2d       	mov	r31, r0
    33b6:	aa 8e       	std	Y+26, r10	; 0x1a
    33b8:	bb 24       	eor	r11, r11
    33ba:	b3 94       	inc	r11
    33bc:	be 8e       	std	Y+30, r11	; 0x1e
    33be:	1f 8e       	std	Y+31, r1	; 0x1f
    33c0:	1b a2       	std	Y+35, r1	; 0x23
    33c2:	1c a2       	std	Y+36, r1	; 0x24
    33c4:	ce 01       	movw	r24, r28
    33c6:	0d 96       	adiw	r24, 0x0d	; 13
    33c8:	0e 94 80 24 	call	0x4900	; 0x4900 <_ZN6Object4initEv>
    33cc:	de a2       	std	Y+38, r13	; 0x26
    33ce:	cd a2       	std	Y+37, r12	; 0x25
    33d0:	18 a7       	std	Y+40, r17	; 0x28
    33d2:	0f a3       	std	Y+39, r16	; 0x27
    33d4:	aa aa       	std	Y+50, r10	; 0x32
    33d6:	be aa       	std	Y+54, r11	; 0x36
    33d8:	1f aa       	std	Y+55, r1	; 0x37
    33da:	1b ae       	std	Y+59, r1	; 0x3b
    33dc:	1c ae       	std	Y+60, r1	; 0x3c
    33de:	ce 01       	movw	r24, r28
    33e0:	85 96       	adiw	r24, 0x25	; 37
    33e2:	0e 94 80 24 	call	0x4900	; 0x4900 <_ZN6Object4initEv>
    33e6:	de ae       	std	Y+62, r13	; 0x3e
    33e8:	cd ae       	std	Y+61, r12	; 0x3d
    33ea:	21 96       	adiw	r28, 0x01	; 1
    33ec:	1f af       	std	Y+63, r17	; 0x3f
    33ee:	0e af       	std	Y+62, r16	; 0x3e
    33f0:	21 97       	sbiw	r28, 0x01	; 1
    33f2:	2b 96       	adiw	r28, 0x0b	; 11
    33f4:	af ae       	std	Y+63, r10	; 0x3f
    33f6:	2b 97       	sbiw	r28, 0x0b	; 11
    33f8:	2f 96       	adiw	r28, 0x0f	; 15
    33fa:	bf ae       	std	Y+63, r11	; 0x3f
    33fc:	2f 97       	sbiw	r28, 0x0f	; 15
    33fe:	60 96       	adiw	r28, 0x10	; 16
    3400:	1f ae       	std	Y+63, r1	; 0x3f
    3402:	60 97       	sbiw	r28, 0x10	; 16
    3404:	64 96       	adiw	r28, 0x14	; 20
    3406:	1f ae       	std	Y+63, r1	; 0x3f
    3408:	64 97       	sbiw	r28, 0x14	; 20
    340a:	65 96       	adiw	r28, 0x15	; 21
    340c:	1f ae       	std	Y+63, r1	; 0x3f
    340e:	65 97       	sbiw	r28, 0x15	; 21
    3410:	ce 01       	movw	r24, r28
    3412:	cd 96       	adiw	r24, 0x3d	; 61
    3414:	0e 94 80 24 	call	0x4900	; 0x4900 <_ZN6Object4initEv>
    3418:	67 96       	adiw	r28, 0x17	; 23
    341a:	df ae       	std	Y+63, r13	; 0x3f
    341c:	ce ae       	std	Y+62, r12	; 0x3e
    341e:	67 97       	sbiw	r28, 0x17	; 23
    3420:	69 96       	adiw	r28, 0x19	; 25
    3422:	1f af       	std	Y+63, r17	; 0x3f
    3424:	0e af       	std	Y+62, r16	; 0x3e
    3426:	69 97       	sbiw	r28, 0x19	; 25
  Object(int16_t width, int16_t height, const uint8_t *bitmap, int8_t speed) : TFT() { m_MoveSpeed = speed; m_IsBlock = false; m_IsReset = false; isRolling = false;
    3428:	88 e2       	ldi	r24, 0x28	; 40
    342a:	a3 96       	adiw	r28, 0x23	; 35
    342c:	8f af       	std	Y+63, r24	; 0x3f
    342e:	a3 97       	sbiw	r28, 0x23	; 35
    3430:	a7 96       	adiw	r28, 0x27	; 39
    3432:	1f ae       	std	Y+63, r1	; 0x3f
    3434:	a7 97       	sbiw	r28, 0x27	; 39
    3436:	a8 96       	adiw	r28, 0x28	; 40
    3438:	1f ae       	std	Y+63, r1	; 0x3f
    343a:	a8 97       	sbiw	r28, 0x28	; 40
    343c:	ac 96       	adiw	r28, 0x2c	; 44
    343e:	1f ae       	std	Y+63, r1	; 0x3f
    3440:	ac 97       	sbiw	r28, 0x2c	; 44
    m_Bitmap = bitmap; m_Width = width; m_Height = height; }
    3442:	8c ec       	ldi	r24, 0xCC	; 204
    3444:	90 e0       	ldi	r25, 0x00	; 0
    3446:	6b 96       	adiw	r28, 0x1b	; 27
    3448:	9f af       	std	Y+63, r25	; 0x3f
    344a:	8e af       	std	Y+62, r24	; 0x3e
    344c:	6b 97       	sbiw	r28, 0x1b	; 27
    344e:	82 e3       	ldi	r24, 0x32	; 50
    3450:	90 e0       	ldi	r25, 0x00	; 0
    3452:	6d 96       	adiw	r28, 0x1d	; 29
    3454:	9f af       	std	Y+63, r25	; 0x3f
    3456:	8e af       	std	Y+62, r24	; 0x3e
    3458:	6d 97       	sbiw	r28, 0x1d	; 29
    345a:	86 e4       	ldi	r24, 0x46	; 70
    345c:	90 e0       	ldi	r25, 0x00	; 0
    345e:	6f 96       	adiw	r28, 0x1f	; 31
    3460:	9f af       	std	Y+63, r25	; 0x3f
    3462:	8e af       	std	Y+62, r24	; 0x3e
    3464:	6f 97       	sbiw	r28, 0x1f	; 31
    3466:	af 96       	adiw	r28, 0x2f	; 47
    3468:	df ae       	std	Y+63, r13	; 0x3f
    346a:	ce ae       	std	Y+62, r12	; 0x3e
    346c:	af 97       	sbiw	r28, 0x2f	; 47
    346e:	e1 96       	adiw	r28, 0x31	; 49
    3470:	1f af       	std	Y+63, r17	; 0x3f
    3472:	0e af       	std	Y+62, r16	; 0x3e
    3474:	e1 97       	sbiw	r28, 0x31	; 49
  void rollBlock(void);
  void rollBackground(void);

public:
  Object() : TFT() { m_MoveSpeed = 3; m_IsBlock = true; m_IsReset = false; isRolling = false; isPresent = false; init(); }
  Object(int16_t width, int16_t height, const uint8_t *bitmap, int8_t speed) : TFT() { m_MoveSpeed = speed; m_IsBlock = false; m_IsReset = false; isRolling = false;
    3476:	8a e0       	ldi	r24, 0x0A	; 10
    3478:	eb 96       	adiw	r28, 0x3b	; 59
    347a:	8f af       	std	Y+63, r24	; 0x3f
    347c:	eb 97       	sbiw	r28, 0x3b	; 59
    347e:	ef 96       	adiw	r28, 0x3f	; 63
    3480:	1f ae       	std	Y+63, r1	; 0x3f
    3482:	ef 97       	sbiw	r28, 0x3f	; 63
    3484:	c1 58       	subi	r28, 0x81	; 129
    3486:	df 4f       	sbci	r29, 0xFF	; 255
    3488:	18 82       	st	Y, r1
    348a:	cf 57       	subi	r28, 0x7F	; 127
    348c:	d0 40       	sbci	r29, 0x00	; 0
    348e:	cd 57       	subi	r28, 0x7D	; 125
    3490:	df 4f       	sbci	r29, 0xFF	; 255
    3492:	18 82       	st	Y, r1
    3494:	c3 58       	subi	r28, 0x83	; 131
    3496:	d0 40       	sbci	r29, 0x00	; 0
    m_Bitmap = bitmap; m_Width = width; m_Height = height; }
    3498:	81 ed       	ldi	r24, 0xD1	; 209
    349a:	90 e0       	ldi	r25, 0x00	; 0
    349c:	e3 96       	adiw	r28, 0x33	; 51
    349e:	9f af       	std	Y+63, r25	; 0x3f
    34a0:	8e af       	std	Y+62, r24	; 0x3e
    34a2:	e3 97       	sbiw	r28, 0x33	; 51
    34a4:	8a ef       	ldi	r24, 0xFA	; 250
    34a6:	90 e0       	ldi	r25, 0x00	; 0
    34a8:	e5 96       	adiw	r28, 0x35	; 53
    34aa:	9f af       	std	Y+63, r25	; 0x3f
    34ac:	8e af       	std	Y+62, r24	; 0x3e
    34ae:	e5 97       	sbiw	r28, 0x35	; 53
    34b0:	80 e5       	ldi	r24, 0x50	; 80
    34b2:	90 e0       	ldi	r25, 0x00	; 0
    34b4:	e7 96       	adiw	r28, 0x37	; 55
    34b6:	9f af       	std	Y+63, r25	; 0x3f
    34b8:	8e af       	std	Y+62, r24	; 0x3e
    34ba:	e7 97       	sbiw	r28, 0x37	; 55
    34bc:	cb 57       	subi	r28, 0x7B	; 123
    34be:	df 4f       	sbci	r29, 0xFF	; 255
    34c0:	d9 82       	std	Y+1, r13	; 0x01
    34c2:	c8 82       	st	Y, r12
    34c4:	c5 58       	subi	r28, 0x85	; 133
    34c6:	d0 40       	sbci	r29, 0x00	; 0
    34c8:	c9 57       	subi	r28, 0x79	; 121
    34ca:	df 4f       	sbci	r29, 0xFF	; 255
    34cc:	19 83       	std	Y+1, r17	; 0x01
    34ce:	08 83       	st	Y, r16
    34d0:	c7 58       	subi	r28, 0x87	; 135
    34d2:	d0 40       	sbci	r29, 0x00	; 0
  void rollBlock(void);
  void rollBackground(void);

public:
  Object() : TFT() { m_MoveSpeed = 3; m_IsBlock = true; m_IsReset = false; isRolling = false; isPresent = false; init(); }
  Object(int16_t width, int16_t height, const uint8_t *bitmap, int8_t speed) : TFT() { m_MoveSpeed = speed; m_IsBlock = false; m_IsReset = false; isRolling = false;
    34d4:	82 e0       	ldi	r24, 0x02	; 2
    34d6:	ce 56       	subi	r28, 0x6E	; 110
    34d8:	df 4f       	sbci	r29, 0xFF	; 255
    34da:	88 83       	st	Y, r24
    34dc:	c2 59       	subi	r28, 0x92	; 146
    34de:	d0 40       	sbci	r29, 0x00	; 0
    34e0:	ca 56       	subi	r28, 0x6A	; 106
    34e2:	df 4f       	sbci	r29, 0xFF	; 255
    34e4:	18 82       	st	Y, r1
    34e6:	c6 59       	subi	r28, 0x96	; 150
    34e8:	d0 40       	sbci	r29, 0x00	; 0
    34ea:	c9 56       	subi	r28, 0x69	; 105
    34ec:	df 4f       	sbci	r29, 0xFF	; 255
    34ee:	18 82       	st	Y, r1
    34f0:	c7 59       	subi	r28, 0x97	; 151
    34f2:	d0 40       	sbci	r29, 0x00	; 0
    34f4:	c5 56       	subi	r28, 0x65	; 101
    34f6:	df 4f       	sbci	r29, 0xFF	; 255
    34f8:	18 82       	st	Y, r1
    34fa:	cb 59       	subi	r28, 0x9B	; 155
    34fc:	d0 40       	sbci	r29, 0x00	; 0
    m_Bitmap = bitmap; m_Width = width; m_Height = height; }
    34fe:	86 ed       	ldi	r24, 0xD6	; 214
    3500:	90 e0       	ldi	r25, 0x00	; 0
    3502:	c7 57       	subi	r28, 0x77	; 119
    3504:	df 4f       	sbci	r29, 0xFF	; 255
    3506:	99 83       	std	Y+1, r25	; 0x01
    3508:	88 83       	st	Y, r24
    350a:	c9 58       	subi	r28, 0x89	; 137
    350c:	d0 40       	sbci	r29, 0x00	; 0
    350e:	86 e9       	ldi	r24, 0x96	; 150
    3510:	90 e0       	ldi	r25, 0x00	; 0
    3512:	c5 57       	subi	r28, 0x75	; 117
    3514:	df 4f       	sbci	r29, 0xFF	; 255
    3516:	99 83       	std	Y+1, r25	; 0x01
    3518:	88 83       	st	Y, r24
    351a:	cb 58       	subi	r28, 0x8B	; 139
    351c:	d0 40       	sbci	r29, 0x00	; 0
    351e:	8e e6       	ldi	r24, 0x6E	; 110
    3520:	90 e0       	ldi	r25, 0x00	; 0
    3522:	c3 57       	subi	r28, 0x73	; 115
    3524:	df 4f       	sbci	r29, 0xFF	; 255
    3526:	99 83       	std	Y+1, r25	; 0x01
    3528:	88 83       	st	Y, r24
    352a:	cd 58       	subi	r28, 0x8D	; 141
    352c:	d0 40       	sbci	r29, 0x00	; 0
  Object block1, block2, block3;
  Object star1(50, 70, bigStar, 40);
  Object star2(250, 80, smallStar1, 10);
  Object star3(150, 110, smallStar0, 2);

  print(16, 16, "Score:");
    352e:	68 2c       	mov	r6, r8
    3530:	79 2c       	mov	r7, r9
    3532:	23 ea       	ldi	r18, 0xA3	; 163
    3534:	31 e0       	ldi	r19, 0x01	; 1
    3536:	40 e1       	ldi	r20, 0x10	; 16
    3538:	50 e0       	ldi	r21, 0x00	; 0
    353a:	60 e1       	ldi	r22, 0x10	; 16
    353c:	70 e0       	ldi	r23, 0x00	; 0
    353e:	c4 01       	movw	r24, r8
    3540:	0e 94 1f 14 	call	0x283e	; 0x283e <_ZN4Font5printEiiPKc>
  draw(256, 32, 32, 32, moonTile, BLACK, WHITE);
    3544:	aa 24       	eor	r10, r10
    3546:	aa 94       	dec	r10
    3548:	ba 2c       	mov	r11, r10
    354a:	c1 2c       	mov	r12, r1
    354c:	d1 2c       	mov	r13, r1
    354e:	0f 2e       	mov	r0, r31
    3550:	fb ed       	ldi	r31, 0xDB	; 219
    3552:	ef 2e       	mov	r14, r31
    3554:	f0 e0       	ldi	r31, 0x00	; 0
    3556:	ff 2e       	mov	r15, r31
    3558:	f0 2d       	mov	r31, r0
    355a:	00 e2       	ldi	r16, 0x20	; 32
    355c:	10 e0       	ldi	r17, 0x00	; 0
    355e:	20 e2       	ldi	r18, 0x20	; 32
    3560:	30 e0       	ldi	r19, 0x00	; 0
    3562:	40 e2       	ldi	r20, 0x20	; 32
    3564:	50 e0       	ldi	r21, 0x00	; 0
    3566:	60 e0       	ldi	r22, 0x00	; 0
    3568:	71 e0       	ldi	r23, 0x01	; 1
    356a:	c4 01       	movw	r24, r8
    356c:	0e 94 a0 28 	call	0x5140	; 0x5140 <_ZN3TFT4drawEiiiiPKhjj>

  ~Object(){};

  void init(void);
  void start(void);
  void setSpeed(int8_t speed) { m_MoveSpeed = speed; }
    3570:	0f 2e       	mov	r0, r31
    3572:	f7 e0       	ldi	r31, 0x07	; 7
    3574:	bf 2e       	mov	r11, r31
    3576:	f0 2d       	mov	r31, r0
  ~Player(){};

  void init(void);
  void start(void);
  void setSpeed(int8_t speed) { m_JumpSpeed = speed; }
    3578:	68 94       	set
    357a:	aa 24       	eor	r10, r10
    357c:	a3 f8       	bld	r10, 3

  while (1)
  {

    star1.start();
    357e:	ce 01       	movw	r24, r28
    3580:	8b 5a       	subi	r24, 0xAB	; 171
    3582:	9f 4f       	sbci	r25, 0xFF	; 255
    3584:	0e 94 c1 24 	call	0x4982	; 0x4982 <_ZN6Object5startEv>
    star2.start();
    3588:	ce 01       	movw	r24, r28
    358a:	83 59       	subi	r24, 0x93	; 147
    358c:	9f 4f       	sbci	r25, 0xFF	; 255
    358e:	0e 94 c1 24 	call	0x4982	; 0x4982 <_ZN6Object5startEv>
    star3.start();
    3592:	ce 01       	movw	r24, r28
    3594:	8b 57       	subi	r24, 0x7B	; 123
    3596:	9f 4f       	sbci	r25, 0xFF	; 255
    3598:	0e 94 c1 24 	call	0x4982	; 0x4982 <_ZN6Object5startEv>

    if (m_IsHighSpeed == false && Frame::scoreTime < 5)
    359c:	f4 01       	movw	r30, r8
    359e:	82 89       	ldd	r24, Z+18	; 0x12
    35a0:	81 11       	cpse	r24, r1
    35a2:	14 c0       	rjmp	.+40     	; 0x35cc <_ZN4Game9startLoopEv+0x276>
    35a4:	80 91 39 02 	lds	r24, 0x0239	; 0x800239 <_ZN5Frame9scoreTimeE>
    35a8:	90 91 3a 02 	lds	r25, 0x023A	; 0x80023a <_ZN5Frame9scoreTimeE+0x1>
    35ac:	05 97       	sbiw	r24, 0x05	; 5
    35ae:	28 f4       	brcc	.+10     	; 0x35ba <_ZN4Game9startLoopEv+0x264>
    {
      block1.start();
    35b0:	ce 01       	movw	r24, r28
    35b2:	0d 96       	adiw	r24, 0x0d	; 13
    35b4:	0e 94 c1 24 	call	0x4982	; 0x4982 <_ZN6Object5startEv>
    35b8:	15 c0       	rjmp	.+42     	; 0x35e4 <_ZN4Game9startLoopEv+0x28e>
    }

    else if (m_IsHighSpeed == false)
    {
      block1.start();
    35ba:	ce 01       	movw	r24, r28
    35bc:	0d 96       	adiw	r24, 0x0d	; 13
    35be:	0e 94 c1 24 	call	0x4982	; 0x4982 <_ZN6Object5startEv>
      block2.start();
    35c2:	ce 01       	movw	r24, r28
    35c4:	85 96       	adiw	r24, 0x25	; 37
    35c6:	0e 94 c1 24 	call	0x4982	; 0x4982 <_ZN6Object5startEv>
    35ca:	0c c0       	rjmp	.+24     	; 0x35e4 <_ZN4Game9startLoopEv+0x28e>
    }

    else
    {
      block1.start();
    35cc:	ce 01       	movw	r24, r28
    35ce:	0d 96       	adiw	r24, 0x0d	; 13
    35d0:	0e 94 c1 24 	call	0x4982	; 0x4982 <_ZN6Object5startEv>
      block2.start();
    35d4:	ce 01       	movw	r24, r28
    35d6:	85 96       	adiw	r24, 0x25	; 37
    35d8:	0e 94 c1 24 	call	0x4982	; 0x4982 <_ZN6Object5startEv>
      block3.start();
    35dc:	ce 01       	movw	r24, r28
    35de:	cd 96       	adiw	r24, 0x3d	; 61
    35e0:	0e 94 c1 24 	call	0x4982	; 0x4982 <_ZN6Object5startEv>
    }

    if (m_IsReset == false)
    35e4:	f4 01       	movw	r30, r8
    35e6:	80 89       	ldd	r24, Z+16	; 0x10
    35e8:	81 11       	cpse	r24, r1
    35ea:	63 c0       	rjmp	.+198    	; 0x36b2 <_ZN4Game9startLoopEv+0x35c>
    {
      if (m_ScoreTemp >= 200 && m_ScoreTemp < 211)
    35ec:	84 85       	ldd	r24, Z+12	; 0x0c
    35ee:	95 85       	ldd	r25, Z+13	; 0x0d
    35f0:	9c 01       	movw	r18, r24
    35f2:	28 5c       	subi	r18, 0xC8	; 200
    35f4:	31 09       	sbc	r19, r1
    35f6:	2b 30       	cpi	r18, 0x0B	; 11
    35f8:	31 05       	cpc	r19, r1
    35fa:	90 f4       	brcc	.+36     	; 0x3620 <_ZN4Game9startLoopEv+0x2ca>
      {
        print(120, 40, "Speed+");
    35fc:	2a ea       	ldi	r18, 0xAA	; 170
    35fe:	31 e0       	ldi	r19, 0x01	; 1
    3600:	48 e2       	ldi	r20, 0x28	; 40
    3602:	50 e0       	ldi	r21, 0x00	; 0
    3604:	68 e7       	ldi	r22, 0x78	; 120
    3606:	70 e0       	ldi	r23, 0x00	; 0
    3608:	86 2d       	mov	r24, r6
    360a:	97 2d       	mov	r25, r7
    360c:	0e 94 1f 14 	call	0x283e	; 0x283e <_ZN4Font5printEiiPKc>
    3610:	84 e0       	ldi	r24, 0x04	; 4
    3612:	8a 8f       	std	Y+26, r24	; 0x1a
    3614:	8a ab       	std	Y+50, r24	; 0x32
        block1.setSpeed(4);
        block2.setSpeed(4);

        m_IsReset = true;
    3616:	81 e0       	ldi	r24, 0x01	; 1
    3618:	f4 01       	movw	r30, r8
    361a:	80 8b       	std	Z+16, r24	; 0x10
        m_IsDrawed = true;
    361c:	83 8b       	std	Z+19, r24	; 0x13
    361e:	49 c0       	rjmp	.+146    	; 0x36b2 <_ZN4Game9startLoopEv+0x35c>
      }

      else if (m_ScoreTemp >= 400 && m_ScoreTemp < 411)
    3620:	9c 01       	movw	r18, r24
    3622:	20 59       	subi	r18, 0x90	; 144
    3624:	31 40       	sbci	r19, 0x01	; 1
    3626:	2b 30       	cpi	r18, 0x0B	; 11
    3628:	31 05       	cpc	r19, r1
    362a:	90 f4       	brcc	.+36     	; 0x3650 <_ZN4Game9startLoopEv+0x2fa>
      {
        print(120, 40, "Speed+");
    362c:	2a ea       	ldi	r18, 0xAA	; 170
    362e:	31 e0       	ldi	r19, 0x01	; 1
    3630:	48 e2       	ldi	r20, 0x28	; 40
    3632:	50 e0       	ldi	r21, 0x00	; 0
    3634:	68 e7       	ldi	r22, 0x78	; 120
    3636:	70 e0       	ldi	r23, 0x00	; 0
    3638:	86 2d       	mov	r24, r6
    363a:	97 2d       	mov	r25, r7
    363c:	0e 94 1f 14 	call	0x283e	; 0x283e <_ZN4Font5printEiiPKc>
    3640:	85 e0       	ldi	r24, 0x05	; 5
    3642:	8a 8f       	std	Y+26, r24	; 0x1a
    3644:	8a ab       	std	Y+50, r24	; 0x32
        block1.setSpeed(5);
        block2.setSpeed(5);

        m_IsReset = true;
    3646:	81 e0       	ldi	r24, 0x01	; 1
    3648:	f4 01       	movw	r30, r8
    364a:	80 8b       	std	Z+16, r24	; 0x10
        m_IsDrawed = true;
    364c:	83 8b       	std	Z+19, r24	; 0x13
    364e:	31 c0       	rjmp	.+98     	; 0x36b2 <_ZN4Game9startLoopEv+0x35c>
      }

      else if (m_ScoreTemp >= 600 && m_ScoreTemp < 611)
    3650:	9c 01       	movw	r18, r24
    3652:	28 55       	subi	r18, 0x58	; 88
    3654:	32 40       	sbci	r19, 0x02	; 2
    3656:	2b 30       	cpi	r18, 0x0B	; 11
    3658:	31 05       	cpc	r19, r1
    365a:	90 f4       	brcc	.+36     	; 0x3680 <_ZN4Game9startLoopEv+0x32a>
      {
        print(120, 40, "Speed+");
    365c:	2a ea       	ldi	r18, 0xAA	; 170
    365e:	31 e0       	ldi	r19, 0x01	; 1
    3660:	48 e2       	ldi	r20, 0x28	; 40
    3662:	50 e0       	ldi	r21, 0x00	; 0
    3664:	68 e7       	ldi	r22, 0x78	; 120
    3666:	70 e0       	ldi	r23, 0x00	; 0
    3668:	86 2d       	mov	r24, r6
    366a:	97 2d       	mov	r25, r7
    366c:	0e 94 1f 14 	call	0x283e	; 0x283e <_ZN4Font5printEiiPKc>
    3670:	86 e0       	ldi	r24, 0x06	; 6
    3672:	8a 8f       	std	Y+26, r24	; 0x1a
    3674:	8a ab       	std	Y+50, r24	; 0x32
        block1.setSpeed(6);
        block2.setSpeed(6);

        m_IsReset = true;
    3676:	81 e0       	ldi	r24, 0x01	; 1
    3678:	f4 01       	movw	r30, r8
    367a:	80 8b       	std	Z+16, r24	; 0x10
        m_IsDrawed = true;
    367c:	83 8b       	std	Z+19, r24	; 0x13
    367e:	19 c0       	rjmp	.+50     	; 0x36b2 <_ZN4Game9startLoopEv+0x35c>
      }

      else if (m_ScoreTemp >= 1000 && m_ScoreTemp < 1011)
    3680:	88 5e       	subi	r24, 0xE8	; 232
    3682:	93 40       	sbci	r25, 0x03	; 3
    3684:	0b 97       	sbiw	r24, 0x0b	; 11
    3686:	a8 f4       	brcc	.+42     	; 0x36b2 <_ZN4Game9startLoopEv+0x35c>
      {
        print(120, 40, "Block+");
    3688:	21 eb       	ldi	r18, 0xB1	; 177
    368a:	31 e0       	ldi	r19, 0x01	; 1
    368c:	48 e2       	ldi	r20, 0x28	; 40
    368e:	50 e0       	ldi	r21, 0x00	; 0
    3690:	68 e7       	ldi	r22, 0x78	; 120
    3692:	70 e0       	ldi	r23, 0x00	; 0
    3694:	86 2d       	mov	r24, r6
    3696:	97 2d       	mov	r25, r7
    3698:	0e 94 1f 14 	call	0x283e	; 0x283e <_ZN4Font5printEiiPKc>
    369c:	ba 8e       	std	Y+26, r11	; 0x1a
    369e:	ba aa       	std	Y+50, r11	; 0x32
    36a0:	2b 96       	adiw	r28, 0x0b	; 11
    36a2:	bf ae       	std	Y+63, r11	; 0x3f
    36a4:	2b 97       	sbiw	r28, 0x0b	; 11
    36a6:	af 82       	std	Y+7, r10	; 0x07
        block1.setSpeed(7);
        block2.setSpeed(7);
        block3.setSpeed(7);
        user.setSpeed(8);

        m_IsReset = true;
    36a8:	81 e0       	ldi	r24, 0x01	; 1
    36aa:	f4 01       	movw	r30, r8
    36ac:	80 8b       	std	Z+16, r24	; 0x10
        m_IsHighSpeed = true;
    36ae:	82 8b       	std	Z+18, r24	; 0x12
        m_IsDrawed = true;
    36b0:	83 8b       	std	Z+19, r24	; 0x13
      block1.setSpeed(6);
      block2.setSpeed(6);
    }
    */

    if (m_ScoreTemp != Frame::scoreTime)
    36b2:	00 91 39 02 	lds	r16, 0x0239	; 0x800239 <_ZN5Frame9scoreTimeE>
    36b6:	10 91 3a 02 	lds	r17, 0x023A	; 0x80023a <_ZN5Frame9scoreTimeE+0x1>
    36ba:	f4 01       	movw	r30, r8
    36bc:	84 85       	ldd	r24, Z+12	; 0x0c
    36be:	95 85       	ldd	r25, Z+13	; 0x0d
    36c0:	80 17       	cp	r24, r16
    36c2:	91 07       	cpc	r25, r17
    36c4:	09 f4       	brne	.+2      	; 0x36c8 <_ZN4Game9startLoopEv+0x372>
    36c6:	41 c0       	rjmp	.+130    	; 0x374a <_ZN4Game9startLoopEv+0x3f4>
    {
      m_ScoreTemp = Frame::scoreTime;
    36c8:	15 87       	std	Z+13, r17	; 0x0d
    36ca:	04 87       	std	Z+12, r16	; 0x0c
      print(120, 16, Frame::scoreTime);
    36cc:	20 e0       	ldi	r18, 0x00	; 0
    36ce:	30 e0       	ldi	r19, 0x00	; 0
    36d0:	40 e1       	ldi	r20, 0x10	; 16
    36d2:	50 e0       	ldi	r21, 0x00	; 0
    36d4:	68 e7       	ldi	r22, 0x78	; 120
    36d6:	70 e0       	ldi	r23, 0x00	; 0
    36d8:	86 2d       	mov	r24, r6
    36da:	97 2d       	mov	r25, r7
    36dc:	0e 94 45 14 	call	0x288a	; 0x288a <_ZN4Font5printEiim>
      SW::start = OFF;
    36e0:	10 92 3c 02 	sts	0x023C, r1	; 0x80023c <_ZN2SW5startE>

      if (m_IsDrawed == true)
    36e4:	f4 01       	movw	r30, r8
    36e6:	83 89       	ldd	r24, Z+19	; 0x13
    36e8:	88 23       	and	r24, r24
    36ea:	79 f1       	breq	.+94     	; 0x374a <_ZN4Game9startLoopEv+0x3f4>
      {
        m_Temp ++;
    36ec:	83 85       	ldd	r24, Z+11	; 0x0b
    36ee:	8f 5f       	subi	r24, 0xFF	; 255
    36f0:	83 87       	std	Z+11, r24	; 0x0b

        if (m_IsReset == false && m_Temp > 5)
    36f2:	90 89       	ldd	r25, Z+16	; 0x10
    36f4:	91 11       	cpse	r25, r1
    36f6:	14 c0       	rjmp	.+40     	; 0x3720 <_ZN4Game9startLoopEv+0x3ca>
    36f8:	86 30       	cpi	r24, 0x06	; 6
    36fa:	3c f1       	brlt	.+78     	; 0x374a <_ZN4Game9startLoopEv+0x3f4>
        {
          m_Temp = 0;
    36fc:	13 86       	std	Z+11, r1	; 0x0b
          clear(120, 40, 96, 16, BLACK);
    36fe:	e1 2c       	mov	r14, r1
    3700:	f1 2c       	mov	r15, r1
    3702:	00 e1       	ldi	r16, 0x10	; 16
    3704:	10 e0       	ldi	r17, 0x00	; 0
    3706:	20 e6       	ldi	r18, 0x60	; 96
    3708:	30 e0       	ldi	r19, 0x00	; 0
    370a:	48 e2       	ldi	r20, 0x28	; 40
    370c:	50 e0       	ldi	r21, 0x00	; 0
    370e:	68 e7       	ldi	r22, 0x78	; 120
    3710:	70 e0       	ldi	r23, 0x00	; 0
    3712:	86 2d       	mov	r24, r6
    3714:	97 2d       	mov	r25, r7
    3716:	0e 94 67 28 	call	0x50ce	; 0x50ce <_ZN3TFT5clearEiiiij>
          m_IsDrawed = false;
    371a:	f4 01       	movw	r30, r8
    371c:	13 8a       	std	Z+19, r1	; 0x13
    371e:	15 c0       	rjmp	.+42     	; 0x374a <_ZN4Game9startLoopEv+0x3f4>
        }

        else if (m_IsReset == true && m_Temp > 10)
    3720:	8b 30       	cpi	r24, 0x0B	; 11
    3722:	9c f0       	brlt	.+38     	; 0x374a <_ZN4Game9startLoopEv+0x3f4>
        {
          m_Temp = 0;
    3724:	f4 01       	movw	r30, r8
    3726:	13 86       	std	Z+11, r1	; 0x0b
          clear(120, 40, 96, 16, BLACK);
    3728:	e1 2c       	mov	r14, r1
    372a:	f1 2c       	mov	r15, r1
    372c:	00 e1       	ldi	r16, 0x10	; 16
    372e:	10 e0       	ldi	r17, 0x00	; 0
    3730:	20 e6       	ldi	r18, 0x60	; 96
    3732:	30 e0       	ldi	r19, 0x00	; 0
    3734:	48 e2       	ldi	r20, 0x28	; 40
    3736:	50 e0       	ldi	r21, 0x00	; 0
    3738:	68 e7       	ldi	r22, 0x78	; 120
    373a:	70 e0       	ldi	r23, 0x00	; 0
    373c:	86 2d       	mov	r24, r6
    373e:	97 2d       	mov	r25, r7
    3740:	0e 94 67 28 	call	0x50ce	; 0x50ce <_ZN3TFT5clearEiiiij>
          m_IsReset = false;
    3744:	f4 01       	movw	r30, r8
    3746:	10 8a       	std	Z+16, r1	; 0x10
          m_IsDrawed = false;
    3748:	13 8a       	std	Z+19, r1	; 0x13
        }
      }
    }

    if (user.isJump == false)
    374a:	8c 85       	ldd	r24, Y+12	; 0x0c
    374c:	81 11       	cpse	r24, r1
    374e:	0a c1       	rjmp	.+532    	; 0x3964 <_ZN4Game9startLoopEv+0x60e>
    {
      if (block1.xPosition < 75 && block1.xPosition > 40)
    3750:	89 a1       	ldd	r24, Y+33	; 0x21
    3752:	9a a1       	ldd	r25, Y+34	; 0x22
    3754:	89 97       	sbiw	r24, 0x29	; 41
    3756:	82 97       	sbiw	r24, 0x22	; 34
    3758:	08 f0       	brcs	.+2      	; 0x375c <_ZN4Game9startLoopEv+0x406>
    375a:	50 c0       	rjmp	.+160    	; 0x37fc <_ZN4Game9startLoopEv+0x4a6>
      {
        if (block1.isPresent == true)
    375c:	8c a1       	ldd	r24, Y+36	; 0x24
    375e:	88 23       	and	r24, r24
    3760:	b9 f1       	breq	.+110    	; 0x37d0 <_ZN4Game9startLoopEv+0x47a>
        {
          clear(80, 160, 20, 20, BLACK);
    3762:	e1 2c       	mov	r14, r1
    3764:	f1 2c       	mov	r15, r1
    3766:	04 e1       	ldi	r16, 0x14	; 20
    3768:	10 e0       	ldi	r17, 0x00	; 0
    376a:	24 e1       	ldi	r18, 0x14	; 20
    376c:	30 e0       	ldi	r19, 0x00	; 0
    376e:	40 ea       	ldi	r20, 0xA0	; 160
    3770:	50 e0       	ldi	r21, 0x00	; 0
    3772:	60 e5       	ldi	r22, 0x50	; 80
    3774:	70 e0       	ldi	r23, 0x00	; 0
    3776:	86 2d       	mov	r24, r6
    3778:	97 2d       	mov	r25, r7
    377a:	0e 94 67 28 	call	0x50ce	; 0x50ce <_ZN3TFT5clearEiiiij>
          clear(120, 40, 96, 16, BLACK);
    377e:	00 e1       	ldi	r16, 0x10	; 16
    3780:	10 e0       	ldi	r17, 0x00	; 0
    3782:	20 e6       	ldi	r18, 0x60	; 96
    3784:	30 e0       	ldi	r19, 0x00	; 0
    3786:	48 e2       	ldi	r20, 0x28	; 40
    3788:	50 e0       	ldi	r21, 0x00	; 0
    378a:	68 e7       	ldi	r22, 0x78	; 120
    378c:	70 e0       	ldi	r23, 0x00	; 0
    378e:	86 2d       	mov	r24, r6
    3790:	97 2d       	mov	r25, r7
    3792:	0e 94 67 28 	call	0x50ce	; 0x50ce <_ZN3TFT5clearEiiiij>
          print(120, 40, "+10");
    3796:	28 eb       	ldi	r18, 0xB8	; 184
    3798:	31 e0       	ldi	r19, 0x01	; 1
    379a:	48 e2       	ldi	r20, 0x28	; 40
    379c:	50 e0       	ldi	r21, 0x00	; 0
    379e:	68 e7       	ldi	r22, 0x78	; 120
    37a0:	70 e0       	ldi	r23, 0x00	; 0
    37a2:	86 2d       	mov	r24, r6
    37a4:	97 2d       	mov	r25, r7
    37a6:	0e 94 1f 14 	call	0x283e	; 0x283e <_ZN4Font5printEiiPKc>
          Frame::scoreTime += 10;
    37aa:	80 91 39 02 	lds	r24, 0x0239	; 0x800239 <_ZN5Frame9scoreTimeE>
    37ae:	90 91 3a 02 	lds	r25, 0x023A	; 0x80023a <_ZN5Frame9scoreTimeE+0x1>
    37b2:	0a 96       	adiw	r24, 0x0a	; 10
    37b4:	90 93 3a 02 	sts	0x023A, r25	; 0x80023a <_ZN5Frame9scoreTimeE+0x1>
    37b8:	80 93 39 02 	sts	0x0239, r24	; 0x800239 <_ZN5Frame9scoreTimeE>
          m_IsDrawed = true;
    37bc:	81 e0       	ldi	r24, 0x01	; 1
    37be:	f4 01       	movw	r30, r8
    37c0:	83 8b       	std	Z+19, r24	; 0x13

          block1.isRolling = false;
    37c2:	1b a2       	std	Y+35, r1	; 0x23
          block1.isPresent = false;
    37c4:	1c a2       	std	Y+36, r1	; 0x24
          block1.init();
    37c6:	ce 01       	movw	r24, r28
    37c8:	0d 96       	adiw	r24, 0x0d	; 13
    37ca:	0e 94 80 24 	call	0x4900	; 0x4900 <_ZN6Object4initEv>
    37ce:	16 c0       	rjmp	.+44     	; 0x37fc <_ZN4Game9startLoopEv+0x4a6>
        }

        else
        {
          print(90, 100, "GAME OVER");
    37d0:	2c eb       	ldi	r18, 0xBC	; 188
    37d2:	31 e0       	ldi	r19, 0x01	; 1
    37d4:	44 e6       	ldi	r20, 0x64	; 100
    37d6:	50 e0       	ldi	r21, 0x00	; 0
    37d8:	6a e5       	ldi	r22, 0x5A	; 90
    37da:	70 e0       	ldi	r23, 0x00	; 0
    37dc:	c4 01       	movw	r24, r8
    37de:	0e 94 1f 14 	call	0x283e	; 0x283e <_ZN4Font5printEiiPKc>
    37e2:	ff ef       	ldi	r31, 0xFF	; 255
    37e4:	27 ea       	ldi	r18, 0xA7	; 167
    37e6:	81 e6       	ldi	r24, 0x61	; 97
    37e8:	f1 50       	subi	r31, 0x01	; 1
    37ea:	20 40       	sbci	r18, 0x00	; 0
    37ec:	80 40       	sbci	r24, 0x00	; 0
    37ee:	e1 f7       	brne	.-8      	; 0x37e8 <_ZN4Game9startLoopEv+0x492>
    37f0:	00 c0       	rjmp	.+0      	; 0x37f2 <_ZN4Game9startLoopEv+0x49c>
    37f2:	00 00       	nop
          _delay_ms(2000);
          m_IsReset = true;
    37f4:	81 e0       	ldi	r24, 0x01	; 1
    37f6:	f4 01       	movw	r30, r8
    37f8:	80 8b       	std	Z+16, r24	; 0x10
          return;
    37fa:	17 c1       	rjmp	.+558    	; 0x3a2a <_ZN4Game9startLoopEv+0x6d4>
        }
      }

      if (block2.xPosition < 75 && block2.xPosition > 40)
    37fc:	89 ad       	ldd	r24, Y+57	; 0x39
    37fe:	9a ad       	ldd	r25, Y+58	; 0x3a
    3800:	89 97       	sbiw	r24, 0x29	; 41
    3802:	82 97       	sbiw	r24, 0x22	; 34
    3804:	08 f0       	brcs	.+2      	; 0x3808 <_ZN4Game9startLoopEv+0x4b2>
    3806:	50 c0       	rjmp	.+160    	; 0x38a8 <_ZN4Game9startLoopEv+0x552>
      {
        if (block2.isPresent == true)
    3808:	8c ad       	ldd	r24, Y+60	; 0x3c
    380a:	88 23       	and	r24, r24
    380c:	b9 f1       	breq	.+110    	; 0x387c <_ZN4Game9startLoopEv+0x526>
        {
          clear(80, 160, 20, 20, BLACK);
    380e:	e1 2c       	mov	r14, r1
    3810:	f1 2c       	mov	r15, r1
    3812:	04 e1       	ldi	r16, 0x14	; 20
    3814:	10 e0       	ldi	r17, 0x00	; 0
    3816:	24 e1       	ldi	r18, 0x14	; 20
    3818:	30 e0       	ldi	r19, 0x00	; 0
    381a:	40 ea       	ldi	r20, 0xA0	; 160
    381c:	50 e0       	ldi	r21, 0x00	; 0
    381e:	60 e5       	ldi	r22, 0x50	; 80
    3820:	70 e0       	ldi	r23, 0x00	; 0
    3822:	86 2d       	mov	r24, r6
    3824:	97 2d       	mov	r25, r7
    3826:	0e 94 67 28 	call	0x50ce	; 0x50ce <_ZN3TFT5clearEiiiij>
          clear(120, 40, 96, 16, BLACK);
    382a:	00 e1       	ldi	r16, 0x10	; 16
    382c:	10 e0       	ldi	r17, 0x00	; 0
    382e:	20 e6       	ldi	r18, 0x60	; 96
    3830:	30 e0       	ldi	r19, 0x00	; 0
    3832:	48 e2       	ldi	r20, 0x28	; 40
    3834:	50 e0       	ldi	r21, 0x00	; 0
    3836:	68 e7       	ldi	r22, 0x78	; 120
    3838:	70 e0       	ldi	r23, 0x00	; 0
    383a:	86 2d       	mov	r24, r6
    383c:	97 2d       	mov	r25, r7
    383e:	0e 94 67 28 	call	0x50ce	; 0x50ce <_ZN3TFT5clearEiiiij>
          print(120, 40, "+10");
    3842:	28 eb       	ldi	r18, 0xB8	; 184
    3844:	31 e0       	ldi	r19, 0x01	; 1
    3846:	48 e2       	ldi	r20, 0x28	; 40
    3848:	50 e0       	ldi	r21, 0x00	; 0
    384a:	68 e7       	ldi	r22, 0x78	; 120
    384c:	70 e0       	ldi	r23, 0x00	; 0
    384e:	86 2d       	mov	r24, r6
    3850:	97 2d       	mov	r25, r7
    3852:	0e 94 1f 14 	call	0x283e	; 0x283e <_ZN4Font5printEiiPKc>
          Frame::scoreTime += 10;
    3856:	80 91 39 02 	lds	r24, 0x0239	; 0x800239 <_ZN5Frame9scoreTimeE>
    385a:	90 91 3a 02 	lds	r25, 0x023A	; 0x80023a <_ZN5Frame9scoreTimeE+0x1>
    385e:	0a 96       	adiw	r24, 0x0a	; 10
    3860:	90 93 3a 02 	sts	0x023A, r25	; 0x80023a <_ZN5Frame9scoreTimeE+0x1>
    3864:	80 93 39 02 	sts	0x0239, r24	; 0x800239 <_ZN5Frame9scoreTimeE>
          m_IsDrawed = true;
    3868:	81 e0       	ldi	r24, 0x01	; 1
    386a:	f4 01       	movw	r30, r8
    386c:	83 8b       	std	Z+19, r24	; 0x13

          block2.isRolling = false;
    386e:	1b ae       	std	Y+59, r1	; 0x3b
          block2.isPresent = false;
    3870:	1c ae       	std	Y+60, r1	; 0x3c
          block2.init();
    3872:	ce 01       	movw	r24, r28
    3874:	85 96       	adiw	r24, 0x25	; 37
    3876:	0e 94 80 24 	call	0x4900	; 0x4900 <_ZN6Object4initEv>
    387a:	16 c0       	rjmp	.+44     	; 0x38a8 <_ZN4Game9startLoopEv+0x552>
        }

        else
        {
          print(90, 100, "GAME OVER");
    387c:	2c eb       	ldi	r18, 0xBC	; 188
    387e:	31 e0       	ldi	r19, 0x01	; 1
    3880:	44 e6       	ldi	r20, 0x64	; 100
    3882:	50 e0       	ldi	r21, 0x00	; 0
    3884:	6a e5       	ldi	r22, 0x5A	; 90
    3886:	70 e0       	ldi	r23, 0x00	; 0
    3888:	c4 01       	movw	r24, r8
    388a:	0e 94 1f 14 	call	0x283e	; 0x283e <_ZN4Font5printEiiPKc>
    388e:	ff ef       	ldi	r31, 0xFF	; 255
    3890:	27 ea       	ldi	r18, 0xA7	; 167
    3892:	81 e6       	ldi	r24, 0x61	; 97
    3894:	f1 50       	subi	r31, 0x01	; 1
    3896:	20 40       	sbci	r18, 0x00	; 0
    3898:	80 40       	sbci	r24, 0x00	; 0
    389a:	e1 f7       	brne	.-8      	; 0x3894 <_ZN4Game9startLoopEv+0x53e>
    389c:	00 c0       	rjmp	.+0      	; 0x389e <_ZN4Game9startLoopEv+0x548>
    389e:	00 00       	nop
          _delay_ms(2000);
          m_IsReset = true;
    38a0:	81 e0       	ldi	r24, 0x01	; 1
    38a2:	f4 01       	movw	r30, r8
    38a4:	80 8b       	std	Z+16, r24	; 0x10
          return;
    38a6:	c1 c0       	rjmp	.+386    	; 0x3a2a <_ZN4Game9startLoopEv+0x6d4>
        }
      }

      if (block3.xPosition < 75 && block3.xPosition > 40)
    38a8:	63 96       	adiw	r28, 0x13	; 19
    38aa:	8e ad       	ldd	r24, Y+62	; 0x3e
    38ac:	9f ad       	ldd	r25, Y+63	; 0x3f
    38ae:	63 97       	sbiw	r28, 0x13	; 19
    38b0:	89 97       	sbiw	r24, 0x29	; 41
    38b2:	82 97       	sbiw	r24, 0x22	; 34
    38b4:	08 f0       	brcs	.+2      	; 0x38b8 <_ZN4Game9startLoopEv+0x562>
    38b6:	56 c0       	rjmp	.+172    	; 0x3964 <_ZN4Game9startLoopEv+0x60e>
      {
        if (block3.isPresent == true)
    38b8:	65 96       	adiw	r28, 0x15	; 21
    38ba:	8f ad       	ldd	r24, Y+63	; 0x3f
    38bc:	65 97       	sbiw	r28, 0x15	; 21
    38be:	88 23       	and	r24, r24
    38c0:	d9 f1       	breq	.+118    	; 0x3938 <_ZN4Game9startLoopEv+0x5e2>
        {
          clear(80, 160, 20, 20, BLACK);
    38c2:	e1 2c       	mov	r14, r1
    38c4:	f1 2c       	mov	r15, r1
    38c6:	04 e1       	ldi	r16, 0x14	; 20
    38c8:	10 e0       	ldi	r17, 0x00	; 0
    38ca:	24 e1       	ldi	r18, 0x14	; 20
    38cc:	30 e0       	ldi	r19, 0x00	; 0
    38ce:	40 ea       	ldi	r20, 0xA0	; 160
    38d0:	50 e0       	ldi	r21, 0x00	; 0
    38d2:	60 e5       	ldi	r22, 0x50	; 80
    38d4:	70 e0       	ldi	r23, 0x00	; 0
    38d6:	86 2d       	mov	r24, r6
    38d8:	97 2d       	mov	r25, r7
    38da:	0e 94 67 28 	call	0x50ce	; 0x50ce <_ZN3TFT5clearEiiiij>
          clear(120, 40, 96, 16, BLACK);
    38de:	00 e1       	ldi	r16, 0x10	; 16
    38e0:	10 e0       	ldi	r17, 0x00	; 0
    38e2:	20 e6       	ldi	r18, 0x60	; 96
    38e4:	30 e0       	ldi	r19, 0x00	; 0
    38e6:	48 e2       	ldi	r20, 0x28	; 40
    38e8:	50 e0       	ldi	r21, 0x00	; 0
    38ea:	68 e7       	ldi	r22, 0x78	; 120
    38ec:	70 e0       	ldi	r23, 0x00	; 0
    38ee:	86 2d       	mov	r24, r6
    38f0:	97 2d       	mov	r25, r7
    38f2:	0e 94 67 28 	call	0x50ce	; 0x50ce <_ZN3TFT5clearEiiiij>
          print(120, 40, "+10");
    38f6:	28 eb       	ldi	r18, 0xB8	; 184
    38f8:	31 e0       	ldi	r19, 0x01	; 1
    38fa:	48 e2       	ldi	r20, 0x28	; 40
    38fc:	50 e0       	ldi	r21, 0x00	; 0
    38fe:	68 e7       	ldi	r22, 0x78	; 120
    3900:	70 e0       	ldi	r23, 0x00	; 0
    3902:	86 2d       	mov	r24, r6
    3904:	97 2d       	mov	r25, r7
    3906:	0e 94 1f 14 	call	0x283e	; 0x283e <_ZN4Font5printEiiPKc>
          Frame::scoreTime += 10;
    390a:	80 91 39 02 	lds	r24, 0x0239	; 0x800239 <_ZN5Frame9scoreTimeE>
    390e:	90 91 3a 02 	lds	r25, 0x023A	; 0x80023a <_ZN5Frame9scoreTimeE+0x1>
    3912:	0a 96       	adiw	r24, 0x0a	; 10
    3914:	90 93 3a 02 	sts	0x023A, r25	; 0x80023a <_ZN5Frame9scoreTimeE+0x1>
    3918:	80 93 39 02 	sts	0x0239, r24	; 0x800239 <_ZN5Frame9scoreTimeE>
          m_IsDrawed = true;
    391c:	81 e0       	ldi	r24, 0x01	; 1
    391e:	f4 01       	movw	r30, r8
    3920:	83 8b       	std	Z+19, r24	; 0x13

          block3.isRolling = false;
    3922:	64 96       	adiw	r28, 0x14	; 20
    3924:	1f ae       	std	Y+63, r1	; 0x3f
    3926:	64 97       	sbiw	r28, 0x14	; 20
          block3.isPresent = false;
    3928:	65 96       	adiw	r28, 0x15	; 21
    392a:	1f ae       	std	Y+63, r1	; 0x3f
    392c:	65 97       	sbiw	r28, 0x15	; 21
          block3.init();
    392e:	ce 01       	movw	r24, r28
    3930:	cd 96       	adiw	r24, 0x3d	; 61
    3932:	0e 94 80 24 	call	0x4900	; 0x4900 <_ZN6Object4initEv>
    3936:	16 c0       	rjmp	.+44     	; 0x3964 <_ZN4Game9startLoopEv+0x60e>
        }

        else
        {
          print(90, 100, "GAME OVER");
    3938:	2c eb       	ldi	r18, 0xBC	; 188
    393a:	31 e0       	ldi	r19, 0x01	; 1
    393c:	44 e6       	ldi	r20, 0x64	; 100
    393e:	50 e0       	ldi	r21, 0x00	; 0
    3940:	6a e5       	ldi	r22, 0x5A	; 90
    3942:	70 e0       	ldi	r23, 0x00	; 0
    3944:	c4 01       	movw	r24, r8
    3946:	0e 94 1f 14 	call	0x283e	; 0x283e <_ZN4Font5printEiiPKc>
    394a:	ff ef       	ldi	r31, 0xFF	; 255
    394c:	27 ea       	ldi	r18, 0xA7	; 167
    394e:	81 e6       	ldi	r24, 0x61	; 97
    3950:	f1 50       	subi	r31, 0x01	; 1
    3952:	20 40       	sbci	r18, 0x00	; 0
    3954:	80 40       	sbci	r24, 0x00	; 0
    3956:	e1 f7       	brne	.-8      	; 0x3950 <_ZN4Game9startLoopEv+0x5fa>
    3958:	00 c0       	rjmp	.+0      	; 0x395a <_ZN4Game9startLoopEv+0x604>
    395a:	00 00       	nop
          _delay_ms(2000);
          m_IsReset = true;
    395c:	81 e0       	ldi	r24, 0x01	; 1
    395e:	f4 01       	movw	r30, r8
    3960:	80 8b       	std	Z+16, r24	; 0x10
          return;
    3962:	63 c0       	rjmp	.+198    	; 0x3a2a <_ZN4Game9startLoopEv+0x6d4>
        }
      }
    }

    if (SW::select == OFF)
    3964:	80 91 3b 02 	lds	r24, 0x023B	; 0x80023b <_ZN2SW6selectE>
    3968:	81 11       	cpse	r24, r1
    396a:	07 c0       	rjmp	.+14     	; 0x397a <_ZN4Game9startLoopEv+0x624>
    {
      Frame::update();
    396c:	0e 94 ec 14 	call	0x29d8	; 0x29d8 <_ZN5Frame6updateEv>
      user.start();
    3970:	ce 01       	movw	r24, r28
    3972:	01 96       	adiw	r24, 0x01	; 1
    3974:	0e 94 59 26 	call	0x4cb2	; 0x4cb2 <_ZN6Player5startEv>
    3978:	02 ce       	rjmp	.-1020   	; 0x357e <_ZN4Game9startLoopEv+0x228>
    }

    else
    {
      print(120, 100, "Pause");
    397a:	26 ec       	ldi	r18, 0xC6	; 198
    397c:	31 e0       	ldi	r19, 0x01	; 1
    397e:	44 e6       	ldi	r20, 0x64	; 100
    3980:	50 e0       	ldi	r21, 0x00	; 0
    3982:	68 e7       	ldi	r22, 0x78	; 120
    3984:	70 e0       	ldi	r23, 0x00	; 0
    3986:	86 2d       	mov	r24, r6
    3988:	97 2d       	mov	r25, r7
    398a:	0e 94 1f 14 	call	0x283e	; 0x283e <_ZN4Font5printEiiPKc>

      if (SW::start == ON)
    398e:	80 91 3c 02 	lds	r24, 0x023C	; 0x80023c <_ZN2SW5startE>
    3992:	88 23       	and	r24, r24
    3994:	09 f4       	brne	.+2      	; 0x3998 <_ZN4Game9startLoopEv+0x642>
    3996:	f3 cd       	rjmp	.-1050   	; 0x357e <_ZN4Game9startLoopEv+0x228>
      {
        print(120, 100, "Ready");
    3998:	2c ec       	ldi	r18, 0xCC	; 204
    399a:	31 e0       	ldi	r19, 0x01	; 1
    399c:	44 e6       	ldi	r20, 0x64	; 100
    399e:	50 e0       	ldi	r21, 0x00	; 0
    39a0:	68 e7       	ldi	r22, 0x78	; 120
    39a2:	70 e0       	ldi	r23, 0x00	; 0
    39a4:	86 2d       	mov	r24, r6
    39a6:	97 2d       	mov	r25, r7
    39a8:	0e 94 1f 14 	call	0x283e	; 0x283e <_ZN4Font5printEiiPKc>
    39ac:	ff ef       	ldi	r31, 0xFF	; 255
    39ae:	2d e3       	ldi	r18, 0x3D	; 61
    39b0:	89 e4       	ldi	r24, 0x49	; 73
    39b2:	f1 50       	subi	r31, 0x01	; 1
    39b4:	20 40       	sbci	r18, 0x00	; 0
    39b6:	80 40       	sbci	r24, 0x00	; 0
    39b8:	e1 f7       	brne	.-8      	; 0x39b2 <_ZN4Game9startLoopEv+0x65c>
    39ba:	00 c0       	rjmp	.+0      	; 0x39bc <_ZN4Game9startLoopEv+0x666>
    39bc:	00 00       	nop
    39be:	0f 2e       	mov	r0, r31
    39c0:	f5 e0       	ldi	r31, 0x05	; 5
    39c2:	cf 2e       	mov	r12, r31
    39c4:	d1 2c       	mov	r13, r1
    39c6:	f0 2d       	mov	r31, r0
        _delay_ms(1500);

        for (int i=0; i<5; i++)
        {
          print(120, 100, "Start");
    39c8:	22 ed       	ldi	r18, 0xD2	; 210
    39ca:	31 e0       	ldi	r19, 0x01	; 1
    39cc:	44 e6       	ldi	r20, 0x64	; 100
    39ce:	50 e0       	ldi	r21, 0x00	; 0
    39d0:	68 e7       	ldi	r22, 0x78	; 120
    39d2:	70 e0       	ldi	r23, 0x00	; 0
    39d4:	86 2d       	mov	r24, r6
    39d6:	97 2d       	mov	r25, r7
    39d8:	0e 94 1f 14 	call	0x283e	; 0x283e <_ZN4Font5printEiiPKc>
    39dc:	9f ef       	ldi	r25, 0xFF	; 255
    39de:	e1 ee       	ldi	r30, 0xE1	; 225
    39e0:	f4 e0       	ldi	r31, 0x04	; 4
    39e2:	91 50       	subi	r25, 0x01	; 1
    39e4:	e0 40       	sbci	r30, 0x00	; 0
    39e6:	f0 40       	sbci	r31, 0x00	; 0
    39e8:	e1 f7       	brne	.-8      	; 0x39e2 <_ZN4Game9startLoopEv+0x68c>
    39ea:	00 c0       	rjmp	.+0      	; 0x39ec <_ZN4Game9startLoopEv+0x696>
    39ec:	00 00       	nop
          _delay_ms(100);
          clear(120, 100, 80, 16, BLACK);
    39ee:	e1 2c       	mov	r14, r1
    39f0:	f1 2c       	mov	r15, r1
    39f2:	00 e1       	ldi	r16, 0x10	; 16
    39f4:	10 e0       	ldi	r17, 0x00	; 0
    39f6:	20 e5       	ldi	r18, 0x50	; 80
    39f8:	30 e0       	ldi	r19, 0x00	; 0
    39fa:	44 e6       	ldi	r20, 0x64	; 100
    39fc:	50 e0       	ldi	r21, 0x00	; 0
    39fe:	68 e7       	ldi	r22, 0x78	; 120
    3a00:	70 e0       	ldi	r23, 0x00	; 0
    3a02:	86 2d       	mov	r24, r6
    3a04:	97 2d       	mov	r25, r7
    3a06:	0e 94 67 28 	call	0x50ce	; 0x50ce <_ZN3TFT5clearEiiiij>
    3a0a:	2f ef       	ldi	r18, 0xFF	; 255
    3a0c:	81 ee       	ldi	r24, 0xE1	; 225
    3a0e:	94 e0       	ldi	r25, 0x04	; 4
    3a10:	21 50       	subi	r18, 0x01	; 1
    3a12:	80 40       	sbci	r24, 0x00	; 0
    3a14:	90 40       	sbci	r25, 0x00	; 0
    3a16:	e1 f7       	brne	.-8      	; 0x3a10 <_ZN4Game9startLoopEv+0x6ba>
    3a18:	00 c0       	rjmp	.+0      	; 0x3a1a <_ZN4Game9startLoopEv+0x6c4>
    3a1a:	00 00       	nop
    3a1c:	e1 e0       	ldi	r30, 0x01	; 1
    3a1e:	ce 1a       	sub	r12, r30
    3a20:	d1 08       	sbc	r13, r1
      if (SW::start == ON)
      {
        print(120, 100, "Ready");
        _delay_ms(1500);

        for (int i=0; i<5; i++)
    3a22:	91 f6       	brne	.-92     	; 0x39c8 <_ZN4Game9startLoopEv+0x672>
          _delay_ms(100);
          clear(120, 100, 80, 16, BLACK);
          _delay_ms(100);
        }

        SW::init();
    3a24:	0e 94 3c 27 	call	0x4e78	; 0x4e78 <_ZN2SW4initEv>
    3a28:	aa cd       	rjmp	.-1196   	; 0x357e <_ZN4Game9startLoopEv+0x228>
      }
    }

  }

}
    3a2a:	c4 56       	subi	r28, 0x64	; 100
    3a2c:	df 4f       	sbci	r29, 0xFF	; 255
    3a2e:	0f b6       	in	r0, 0x3f	; 63
    3a30:	f8 94       	cli
    3a32:	de bf       	out	0x3e, r29	; 62
    3a34:	0f be       	out	0x3f, r0	; 63
    3a36:	cd bf       	out	0x3d, r28	; 61
    3a38:	df 91       	pop	r29
    3a3a:	cf 91       	pop	r28
    3a3c:	1f 91       	pop	r17
    3a3e:	0f 91       	pop	r16
    3a40:	ff 90       	pop	r15
    3a42:	ef 90       	pop	r14
    3a44:	df 90       	pop	r13
    3a46:	cf 90       	pop	r12
    3a48:	bf 90       	pop	r11
    3a4a:	af 90       	pop	r10
    3a4c:	9f 90       	pop	r9
    3a4e:	8f 90       	pop	r8
    3a50:	7f 90       	pop	r7
    3a52:	6f 90       	pop	r6
    3a54:	08 95       	ret

00003a56 <_ZN4Game7endLoopEv>:
/*----------------------------------------//
              Game End Loop
//----------------------------------------*/

void Game::endLoop(void)
{
    3a56:	8f 92       	push	r8
    3a58:	9f 92       	push	r9
    3a5a:	af 92       	push	r10
    3a5c:	bf 92       	push	r11
    3a5e:	cf 92       	push	r12
    3a60:	df 92       	push	r13
    3a62:	ef 92       	push	r14
    3a64:	ff 92       	push	r15
    3a66:	0f 93       	push	r16
    3a68:	1f 93       	push	r17
    3a6a:	cf 93       	push	r28
    3a6c:	df 93       	push	r29
    3a6e:	ec 01       	movw	r28, r24

  clear(55, 20, 210, 200, BLACK);
    3a70:	c8 2e       	mov	r12, r24
    3a72:	dd 2e       	mov	r13, r29
    3a74:	e1 2c       	mov	r14, r1
    3a76:	f1 2c       	mov	r15, r1
    3a78:	08 ec       	ldi	r16, 0xC8	; 200
    3a7a:	10 e0       	ldi	r17, 0x00	; 0
    3a7c:	22 ed       	ldi	r18, 0xD2	; 210
    3a7e:	30 e0       	ldi	r19, 0x00	; 0
    3a80:	44 e1       	ldi	r20, 0x14	; 20
    3a82:	50 e0       	ldi	r21, 0x00	; 0
    3a84:	67 e3       	ldi	r22, 0x37	; 55
    3a86:	70 e0       	ldi	r23, 0x00	; 0
    3a88:	0e 94 67 28 	call	0x50ce	; 0x50ce <_ZN3TFT5clearEiiiij>
  print(80, 50, "Name Score");
    3a8c:	28 ed       	ldi	r18, 0xD8	; 216
    3a8e:	31 e0       	ldi	r19, 0x01	; 1
    3a90:	42 e3       	ldi	r20, 0x32	; 50
    3a92:	50 e0       	ldi	r21, 0x00	; 0
    3a94:	60 e5       	ldi	r22, 0x50	; 80
    3a96:	70 e0       	ldi	r23, 0x00	; 0
    3a98:	ce 01       	movw	r24, r28
    3a9a:	0e 94 1f 14 	call	0x283e	; 0x283e <_ZN4Font5printEiiPKc>
  print(166, 100, m_ScoreTemp);
    3a9e:	0c 85       	ldd	r16, Y+12	; 0x0c
    3aa0:	1d 85       	ldd	r17, Y+13	; 0x0d
    3aa2:	20 e0       	ldi	r18, 0x00	; 0
    3aa4:	30 e0       	ldi	r19, 0x00	; 0
    3aa6:	44 e6       	ldi	r20, 0x64	; 100
    3aa8:	50 e0       	ldi	r21, 0x00	; 0
    3aaa:	66 ea       	ldi	r22, 0xA6	; 166
    3aac:	70 e0       	ldi	r23, 0x00	; 0
    3aae:	ce 01       	movw	r24, r28
    3ab0:	0e 94 45 14 	call	0x288a	; 0x288a <_ZN4Font5printEiim>
  tempName1st = 0x41;
    3ab4:	81 e4       	ldi	r24, 0x41	; 65
    3ab6:	8a ab       	std	Y+50, r24	; 0x32
  tempName2nd = 0x41;
    3ab8:	8b ab       	std	Y+51, r24	; 0x33
  tempName3rd = 0x41;
    3aba:	8c ab       	std	Y+52, r24	; 0x34
  m_Temp = 0x41;
    3abc:	8b 87       	std	Y+11, r24	; 0x0b
      SW::right = OFF;
    }

    else if (SW::select == ON)
    {
      m_Temp = 0x41;
    3abe:	0f 2e       	mov	r0, r31
    3ac0:	f1 e4       	ldi	r31, 0x41	; 65
    3ac2:	9f 2e       	mov	r9, r31
    3ac4:	f0 2d       	mov	r31, r0
      m_Cursor += 1;

      if (m_Cursor > 3)
      {
        m_Cursor = 3;
    3ac6:	0f 2e       	mov	r0, r31
    3ac8:	f3 e0       	ldi	r31, 0x03	; 3
    3aca:	8f 2e       	mov	r8, r31
    3acc:	f0 2d       	mov	r31, r0
    {
      m_Temp += 1;

      if (m_Temp > 0x5A)
      {
        m_Temp = 0x20;
    3ace:	68 94       	set
    3ad0:	aa 24       	eor	r10, r10
    3ad2:	a5 f8       	bld	r10, 5
    {
      m_Temp -= 1;

      if (m_Temp < 0x20)
      {
        m_Temp = 0x5A;
    3ad4:	0f 2e       	mov	r0, r31
    3ad6:	fa e5       	ldi	r31, 0x5A	; 90
    3ad8:	bf 2e       	mov	r11, r31
    3ada:	f0 2d       	mov	r31, r0
  m_Temp = 0x41;

  while (1)
  {

    Frame::update();
    3adc:	0e 94 ec 14 	call	0x29d8	; 0x29d8 <_ZN5Frame6updateEv>

    printLetter(102, 100, tempName1st);
    3ae0:	2a a9       	ldd	r18, Y+50	; 0x32
    3ae2:	44 e6       	ldi	r20, 0x64	; 100
    3ae4:	50 e0       	ldi	r21, 0x00	; 0
    3ae6:	66 e6       	ldi	r22, 0x66	; 102
    3ae8:	70 e0       	ldi	r23, 0x00	; 0
    3aea:	8c 2d       	mov	r24, r12
    3aec:	9d 2d       	mov	r25, r13
    3aee:	0e 94 a6 13 	call	0x274c	; 0x274c <_ZN4Font11printLetterEiih>
    printLetter(118, 100, tempName2nd);
    3af2:	2b a9       	ldd	r18, Y+51	; 0x33
    3af4:	44 e6       	ldi	r20, 0x64	; 100
    3af6:	50 e0       	ldi	r21, 0x00	; 0
    3af8:	66 e7       	ldi	r22, 0x76	; 118
    3afa:	70 e0       	ldi	r23, 0x00	; 0
    3afc:	8c 2d       	mov	r24, r12
    3afe:	9d 2d       	mov	r25, r13
    3b00:	0e 94 a6 13 	call	0x274c	; 0x274c <_ZN4Font11printLetterEiih>
    printLetter(134, 100, tempName3rd);
    3b04:	2c a9       	ldd	r18, Y+52	; 0x34
    3b06:	44 e6       	ldi	r20, 0x64	; 100
    3b08:	50 e0       	ldi	r21, 0x00	; 0
    3b0a:	66 e8       	ldi	r22, 0x86	; 134
    3b0c:	70 e0       	ldi	r23, 0x00	; 0
    3b0e:	8c 2d       	mov	r24, r12
    3b10:	9d 2d       	mov	r25, r13
    3b12:	0e 94 a6 13 	call	0x274c	; 0x274c <_ZN4Font11printLetterEiih>

    if (SW::left == ON)
    3b16:	80 91 3e 02 	lds	r24, 0x023E	; 0x80023e <_ZN2SW4leftE>
    3b1a:	88 23       	and	r24, r24
    3b1c:	99 f0       	breq	.+38     	; 0x3b44 <_ZN4Game7endLoopEv+0xee>
    {
      m_Temp -= 1;
    3b1e:	8b 85       	ldd	r24, Y+11	; 0x0b
    3b20:	81 50       	subi	r24, 0x01	; 1

      if (m_Temp < 0x20)
    3b22:	80 32       	cpi	r24, 0x20	; 32
    3b24:	14 f0       	brlt	.+4      	; 0x3b2a <_ZN4Game7endLoopEv+0xd4>
    printLetter(118, 100, tempName2nd);
    printLetter(134, 100, tempName3rd);

    if (SW::left == ON)
    {
      m_Temp -= 1;
    3b26:	8b 87       	std	Y+11, r24	; 0x0b
    3b28:	01 c0       	rjmp	.+2      	; 0x3b2c <_ZN4Game7endLoopEv+0xd6>

      if (m_Temp < 0x20)
      {
        m_Temp = 0x5A;
    3b2a:	bb 86       	std	Y+11, r11	; 0x0b
    3b2c:	2f ef       	ldi	r18, 0xFF	; 255
    3b2e:	81 ee       	ldi	r24, 0xE1	; 225
    3b30:	94 e0       	ldi	r25, 0x04	; 4
    3b32:	21 50       	subi	r18, 0x01	; 1
    3b34:	80 40       	sbci	r24, 0x00	; 0
    3b36:	90 40       	sbci	r25, 0x00	; 0
    3b38:	e1 f7       	brne	.-8      	; 0x3b32 <_ZN4Game7endLoopEv+0xdc>
    3b3a:	00 c0       	rjmp	.+0      	; 0x3b3c <_ZN4Game7endLoopEv+0xe6>
    3b3c:	00 00       	nop
      }

      _delay_ms(100);
      SW::left = OFF;
    3b3e:	10 92 3e 02 	sts	0x023E, r1	; 0x80023e <_ZN2SW4leftE>
    3b42:	a9 c0       	rjmp	.+338    	; 0x3c96 <_ZN4Game7endLoopEv+0x240>
    }

    else if (SW::right == ON)
    3b44:	80 91 3d 02 	lds	r24, 0x023D	; 0x80023d <_ZN2SW5rightE>
    3b48:	88 23       	and	r24, r24
    3b4a:	99 f0       	breq	.+38     	; 0x3b72 <_ZN4Game7endLoopEv+0x11c>
    {
      m_Temp += 1;
    3b4c:	8b 85       	ldd	r24, Y+11	; 0x0b
    3b4e:	8f 5f       	subi	r24, 0xFF	; 255

      if (m_Temp > 0x5A)
    3b50:	8b 35       	cpi	r24, 0x5B	; 91
    3b52:	14 f4       	brge	.+4      	; 0x3b58 <_ZN4Game7endLoopEv+0x102>
      SW::left = OFF;
    }

    else if (SW::right == ON)
    {
      m_Temp += 1;
    3b54:	8b 87       	std	Y+11, r24	; 0x0b
    3b56:	01 c0       	rjmp	.+2      	; 0x3b5a <_ZN4Game7endLoopEv+0x104>

      if (m_Temp > 0x5A)
      {
        m_Temp = 0x20;
    3b58:	ab 86       	std	Y+11, r10	; 0x0b
    3b5a:	2f ef       	ldi	r18, 0xFF	; 255
    3b5c:	81 ee       	ldi	r24, 0xE1	; 225
    3b5e:	94 e0       	ldi	r25, 0x04	; 4
    3b60:	21 50       	subi	r18, 0x01	; 1
    3b62:	80 40       	sbci	r24, 0x00	; 0
    3b64:	90 40       	sbci	r25, 0x00	; 0
    3b66:	e1 f7       	brne	.-8      	; 0x3b60 <_ZN4Game7endLoopEv+0x10a>
    3b68:	00 c0       	rjmp	.+0      	; 0x3b6a <_ZN4Game7endLoopEv+0x114>
    3b6a:	00 00       	nop
      }

      _delay_ms(100);
      SW::right = OFF;
    3b6c:	10 92 3d 02 	sts	0x023D, r1	; 0x80023d <_ZN2SW5rightE>
    3b70:	92 c0       	rjmp	.+292    	; 0x3c96 <_ZN4Game7endLoopEv+0x240>
    }

    else if (SW::select == ON)
    3b72:	80 91 3b 02 	lds	r24, 0x023B	; 0x80023b <_ZN2SW6selectE>
    3b76:	88 23       	and	r24, r24
    3b78:	09 f4       	brne	.+2      	; 0x3b7c <_ZN4Game7endLoopEv+0x126>
    3b7a:	8d c0       	rjmp	.+282    	; 0x3c96 <_ZN4Game7endLoopEv+0x240>
    {
      m_Temp = 0x41;
    3b7c:	9b 86       	std	Y+11, r9	; 0x0b
      m_Cursor += 1;
    3b7e:	8a 85       	ldd	r24, Y+10	; 0x0a
    3b80:	8f 5f       	subi	r24, 0xFF	; 255
    3b82:	8a 87       	std	Y+10, r24	; 0x0a

      if (m_Cursor > 3)
    3b84:	84 30       	cpi	r24, 0x04	; 4
    3b86:	14 f0       	brlt	.+4      	; 0x3b8c <_ZN4Game7endLoopEv+0x136>
      {
        m_Cursor = 3;
    3b88:	8a 86       	std	Y+10, r8	; 0x0a
    3b8a:	6a c0       	rjmp	.+212    	; 0x3c60 <_ZN4Game7endLoopEv+0x20a>
      }

      switch (m_Cursor)
    3b8c:	81 30       	cpi	r24, 0x01	; 1
    3b8e:	21 f1       	breq	.+72     	; 0x3bd8 <_ZN4Game7endLoopEv+0x182>
    3b90:	38 f0       	brcs	.+14     	; 0x3ba0 <_ZN4Game7endLoopEv+0x14a>
    3b92:	82 30       	cpi	r24, 0x02	; 2
    3b94:	09 f4       	brne	.+2      	; 0x3b98 <_ZN4Game7endLoopEv+0x142>
    3b96:	48 c0       	rjmp	.+144    	; 0x3c28 <_ZN4Game7endLoopEv+0x1d2>
    3b98:	83 30       	cpi	r24, 0x03	; 3
    3b9a:	09 f0       	breq	.+2      	; 0x3b9e <_ZN4Game7endLoopEv+0x148>
    3b9c:	6f c0       	rjmp	.+222    	; 0x3c7c <_ZN4Game7endLoopEv+0x226>
    3b9e:	60 c0       	rjmp	.+192    	; 0x3c60 <_ZN4Game7endLoopEv+0x20a>
      {
      case 0:
        clear(102, 120, 16, 8, WHITE);
    3ba0:	ee 24       	eor	r14, r14
    3ba2:	ea 94       	dec	r14
    3ba4:	fe 2c       	mov	r15, r14
    3ba6:	08 e0       	ldi	r16, 0x08	; 8
    3ba8:	10 e0       	ldi	r17, 0x00	; 0
    3baa:	20 e1       	ldi	r18, 0x10	; 16
    3bac:	30 e0       	ldi	r19, 0x00	; 0
    3bae:	48 e7       	ldi	r20, 0x78	; 120
    3bb0:	50 e0       	ldi	r21, 0x00	; 0
    3bb2:	66 e6       	ldi	r22, 0x66	; 102
    3bb4:	70 e0       	ldi	r23, 0x00	; 0
    3bb6:	8c 2d       	mov	r24, r12
    3bb8:	9d 2d       	mov	r25, r13
    3bba:	0e 94 67 28 	call	0x50ce	; 0x50ce <_ZN3TFT5clearEiiiij>
        clear(118, 120, 16, 8, BLACK);
    3bbe:	e1 2c       	mov	r14, r1
    3bc0:	f1 2c       	mov	r15, r1
    3bc2:	20 e1       	ldi	r18, 0x10	; 16
    3bc4:	30 e0       	ldi	r19, 0x00	; 0
    3bc6:	48 e7       	ldi	r20, 0x78	; 120
    3bc8:	50 e0       	ldi	r21, 0x00	; 0
    3bca:	66 e7       	ldi	r22, 0x76	; 118
    3bcc:	70 e0       	ldi	r23, 0x00	; 0
    3bce:	8c 2d       	mov	r24, r12
    3bd0:	9d 2d       	mov	r25, r13
    3bd2:	0e 94 67 28 	call	0x50ce	; 0x50ce <_ZN3TFT5clearEiiiij>

        break;
    3bd6:	52 c0       	rjmp	.+164    	; 0x3c7c <_ZN4Game7endLoopEv+0x226>

      case 1:
        clear(102, 120, 16, 8, BLACK);
    3bd8:	e1 2c       	mov	r14, r1
    3bda:	f1 2c       	mov	r15, r1
    3bdc:	08 e0       	ldi	r16, 0x08	; 8
    3bde:	10 e0       	ldi	r17, 0x00	; 0
    3be0:	20 e1       	ldi	r18, 0x10	; 16
    3be2:	30 e0       	ldi	r19, 0x00	; 0
    3be4:	48 e7       	ldi	r20, 0x78	; 120
    3be6:	50 e0       	ldi	r21, 0x00	; 0
    3be8:	66 e6       	ldi	r22, 0x66	; 102
    3bea:	70 e0       	ldi	r23, 0x00	; 0
    3bec:	8c 2d       	mov	r24, r12
    3bee:	9d 2d       	mov	r25, r13
    3bf0:	0e 94 67 28 	call	0x50ce	; 0x50ce <_ZN3TFT5clearEiiiij>
        clear(118, 120, 16, 8, WHITE);
    3bf4:	ee 24       	eor	r14, r14
    3bf6:	ea 94       	dec	r14
    3bf8:	fe 2c       	mov	r15, r14
    3bfa:	20 e1       	ldi	r18, 0x10	; 16
    3bfc:	30 e0       	ldi	r19, 0x00	; 0
    3bfe:	48 e7       	ldi	r20, 0x78	; 120
    3c00:	50 e0       	ldi	r21, 0x00	; 0
    3c02:	66 e7       	ldi	r22, 0x76	; 118
    3c04:	70 e0       	ldi	r23, 0x00	; 0
    3c06:	8c 2d       	mov	r24, r12
    3c08:	9d 2d       	mov	r25, r13
    3c0a:	0e 94 67 28 	call	0x50ce	; 0x50ce <_ZN3TFT5clearEiiiij>
        clear(134, 120, 16, 8, BLACK);
    3c0e:	e1 2c       	mov	r14, r1
    3c10:	f1 2c       	mov	r15, r1
    3c12:	20 e1       	ldi	r18, 0x10	; 16
    3c14:	30 e0       	ldi	r19, 0x00	; 0
    3c16:	48 e7       	ldi	r20, 0x78	; 120
    3c18:	50 e0       	ldi	r21, 0x00	; 0
    3c1a:	66 e8       	ldi	r22, 0x86	; 134
    3c1c:	70 e0       	ldi	r23, 0x00	; 0
    3c1e:	8c 2d       	mov	r24, r12
    3c20:	9d 2d       	mov	r25, r13
    3c22:	0e 94 67 28 	call	0x50ce	; 0x50ce <_ZN3TFT5clearEiiiij>

        break;
    3c26:	2a c0       	rjmp	.+84     	; 0x3c7c <_ZN4Game7endLoopEv+0x226>

      case 2:
        clear(118, 120, 16, 8, BLACK);
    3c28:	e1 2c       	mov	r14, r1
    3c2a:	f1 2c       	mov	r15, r1
    3c2c:	08 e0       	ldi	r16, 0x08	; 8
    3c2e:	10 e0       	ldi	r17, 0x00	; 0
    3c30:	20 e1       	ldi	r18, 0x10	; 16
    3c32:	30 e0       	ldi	r19, 0x00	; 0
    3c34:	48 e7       	ldi	r20, 0x78	; 120
    3c36:	50 e0       	ldi	r21, 0x00	; 0
    3c38:	66 e7       	ldi	r22, 0x76	; 118
    3c3a:	70 e0       	ldi	r23, 0x00	; 0
    3c3c:	8c 2d       	mov	r24, r12
    3c3e:	9d 2d       	mov	r25, r13
    3c40:	0e 94 67 28 	call	0x50ce	; 0x50ce <_ZN3TFT5clearEiiiij>
        clear(134, 120, 16, 8, WHITE);
    3c44:	ee 24       	eor	r14, r14
    3c46:	ea 94       	dec	r14
    3c48:	fe 2c       	mov	r15, r14
    3c4a:	20 e1       	ldi	r18, 0x10	; 16
    3c4c:	30 e0       	ldi	r19, 0x00	; 0
    3c4e:	48 e7       	ldi	r20, 0x78	; 120
    3c50:	50 e0       	ldi	r21, 0x00	; 0
    3c52:	66 e8       	ldi	r22, 0x86	; 134
    3c54:	70 e0       	ldi	r23, 0x00	; 0
    3c56:	8c 2d       	mov	r24, r12
    3c58:	9d 2d       	mov	r25, r13
    3c5a:	0e 94 67 28 	call	0x50ce	; 0x50ce <_ZN3TFT5clearEiiiij>

        break;
    3c5e:	0e c0       	rjmp	.+28     	; 0x3c7c <_ZN4Game7endLoopEv+0x226>

      case 3:
        clear(134, 120, 16, 8, BLACK);
    3c60:	e1 2c       	mov	r14, r1
    3c62:	f1 2c       	mov	r15, r1
    3c64:	08 e0       	ldi	r16, 0x08	; 8
    3c66:	10 e0       	ldi	r17, 0x00	; 0
    3c68:	20 e1       	ldi	r18, 0x10	; 16
    3c6a:	30 e0       	ldi	r19, 0x00	; 0
    3c6c:	48 e7       	ldi	r20, 0x78	; 120
    3c6e:	50 e0       	ldi	r21, 0x00	; 0
    3c70:	66 e8       	ldi	r22, 0x86	; 134
    3c72:	70 e0       	ldi	r23, 0x00	; 0
    3c74:	8c 2d       	mov	r24, r12
    3c76:	9d 2d       	mov	r25, r13
    3c78:	0e 94 67 28 	call	0x50ce	; 0x50ce <_ZN3TFT5clearEiiiij>
    3c7c:	2f ef       	ldi	r18, 0xFF	; 255
    3c7e:	81 ee       	ldi	r24, 0xE1	; 225
    3c80:	94 e0       	ldi	r25, 0x04	; 4
    3c82:	21 50       	subi	r18, 0x01	; 1
    3c84:	80 40       	sbci	r24, 0x00	; 0
    3c86:	90 40       	sbci	r25, 0x00	; 0
    3c88:	e1 f7       	brne	.-8      	; 0x3c82 <_ZN4Game7endLoopEv+0x22c>
    3c8a:	00 c0       	rjmp	.+0      	; 0x3c8c <_ZN4Game7endLoopEv+0x236>
    3c8c:	00 00       	nop
      default:
        break;
      }

      _delay_ms(100);
      SW::start = OFF;
    3c8e:	10 92 3c 02 	sts	0x023C, r1	; 0x80023c <_ZN2SW5startE>
      SW::select = OFF;
    3c92:	10 92 3b 02 	sts	0x023B, r1	; 0x80023b <_ZN2SW6selectE>
    }

    switch (m_Cursor)
    3c96:	8a 85       	ldd	r24, Y+10	; 0x0a
    3c98:	81 30       	cpi	r24, 0x01	; 1
    3c9a:	99 f1       	breq	.+102    	; 0x3d02 <_ZN4Game7endLoopEv+0x2ac>
    3c9c:	1c f4       	brge	.+6      	; 0x3ca4 <_ZN4Game7endLoopEv+0x24e>
    3c9e:	88 23       	and	r24, r24
    3ca0:	41 f0       	breq	.+16     	; 0x3cb2 <_ZN4Game7endLoopEv+0x25c>
    3ca2:	1c cf       	rjmp	.-456    	; 0x3adc <_ZN4Game7endLoopEv+0x86>
    3ca4:	82 30       	cpi	r24, 0x02	; 2
    3ca6:	09 f4       	brne	.+2      	; 0x3caa <_ZN4Game7endLoopEv+0x254>
    3ca8:	54 c0       	rjmp	.+168    	; 0x3d52 <_ZN4Game7endLoopEv+0x2fc>
    3caa:	83 30       	cpi	r24, 0x03	; 3
    3cac:	09 f4       	brne	.+2      	; 0x3cb0 <_ZN4Game7endLoopEv+0x25a>
    3cae:	79 c0       	rjmp	.+242    	; 0x3da2 <_ZN4Game7endLoopEv+0x34c>
    3cb0:	15 cf       	rjmp	.-470    	; 0x3adc <_ZN4Game7endLoopEv+0x86>
    {
    case 0:
      tempName1st = m_Temp;
    3cb2:	8b 85       	ldd	r24, Y+11	; 0x0b
    3cb4:	8a ab       	std	Y+50, r24	; 0x32

      if (Frame::sixFrames == 0)
    3cb6:	80 91 25 02 	lds	r24, 0x0225	; 0x800225 <_ZN5Frame9sixFramesE>
    3cba:	81 11       	cpse	r24, r1
    3cbc:	0f c0       	rjmp	.+30     	; 0x3cdc <_ZN4Game7endLoopEv+0x286>
      {
        clear(102, 120, 16, 8, BLACK);
    3cbe:	e1 2c       	mov	r14, r1
    3cc0:	f1 2c       	mov	r15, r1
    3cc2:	08 e0       	ldi	r16, 0x08	; 8
    3cc4:	10 e0       	ldi	r17, 0x00	; 0
    3cc6:	20 e1       	ldi	r18, 0x10	; 16
    3cc8:	30 e0       	ldi	r19, 0x00	; 0
    3cca:	48 e7       	ldi	r20, 0x78	; 120
    3ccc:	50 e0       	ldi	r21, 0x00	; 0
    3cce:	66 e6       	ldi	r22, 0x66	; 102
    3cd0:	70 e0       	ldi	r23, 0x00	; 0
    3cd2:	8c 2d       	mov	r24, r12
    3cd4:	9d 2d       	mov	r25, r13
    3cd6:	0e 94 67 28 	call	0x50ce	; 0x50ce <_ZN3TFT5clearEiiiij>
    3cda:	00 cf       	rjmp	.-512    	; 0x3adc <_ZN4Game7endLoopEv+0x86>
      }

      else if (Frame::sixFrames == 4)
    3cdc:	84 30       	cpi	r24, 0x04	; 4
    3cde:	09 f0       	breq	.+2      	; 0x3ce2 <_ZN4Game7endLoopEv+0x28c>
    3ce0:	fd ce       	rjmp	.-518    	; 0x3adc <_ZN4Game7endLoopEv+0x86>
      {
        clear(102, 120, 16, 8, WHITE);
    3ce2:	ee 24       	eor	r14, r14
    3ce4:	ea 94       	dec	r14
    3ce6:	fe 2c       	mov	r15, r14
    3ce8:	08 e0       	ldi	r16, 0x08	; 8
    3cea:	10 e0       	ldi	r17, 0x00	; 0
    3cec:	20 e1       	ldi	r18, 0x10	; 16
    3cee:	30 e0       	ldi	r19, 0x00	; 0
    3cf0:	48 e7       	ldi	r20, 0x78	; 120
    3cf2:	50 e0       	ldi	r21, 0x00	; 0
    3cf4:	66 e6       	ldi	r22, 0x66	; 102
    3cf6:	70 e0       	ldi	r23, 0x00	; 0
    3cf8:	8c 2d       	mov	r24, r12
    3cfa:	9d 2d       	mov	r25, r13
    3cfc:	0e 94 67 28 	call	0x50ce	; 0x50ce <_ZN3TFT5clearEiiiij>
    3d00:	ed ce       	rjmp	.-550    	; 0x3adc <_ZN4Game7endLoopEv+0x86>
      }

      break;

    case 1:
      tempName2nd = m_Temp;
    3d02:	8b 85       	ldd	r24, Y+11	; 0x0b
    3d04:	8b ab       	std	Y+51, r24	; 0x33

      if (Frame::sixFrames == 0)
    3d06:	80 91 25 02 	lds	r24, 0x0225	; 0x800225 <_ZN5Frame9sixFramesE>
    3d0a:	81 11       	cpse	r24, r1
    3d0c:	0f c0       	rjmp	.+30     	; 0x3d2c <_ZN4Game7endLoopEv+0x2d6>
      {
        clear(118, 120, 16, 8, BLACK);
    3d0e:	e1 2c       	mov	r14, r1
    3d10:	f1 2c       	mov	r15, r1
    3d12:	08 e0       	ldi	r16, 0x08	; 8
    3d14:	10 e0       	ldi	r17, 0x00	; 0
    3d16:	20 e1       	ldi	r18, 0x10	; 16
    3d18:	30 e0       	ldi	r19, 0x00	; 0
    3d1a:	48 e7       	ldi	r20, 0x78	; 120
    3d1c:	50 e0       	ldi	r21, 0x00	; 0
    3d1e:	66 e7       	ldi	r22, 0x76	; 118
    3d20:	70 e0       	ldi	r23, 0x00	; 0
    3d22:	8c 2d       	mov	r24, r12
    3d24:	9d 2d       	mov	r25, r13
    3d26:	0e 94 67 28 	call	0x50ce	; 0x50ce <_ZN3TFT5clearEiiiij>
    3d2a:	d8 ce       	rjmp	.-592    	; 0x3adc <_ZN4Game7endLoopEv+0x86>
      }

      else if (Frame::sixFrames == 4)
    3d2c:	84 30       	cpi	r24, 0x04	; 4
    3d2e:	09 f0       	breq	.+2      	; 0x3d32 <_ZN4Game7endLoopEv+0x2dc>
    3d30:	d5 ce       	rjmp	.-598    	; 0x3adc <_ZN4Game7endLoopEv+0x86>
      {
        clear(118, 120, 16, 8, WHITE);
    3d32:	ee 24       	eor	r14, r14
    3d34:	ea 94       	dec	r14
    3d36:	fe 2c       	mov	r15, r14
    3d38:	08 e0       	ldi	r16, 0x08	; 8
    3d3a:	10 e0       	ldi	r17, 0x00	; 0
    3d3c:	20 e1       	ldi	r18, 0x10	; 16
    3d3e:	30 e0       	ldi	r19, 0x00	; 0
    3d40:	48 e7       	ldi	r20, 0x78	; 120
    3d42:	50 e0       	ldi	r21, 0x00	; 0
    3d44:	66 e7       	ldi	r22, 0x76	; 118
    3d46:	70 e0       	ldi	r23, 0x00	; 0
    3d48:	8c 2d       	mov	r24, r12
    3d4a:	9d 2d       	mov	r25, r13
    3d4c:	0e 94 67 28 	call	0x50ce	; 0x50ce <_ZN3TFT5clearEiiiij>
    3d50:	c5 ce       	rjmp	.-630    	; 0x3adc <_ZN4Game7endLoopEv+0x86>
      }

      break;

    case 2:
      tempName3rd = m_Temp;
    3d52:	8b 85       	ldd	r24, Y+11	; 0x0b
    3d54:	8c ab       	std	Y+52, r24	; 0x34

      if (Frame::sixFrames == 0)
    3d56:	80 91 25 02 	lds	r24, 0x0225	; 0x800225 <_ZN5Frame9sixFramesE>
    3d5a:	81 11       	cpse	r24, r1
    3d5c:	0f c0       	rjmp	.+30     	; 0x3d7c <_ZN4Game7endLoopEv+0x326>
      {
        clear(134, 120, 16, 8, BLACK);
    3d5e:	e1 2c       	mov	r14, r1
    3d60:	f1 2c       	mov	r15, r1
    3d62:	08 e0       	ldi	r16, 0x08	; 8
    3d64:	10 e0       	ldi	r17, 0x00	; 0
    3d66:	20 e1       	ldi	r18, 0x10	; 16
    3d68:	30 e0       	ldi	r19, 0x00	; 0
    3d6a:	48 e7       	ldi	r20, 0x78	; 120
    3d6c:	50 e0       	ldi	r21, 0x00	; 0
    3d6e:	66 e8       	ldi	r22, 0x86	; 134
    3d70:	70 e0       	ldi	r23, 0x00	; 0
    3d72:	8c 2d       	mov	r24, r12
    3d74:	9d 2d       	mov	r25, r13
    3d76:	0e 94 67 28 	call	0x50ce	; 0x50ce <_ZN3TFT5clearEiiiij>
    3d7a:	b0 ce       	rjmp	.-672    	; 0x3adc <_ZN4Game7endLoopEv+0x86>
      }

      else if (Frame::sixFrames == 4)
    3d7c:	84 30       	cpi	r24, 0x04	; 4
    3d7e:	09 f0       	breq	.+2      	; 0x3d82 <_ZN4Game7endLoopEv+0x32c>
    3d80:	ad ce       	rjmp	.-678    	; 0x3adc <_ZN4Game7endLoopEv+0x86>
      {
        clear(134, 120, 16, 8, WHITE);
    3d82:	ee 24       	eor	r14, r14
    3d84:	ea 94       	dec	r14
    3d86:	fe 2c       	mov	r15, r14
    3d88:	08 e0       	ldi	r16, 0x08	; 8
    3d8a:	10 e0       	ldi	r17, 0x00	; 0
    3d8c:	20 e1       	ldi	r18, 0x10	; 16
    3d8e:	30 e0       	ldi	r19, 0x00	; 0
    3d90:	48 e7       	ldi	r20, 0x78	; 120
    3d92:	50 e0       	ldi	r21, 0x00	; 0
    3d94:	66 e8       	ldi	r22, 0x86	; 134
    3d96:	70 e0       	ldi	r23, 0x00	; 0
    3d98:	8c 2d       	mov	r24, r12
    3d9a:	9d 2d       	mov	r25, r13
    3d9c:	0e 94 67 28 	call	0x50ce	; 0x50ce <_ZN3TFT5clearEiiiij>
    3da0:	9d ce       	rjmp	.-710    	; 0x3adc <_ZN4Game7endLoopEv+0x86>
      }

      break;

    case 3:
      if (SW::start == ON)
    3da2:	80 91 3c 02 	lds	r24, 0x023C	; 0x80023c <_ZN2SW5startE>
    3da6:	88 23       	and	r24, r24
    3da8:	09 f4       	brne	.+2      	; 0x3dac <_ZN4Game7endLoopEv+0x356>
    3daa:	98 ce       	rjmp	.-720    	; 0x3adc <_ZN4Game7endLoopEv+0x86>
      break;
    }

  }

}
    3dac:	df 91       	pop	r29
    3dae:	cf 91       	pop	r28
    3db0:	1f 91       	pop	r17
    3db2:	0f 91       	pop	r16
    3db4:	ff 90       	pop	r15
    3db6:	ef 90       	pop	r14
    3db8:	df 90       	pop	r13
    3dba:	cf 90       	pop	r12
    3dbc:	bf 90       	pop	r11
    3dbe:	af 90       	pop	r10
    3dc0:	9f 90       	pop	r9
    3dc2:	8f 90       	pop	r8
    3dc4:	08 95       	ret

00003dc6 <_ZN4Game5startEv>:
/*----------------------------------------//
                Game Start
//----------------------------------------*/

void Game::start(void)
{
    3dc6:	3f 92       	push	r3
    3dc8:	4f 92       	push	r4
    3dca:	5f 92       	push	r5
    3dcc:	6f 92       	push	r6
    3dce:	7f 92       	push	r7
    3dd0:	8f 92       	push	r8
    3dd2:	9f 92       	push	r9
    3dd4:	af 92       	push	r10
    3dd6:	bf 92       	push	r11
    3dd8:	cf 92       	push	r12
    3dda:	df 92       	push	r13
    3ddc:	ef 92       	push	r14
    3dde:	ff 92       	push	r15
    3de0:	0f 93       	push	r16
    3de2:	1f 93       	push	r17
    3de4:	cf 93       	push	r28
    3de6:	df 93       	push	r29
    3de8:	2c 01       	movw	r4, r24

  fillScreen(BLACK);
    3dea:	78 2e       	mov	r7, r24
    3dec:	65 2c       	mov	r6, r5
    3dee:	60 e0       	ldi	r22, 0x00	; 0
    3df0:	70 e0       	ldi	r23, 0x00	; 0
    3df2:	0e 94 22 28 	call	0x5044	; 0x5044 <_ZN3TFT10fillScreenEj>
  draw(40, 140, 40, 40, charStand, BLACK, MAROON, RED, WHITE);
    3df6:	8f ef       	ldi	r24, 0xFF	; 255
    3df8:	8f 93       	push	r24
    3dfa:	8f 93       	push	r24
    3dfc:	0f 2e       	mov	r0, r31
    3dfe:	81 2c       	mov	r8, r1
    3e00:	f8 ef       	ldi	r31, 0xF8	; 248
    3e02:	9f 2e       	mov	r9, r31
    3e04:	f0 2d       	mov	r31, r0
    3e06:	0f 2e       	mov	r0, r31
    3e08:	a1 2c       	mov	r10, r1
    3e0a:	f8 e7       	ldi	r31, 0x78	; 120
    3e0c:	bf 2e       	mov	r11, r31
    3e0e:	f0 2d       	mov	r31, r0
    3e10:	c1 2c       	mov	r12, r1
    3e12:	d1 2c       	mov	r13, r1
    3e14:	0f 2e       	mov	r0, r31
    3e16:	f8 e6       	ldi	r31, 0x68	; 104
    3e18:	ef 2e       	mov	r14, r31
    3e1a:	f0 e0       	ldi	r31, 0x00	; 0
    3e1c:	ff 2e       	mov	r15, r31
    3e1e:	f0 2d       	mov	r31, r0
    3e20:	08 e2       	ldi	r16, 0x28	; 40
    3e22:	10 e0       	ldi	r17, 0x00	; 0
    3e24:	28 e2       	ldi	r18, 0x28	; 40
    3e26:	30 e0       	ldi	r19, 0x00	; 0
    3e28:	4c e8       	ldi	r20, 0x8C	; 140
    3e2a:	50 e0       	ldi	r21, 0x00	; 0
    3e2c:	68 e2       	ldi	r22, 0x28	; 40
    3e2e:	70 e0       	ldi	r23, 0x00	; 0
    3e30:	c2 01       	movw	r24, r4
    3e32:	0e 94 4a 29 	call	0x5294	; 0x5294 <_ZN3TFT4drawEiiiiPKhjjjj>

  print(120, 100, "Ready");
    3e36:	2c ec       	ldi	r18, 0xCC	; 204
    3e38:	31 e0       	ldi	r19, 0x01	; 1
    3e3a:	44 e6       	ldi	r20, 0x64	; 100
    3e3c:	50 e0       	ldi	r21, 0x00	; 0
    3e3e:	68 e7       	ldi	r22, 0x78	; 120
    3e40:	70 e0       	ldi	r23, 0x00	; 0
    3e42:	c2 01       	movw	r24, r4
    3e44:	0e 94 1f 14 	call	0x283e	; 0x283e <_ZN4Font5printEiiPKc>
    3e48:	2f ef       	ldi	r18, 0xFF	; 255
    3e4a:	8d e3       	ldi	r24, 0x3D	; 61
    3e4c:	99 e4       	ldi	r25, 0x49	; 73
    3e4e:	21 50       	subi	r18, 0x01	; 1
    3e50:	80 40       	sbci	r24, 0x00	; 0
    3e52:	90 40       	sbci	r25, 0x00	; 0
    3e54:	e1 f7       	brne	.-8      	; 0x3e4e <_ZN4Game5startEv+0x88>
    3e56:	00 c0       	rjmp	.+0      	; 0x3e58 <_ZN4Game5startEv+0x92>
    3e58:	00 00       	nop
    3e5a:	0f 90       	pop	r0
    3e5c:	0f 90       	pop	r0
    3e5e:	c5 e0       	ldi	r28, 0x05	; 5
    3e60:	d0 e0       	ldi	r29, 0x00	; 0
  _delay_ms(1500);

  for (int i=0; i<5; i++)
  {
    print(120, 100, "Start");
    3e62:	22 ed       	ldi	r18, 0xD2	; 210
    3e64:	31 e0       	ldi	r19, 0x01	; 1
    3e66:	44 e6       	ldi	r20, 0x64	; 100
    3e68:	50 e0       	ldi	r21, 0x00	; 0
    3e6a:	68 e7       	ldi	r22, 0x78	; 120
    3e6c:	70 e0       	ldi	r23, 0x00	; 0
    3e6e:	87 2d       	mov	r24, r7
    3e70:	96 2d       	mov	r25, r6
    3e72:	0e 94 1f 14 	call	0x283e	; 0x283e <_ZN4Font5printEiiPKc>
    3e76:	ef ef       	ldi	r30, 0xFF	; 255
    3e78:	f1 ee       	ldi	r31, 0xE1	; 225
    3e7a:	24 e0       	ldi	r18, 0x04	; 4
    3e7c:	e1 50       	subi	r30, 0x01	; 1
    3e7e:	f0 40       	sbci	r31, 0x00	; 0
    3e80:	20 40       	sbci	r18, 0x00	; 0
    3e82:	e1 f7       	brne	.-8      	; 0x3e7c <_ZN4Game5startEv+0xb6>
    3e84:	00 c0       	rjmp	.+0      	; 0x3e86 <_ZN4Game5startEv+0xc0>
    3e86:	00 00       	nop
    _delay_ms(100);
    clear(120, 100, 80, 16, BLACK);
    3e88:	e1 2c       	mov	r14, r1
    3e8a:	f1 2c       	mov	r15, r1
    3e8c:	00 e1       	ldi	r16, 0x10	; 16
    3e8e:	10 e0       	ldi	r17, 0x00	; 0
    3e90:	20 e5       	ldi	r18, 0x50	; 80
    3e92:	30 e0       	ldi	r19, 0x00	; 0
    3e94:	44 e6       	ldi	r20, 0x64	; 100
    3e96:	50 e0       	ldi	r21, 0x00	; 0
    3e98:	68 e7       	ldi	r22, 0x78	; 120
    3e9a:	70 e0       	ldi	r23, 0x00	; 0
    3e9c:	87 2d       	mov	r24, r7
    3e9e:	96 2d       	mov	r25, r6
    3ea0:	0e 94 67 28 	call	0x50ce	; 0x50ce <_ZN3TFT5clearEiiiij>
    3ea4:	8f ef       	ldi	r24, 0xFF	; 255
    3ea6:	91 ee       	ldi	r25, 0xE1	; 225
    3ea8:	e4 e0       	ldi	r30, 0x04	; 4
    3eaa:	81 50       	subi	r24, 0x01	; 1
    3eac:	90 40       	sbci	r25, 0x00	; 0
    3eae:	e0 40       	sbci	r30, 0x00	; 0
    3eb0:	e1 f7       	brne	.-8      	; 0x3eaa <_ZN4Game5startEv+0xe4>
    3eb2:	00 c0       	rjmp	.+0      	; 0x3eb4 <_ZN4Game5startEv+0xee>
    3eb4:	00 00       	nop
    3eb6:	21 97       	sbiw	r28, 0x01	; 1
  draw(40, 140, 40, 40, charStand, BLACK, MAROON, RED, WHITE);

  print(120, 100, "Ready");
  _delay_ms(1500);

  for (int i=0; i<5; i++)
    3eb8:	a1 f6       	brne	.-88     	; 0x3e62 <_ZN4Game5startEv+0x9c>
    _delay_ms(100);
  }
  
  for (int j=0; j<5; j++)
  {
    draw(64 * j, 180, 64, 48, groundTile, BLACK, BROWN, MAROON, WHITE);
    3eba:	33 24       	eor	r3, r3
    3ebc:	3a 94       	dec	r3
    3ebe:	3f 92       	push	r3
    3ec0:	3f 92       	push	r3
    3ec2:	0f 2e       	mov	r0, r31
    3ec4:	81 2c       	mov	r8, r1
    3ec6:	f8 e7       	ldi	r31, 0x78	; 120
    3ec8:	9f 2e       	mov	r9, r31
    3eca:	f0 2d       	mov	r31, r0
    3ecc:	0f 2e       	mov	r0, r31
    3ece:	a1 2c       	mov	r10, r1
    3ed0:	f8 e3       	ldi	r31, 0x38	; 56
    3ed2:	bf 2e       	mov	r11, r31
    3ed4:	f0 2d       	mov	r31, r0
    3ed6:	c1 2c       	mov	r12, r1
    3ed8:	d1 2c       	mov	r13, r1
    3eda:	0f 2e       	mov	r0, r31
    3edc:	f9 e9       	ldi	r31, 0x99	; 153
    3ede:	ef 2e       	mov	r14, r31
    3ee0:	fb e1       	ldi	r31, 0x1B	; 27
    3ee2:	ff 2e       	mov	r15, r31
    3ee4:	f0 2d       	mov	r31, r0
    3ee6:	00 e3       	ldi	r16, 0x30	; 48
    3ee8:	10 e0       	ldi	r17, 0x00	; 0
    3eea:	20 e4       	ldi	r18, 0x40	; 64
    3eec:	30 e0       	ldi	r19, 0x00	; 0
    3eee:	44 eb       	ldi	r20, 0xB4	; 180
    3ef0:	50 e0       	ldi	r21, 0x00	; 0
    3ef2:	be 01       	movw	r22, r28
    3ef4:	87 2d       	mov	r24, r7
    3ef6:	96 2d       	mov	r25, r6
    3ef8:	0e 94 4a 29 	call	0x5294	; 0x5294 <_ZN3TFT4drawEiiiiPKhjjjj>
    3efc:	c0 5c       	subi	r28, 0xC0	; 192
    3efe:	df 4f       	sbci	r29, 0xFF	; 255
    _delay_ms(100);
    clear(120, 100, 80, 16, BLACK);
    _delay_ms(100);
  }
  
  for (int j=0; j<5; j++)
    3f00:	0f 90       	pop	r0
    3f02:	0f 90       	pop	r0
    3f04:	c0 34       	cpi	r28, 0x40	; 64
    3f06:	f1 e0       	ldi	r31, 0x01	; 1
    3f08:	df 07       	cpc	r29, r31
    3f0a:	c9 f6       	brne	.-78     	; 0x3ebe <_ZN4Game5startEv+0xf8>
  {
    draw(64 * j, 180, 64, 48, groundTile, BLACK, BROWN, MAROON, WHITE);
  }

  SW::init();
    3f0c:	0e 94 3c 27 	call	0x4e78	; 0x4e78 <_ZN2SW4initEv>
  Frame::init();
    3f10:	0e 94 78 15 	call	0x2af0	; 0x2af0 <_ZN5Frame4initEv>

  void titleLoop(void);
  void startLoop(void);
  void endLoop(void);

  void init(void) { m_Cursor = 0; m_Temp = 0; m_ScoreTemp = 0;
    3f14:	f2 01       	movw	r30, r4
    3f16:	12 86       	std	Z+10, r1	; 0x0a
    3f18:	13 86       	std	Z+11, r1	; 0x0b
    3f1a:	15 86       	std	Z+13, r1	; 0x0d
    3f1c:	14 86       	std	Z+12, r1	; 0x0c
    m_IsReset = false; m_IsHighSpeed = false; m_IsDrawed = false; Frame::scoreTime = 0; }
    3f1e:	10 8a       	std	Z+16, r1	; 0x10
    3f20:	12 8a       	std	Z+18, r1	; 0x12
    3f22:	13 8a       	std	Z+19, r1	; 0x13
    3f24:	10 92 3a 02 	sts	0x023A, r1	; 0x80023a <_ZN5Frame9scoreTimeE+0x1>
    3f28:	10 92 39 02 	sts	0x0239, r1	; 0x800239 <_ZN5Frame9scoreTimeE>
  Game::init();
  startLoop();
    3f2c:	c2 01       	movw	r24, r4
    3f2e:	0e 94 ab 19 	call	0x3356	; 0x3356 <_ZN4Game9startLoopEv>

}
    3f32:	df 91       	pop	r29
    3f34:	cf 91       	pop	r28
    3f36:	1f 91       	pop	r17
    3f38:	0f 91       	pop	r16
    3f3a:	ff 90       	pop	r15
    3f3c:	ef 90       	pop	r14
    3f3e:	df 90       	pop	r13
    3f40:	cf 90       	pop	r12
    3f42:	bf 90       	pop	r11
    3f44:	af 90       	pop	r10
    3f46:	9f 90       	pop	r9
    3f48:	8f 90       	pop	r8
    3f4a:	7f 90       	pop	r7
    3f4c:	6f 90       	pop	r6
    3f4e:	5f 90       	pop	r5
    3f50:	4f 90       	pop	r4
    3f52:	3f 90       	pop	r3
    3f54:	08 95       	ret

00003f56 <_ZN4Game3endEv>:
/*----------------------------------------//
                  Game End
//----------------------------------------*/

void Game::end(void)
{
    3f56:	cf 92       	push	r12
    3f58:	df 92       	push	r13
    3f5a:	ef 92       	push	r14
    3f5c:	ff 92       	push	r15
    3f5e:	0f 93       	push	r16
    3f60:	1f 93       	push	r17
    3f62:	cf 93       	push	r28
    3f64:	df 93       	push	r29
    3f66:	ec 01       	movw	r28, r24

  if (m_ScoreTemp > fifthScore)
    3f68:	2c 85       	ldd	r18, Y+12	; 0x0c
    3f6a:	3d 85       	ldd	r19, Y+13	; 0x0d
    3f6c:	88 a9       	ldd	r24, Y+48	; 0x30
    3f6e:	99 a9       	ldd	r25, Y+49	; 0x31
    3f70:	82 17       	cp	r24, r18
    3f72:	93 07       	cpc	r25, r19
    3f74:	08 f0       	brcs	.+2      	; 0x3f78 <_ZN4Game3endEv+0x22>
    3f76:	ce c0       	rjmp	.+412    	; 0x4114 <_ZN4Game3endEv+0x1be>
    3f78:	68 94       	set
    3f7a:	cc 24       	eor	r12, r12
    3f7c:	c2 f8       	bld	r12, 2
    3f7e:	d1 2c       	mov	r13, r1
  {
    for (int i=0; i<4; i++)
    {
      print(90, 100, "NEW SCORE");
    3f80:	23 ee       	ldi	r18, 0xE3	; 227
    3f82:	31 e0       	ldi	r19, 0x01	; 1
    3f84:	44 e6       	ldi	r20, 0x64	; 100
    3f86:	50 e0       	ldi	r21, 0x00	; 0
    3f88:	6a e5       	ldi	r22, 0x5A	; 90
    3f8a:	70 e0       	ldi	r23, 0x00	; 0
    3f8c:	ce 01       	movw	r24, r28
    3f8e:	0e 94 1f 14 	call	0x283e	; 0x283e <_ZN4Font5printEiiPKc>
    3f92:	2f ef       	ldi	r18, 0xFF	; 255
    3f94:	84 e3       	ldi	r24, 0x34	; 52
    3f96:	9c e0       	ldi	r25, 0x0C	; 12
    3f98:	21 50       	subi	r18, 0x01	; 1
    3f9a:	80 40       	sbci	r24, 0x00	; 0
    3f9c:	90 40       	sbci	r25, 0x00	; 0
    3f9e:	e1 f7       	brne	.-8      	; 0x3f98 <_ZN4Game3endEv+0x42>
    3fa0:	00 c0       	rjmp	.+0      	; 0x3fa2 <_ZN4Game3endEv+0x4c>
    3fa2:	00 00       	nop
      _delay_ms(250);
      clear(90, 100, 144, 16, BLACK);
    3fa4:	e1 2c       	mov	r14, r1
    3fa6:	f1 2c       	mov	r15, r1
    3fa8:	00 e1       	ldi	r16, 0x10	; 16
    3faa:	10 e0       	ldi	r17, 0x00	; 0
    3fac:	20 e9       	ldi	r18, 0x90	; 144
    3fae:	30 e0       	ldi	r19, 0x00	; 0
    3fb0:	44 e6       	ldi	r20, 0x64	; 100
    3fb2:	50 e0       	ldi	r21, 0x00	; 0
    3fb4:	6a e5       	ldi	r22, 0x5A	; 90
    3fb6:	70 e0       	ldi	r23, 0x00	; 0
    3fb8:	ce 01       	movw	r24, r28
    3fba:	0e 94 67 28 	call	0x50ce	; 0x50ce <_ZN3TFT5clearEiiiij>
    3fbe:	2f ef       	ldi	r18, 0xFF	; 255
    3fc0:	84 e3       	ldi	r24, 0x34	; 52
    3fc2:	9c e0       	ldi	r25, 0x0C	; 12
    3fc4:	21 50       	subi	r18, 0x01	; 1
    3fc6:	80 40       	sbci	r24, 0x00	; 0
    3fc8:	90 40       	sbci	r25, 0x00	; 0
    3fca:	e1 f7       	brne	.-8      	; 0x3fc4 <_ZN4Game3endEv+0x6e>
    3fcc:	00 c0       	rjmp	.+0      	; 0x3fce <_ZN4Game3endEv+0x78>
    3fce:	00 00       	nop
    3fd0:	21 e0       	ldi	r18, 0x01	; 1
    3fd2:	c2 1a       	sub	r12, r18
    3fd4:	d1 08       	sbc	r13, r1
void Game::end(void)
{

  if (m_ScoreTemp > fifthScore)
  {
    for (int i=0; i<4; i++)
    3fd6:	a1 f6       	brne	.-88     	; 0x3f80 <_ZN4Game3endEv+0x2a>
      _delay_ms(250);
      clear(90, 100, 144, 16, BLACK);
      _delay_ms(250);
    }

    SW::init();
    3fd8:	0e 94 3c 27 	call	0x4e78	; 0x4e78 <_ZN2SW4initEv>
    Frame::init();
    3fdc:	0e 94 78 15 	call	0x2af0	; 0x2af0 <_ZN5Frame4initEv>
    endLoop();
    3fe0:	ce 01       	movw	r24, r28
    3fe2:	0e 94 2b 1d 	call	0x3a56	; 0x3a56 <_ZN4Game7endLoopEv>

    if (m_ScoreTemp > firstScore)
    3fe6:	6c 85       	ldd	r22, Y+12	; 0x0c
    3fe8:	7d 85       	ldd	r23, Y+13	; 0x0d
    3fea:	88 8d       	ldd	r24, Y+24	; 0x18
    3fec:	99 8d       	ldd	r25, Y+25	; 0x19
    3fee:	86 17       	cp	r24, r22
    3ff0:	97 07       	cpc	r25, r23
    3ff2:	c8 f4       	brcc	.+50     	; 0x4026 <_ZN4Game3endEv+0xd0>
    {
      eeprom_update_word((uint16_t*)10, m_ScoreTemp);
    3ff4:	8a e0       	ldi	r24, 0x0A	; 10
    3ff6:	90 e0       	ldi	r25, 0x00	; 0
    3ff8:	0e 94 28 2c 	call	0x5850	; 0x5850 <eeprom_update_word>
      eeprom_update_byte((uint8_t*)110, tempName1st);
    3ffc:	6a a9       	ldd	r22, Y+50	; 0x32
    3ffe:	8e e6       	ldi	r24, 0x6E	; 110
    4000:	90 e0       	ldi	r25, 0x00	; 0
    4002:	0e 94 16 2c 	call	0x582c	; 0x582c <eeprom_update_byte>
      eeprom_update_byte((uint8_t*)111, tempName2nd);
    4006:	6b a9       	ldd	r22, Y+51	; 0x33
    4008:	8f e6       	ldi	r24, 0x6F	; 111
    400a:	90 e0       	ldi	r25, 0x00	; 0
    400c:	0e 94 16 2c 	call	0x582c	; 0x582c <eeprom_update_byte>
      eeprom_update_byte((uint8_t*)112, tempName3rd);
    4010:	6c a9       	ldd	r22, Y+52	; 0x34
    4012:	80 e7       	ldi	r24, 0x70	; 112
    4014:	90 e0       	ldi	r25, 0x00	; 0
    4016:	0e 94 16 2c 	call	0x582c	; 0x582c <eeprom_update_byte>
      eeprom_update_byte((uint8_t*)113, 0x00);
    401a:	60 e0       	ldi	r22, 0x00	; 0
    401c:	81 e7       	ldi	r24, 0x71	; 113
    401e:	90 e0       	ldi	r25, 0x00	; 0
    4020:	0e 94 16 2c 	call	0x582c	; 0x582c <eeprom_update_byte>
    4024:	77 c0       	rjmp	.+238    	; 0x4114 <_ZN4Game3endEv+0x1be>
    }

    else if (m_ScoreTemp > secondScore)
    4026:	8e 8d       	ldd	r24, Y+30	; 0x1e
    4028:	9f 8d       	ldd	r25, Y+31	; 0x1f
    402a:	86 17       	cp	r24, r22
    402c:	97 07       	cpc	r25, r23
    402e:	c8 f4       	brcc	.+50     	; 0x4062 <_ZN4Game3endEv+0x10c>
    {
      eeprom_update_word((uint16_t*)20, m_ScoreTemp);
    4030:	84 e1       	ldi	r24, 0x14	; 20
    4032:	90 e0       	ldi	r25, 0x00	; 0
    4034:	0e 94 28 2c 	call	0x5850	; 0x5850 <eeprom_update_word>
      eeprom_update_byte((uint8_t*)120, tempName1st);
    4038:	6a a9       	ldd	r22, Y+50	; 0x32
    403a:	88 e7       	ldi	r24, 0x78	; 120
    403c:	90 e0       	ldi	r25, 0x00	; 0
    403e:	0e 94 16 2c 	call	0x582c	; 0x582c <eeprom_update_byte>
      eeprom_update_byte((uint8_t*)121, tempName2nd);
    4042:	6b a9       	ldd	r22, Y+51	; 0x33
    4044:	89 e7       	ldi	r24, 0x79	; 121
    4046:	90 e0       	ldi	r25, 0x00	; 0
    4048:	0e 94 16 2c 	call	0x582c	; 0x582c <eeprom_update_byte>
      eeprom_update_byte((uint8_t*)122, tempName3rd);
    404c:	6c a9       	ldd	r22, Y+52	; 0x34
    404e:	8a e7       	ldi	r24, 0x7A	; 122
    4050:	90 e0       	ldi	r25, 0x00	; 0
    4052:	0e 94 16 2c 	call	0x582c	; 0x582c <eeprom_update_byte>
      eeprom_update_byte((uint8_t*)123, 0x00);
    4056:	60 e0       	ldi	r22, 0x00	; 0
    4058:	8b e7       	ldi	r24, 0x7B	; 123
    405a:	90 e0       	ldi	r25, 0x00	; 0
    405c:	0e 94 16 2c 	call	0x582c	; 0x582c <eeprom_update_byte>
    4060:	59 c0       	rjmp	.+178    	; 0x4114 <_ZN4Game3endEv+0x1be>
    }

    else if (m_ScoreTemp > thirdScore)
    4062:	8c a1       	ldd	r24, Y+36	; 0x24
    4064:	9d a1       	ldd	r25, Y+37	; 0x25
    4066:	86 17       	cp	r24, r22
    4068:	97 07       	cpc	r25, r23
    406a:	c8 f4       	brcc	.+50     	; 0x409e <_ZN4Game3endEv+0x148>
    {
      eeprom_update_word((uint16_t*)30, m_ScoreTemp);
    406c:	8e e1       	ldi	r24, 0x1E	; 30
    406e:	90 e0       	ldi	r25, 0x00	; 0
    4070:	0e 94 28 2c 	call	0x5850	; 0x5850 <eeprom_update_word>
      eeprom_update_byte((uint8_t*)130, tempName1st);
    4074:	6a a9       	ldd	r22, Y+50	; 0x32
    4076:	82 e8       	ldi	r24, 0x82	; 130
    4078:	90 e0       	ldi	r25, 0x00	; 0
    407a:	0e 94 16 2c 	call	0x582c	; 0x582c <eeprom_update_byte>
      eeprom_update_byte((uint8_t*)131, tempName2nd);
    407e:	6b a9       	ldd	r22, Y+51	; 0x33
    4080:	83 e8       	ldi	r24, 0x83	; 131
    4082:	90 e0       	ldi	r25, 0x00	; 0
    4084:	0e 94 16 2c 	call	0x582c	; 0x582c <eeprom_update_byte>
      eeprom_update_byte((uint8_t*)132, tempName3rd);
    4088:	6c a9       	ldd	r22, Y+52	; 0x34
    408a:	84 e8       	ldi	r24, 0x84	; 132
    408c:	90 e0       	ldi	r25, 0x00	; 0
    408e:	0e 94 16 2c 	call	0x582c	; 0x582c <eeprom_update_byte>
      eeprom_update_byte((uint8_t*)133, 0x00);
    4092:	60 e0       	ldi	r22, 0x00	; 0
    4094:	85 e8       	ldi	r24, 0x85	; 133
    4096:	90 e0       	ldi	r25, 0x00	; 0
    4098:	0e 94 16 2c 	call	0x582c	; 0x582c <eeprom_update_byte>
    409c:	3b c0       	rjmp	.+118    	; 0x4114 <_ZN4Game3endEv+0x1be>
    }

    else if (m_ScoreTemp > fourthScore)
    409e:	8a a5       	ldd	r24, Y+42	; 0x2a
    40a0:	9b a5       	ldd	r25, Y+43	; 0x2b
    40a2:	86 17       	cp	r24, r22
    40a4:	97 07       	cpc	r25, r23
    40a6:	c8 f4       	brcc	.+50     	; 0x40da <_ZN4Game3endEv+0x184>
    {
      eeprom_update_word((uint16_t*)40, m_ScoreTemp);
    40a8:	88 e2       	ldi	r24, 0x28	; 40
    40aa:	90 e0       	ldi	r25, 0x00	; 0
    40ac:	0e 94 28 2c 	call	0x5850	; 0x5850 <eeprom_update_word>
      eeprom_update_byte((uint8_t*)140, tempName1st);
    40b0:	6a a9       	ldd	r22, Y+50	; 0x32
    40b2:	8c e8       	ldi	r24, 0x8C	; 140
    40b4:	90 e0       	ldi	r25, 0x00	; 0
    40b6:	0e 94 16 2c 	call	0x582c	; 0x582c <eeprom_update_byte>
      eeprom_update_byte((uint8_t*)141, tempName2nd);
    40ba:	6b a9       	ldd	r22, Y+51	; 0x33
    40bc:	8d e8       	ldi	r24, 0x8D	; 141
    40be:	90 e0       	ldi	r25, 0x00	; 0
    40c0:	0e 94 16 2c 	call	0x582c	; 0x582c <eeprom_update_byte>
      eeprom_update_byte((uint8_t*)142, tempName3rd);
    40c4:	6c a9       	ldd	r22, Y+52	; 0x34
    40c6:	8e e8       	ldi	r24, 0x8E	; 142
    40c8:	90 e0       	ldi	r25, 0x00	; 0
    40ca:	0e 94 16 2c 	call	0x582c	; 0x582c <eeprom_update_byte>
      eeprom_update_byte((uint8_t*)143, 0x00);
    40ce:	60 e0       	ldi	r22, 0x00	; 0
    40d0:	8f e8       	ldi	r24, 0x8F	; 143
    40d2:	90 e0       	ldi	r25, 0x00	; 0
    40d4:	0e 94 16 2c 	call	0x582c	; 0x582c <eeprom_update_byte>
    40d8:	1d c0       	rjmp	.+58     	; 0x4114 <_ZN4Game3endEv+0x1be>
    }

    else if (m_ScoreTemp > fifthScore)
    40da:	88 a9       	ldd	r24, Y+48	; 0x30
    40dc:	99 a9       	ldd	r25, Y+49	; 0x31
    40de:	86 17       	cp	r24, r22
    40e0:	97 07       	cpc	r25, r23
    40e2:	c0 f4       	brcc	.+48     	; 0x4114 <_ZN4Game3endEv+0x1be>
    {
      eeprom_update_word((uint16_t*)50, m_ScoreTemp);
    40e4:	82 e3       	ldi	r24, 0x32	; 50
    40e6:	90 e0       	ldi	r25, 0x00	; 0
    40e8:	0e 94 28 2c 	call	0x5850	; 0x5850 <eeprom_update_word>
      eeprom_update_byte((uint8_t*)150, tempName1st);
    40ec:	6a a9       	ldd	r22, Y+50	; 0x32
    40ee:	86 e9       	ldi	r24, 0x96	; 150
    40f0:	90 e0       	ldi	r25, 0x00	; 0
    40f2:	0e 94 16 2c 	call	0x582c	; 0x582c <eeprom_update_byte>
      eeprom_update_byte((uint8_t*)151, tempName2nd);
    40f6:	6b a9       	ldd	r22, Y+51	; 0x33
    40f8:	87 e9       	ldi	r24, 0x97	; 151
    40fa:	90 e0       	ldi	r25, 0x00	; 0
    40fc:	0e 94 16 2c 	call	0x582c	; 0x582c <eeprom_update_byte>
      eeprom_update_byte((uint8_t*)152, tempName3rd);
    4100:	6c a9       	ldd	r22, Y+52	; 0x34
    4102:	88 e9       	ldi	r24, 0x98	; 152
    4104:	90 e0       	ldi	r25, 0x00	; 0
    4106:	0e 94 16 2c 	call	0x582c	; 0x582c <eeprom_update_byte>
      eeprom_update_byte((uint8_t*)153, 0x00);
    410a:	60 e0       	ldi	r22, 0x00	; 0
    410c:	89 e9       	ldi	r24, 0x99	; 153
    410e:	90 e0       	ldi	r25, 0x00	; 0
    4110:	0e 94 16 2c 	call	0x582c	; 0x582c <eeprom_update_byte>
    }
  }

}
    4114:	df 91       	pop	r29
    4116:	cf 91       	pop	r28
    4118:	1f 91       	pop	r17
    411a:	0f 91       	pop	r16
    411c:	ff 90       	pop	r15
    411e:	ef 90       	pop	r14
    4120:	df 90       	pop	r13
    4122:	cf 90       	pop	r12
    4124:	08 95       	ret

00004126 <_ZN4Game10resetScoreEv>:
//----------------------------------------*/

void Game::resetScore(void)
{

  eeprom_update_word((uint16_t*)10, 2000);
    4126:	60 ed       	ldi	r22, 0xD0	; 208
    4128:	77 e0       	ldi	r23, 0x07	; 7
    412a:	8a e0       	ldi	r24, 0x0A	; 10
    412c:	90 e0       	ldi	r25, 0x00	; 0
    412e:	0e 94 28 2c 	call	0x5850	; 0x5850 <eeprom_update_word>
  eeprom_update_word((uint16_t*)20, 1000);
    4132:	68 ee       	ldi	r22, 0xE8	; 232
    4134:	73 e0       	ldi	r23, 0x03	; 3
    4136:	84 e1       	ldi	r24, 0x14	; 20
    4138:	90 e0       	ldi	r25, 0x00	; 0
    413a:	0e 94 28 2c 	call	0x5850	; 0x5850 <eeprom_update_word>
  eeprom_update_word((uint16_t*)30, 800);
    413e:	60 e2       	ldi	r22, 0x20	; 32
    4140:	73 e0       	ldi	r23, 0x03	; 3
    4142:	8e e1       	ldi	r24, 0x1E	; 30
    4144:	90 e0       	ldi	r25, 0x00	; 0
    4146:	0e 94 28 2c 	call	0x5850	; 0x5850 <eeprom_update_word>
  eeprom_update_word((uint16_t*)40, 600);
    414a:	68 e5       	ldi	r22, 0x58	; 88
    414c:	72 e0       	ldi	r23, 0x02	; 2
    414e:	88 e2       	ldi	r24, 0x28	; 40
    4150:	90 e0       	ldi	r25, 0x00	; 0
    4152:	0e 94 28 2c 	call	0x5850	; 0x5850 <eeprom_update_word>
  eeprom_update_word((uint16_t*)50, 400);
    4156:	60 e9       	ldi	r22, 0x90	; 144
    4158:	71 e0       	ldi	r23, 0x01	; 1
    415a:	82 e3       	ldi	r24, 0x32	; 50
    415c:	90 e0       	ldi	r25, 0x00	; 0
    415e:	0e 94 28 2c 	call	0x5850	; 0x5850 <eeprom_update_word>

  eeprom_update_byte((uint8_t*)110, 0x4B);
    4162:	6b e4       	ldi	r22, 0x4B	; 75
    4164:	8e e6       	ldi	r24, 0x6E	; 110
    4166:	90 e0       	ldi	r25, 0x00	; 0
    4168:	0e 94 16 2c 	call	0x582c	; 0x582c <eeprom_update_byte>
  eeprom_update_byte((uint8_t*)111, 0x50);
    416c:	60 e5       	ldi	r22, 0x50	; 80
    416e:	8f e6       	ldi	r24, 0x6F	; 111
    4170:	90 e0       	ldi	r25, 0x00	; 0
    4172:	0e 94 16 2c 	call	0x582c	; 0x582c <eeprom_update_byte>
  eeprom_update_byte((uint8_t*)112, 0x4F);
    4176:	6f e4       	ldi	r22, 0x4F	; 79
    4178:	80 e7       	ldi	r24, 0x70	; 112
    417a:	90 e0       	ldi	r25, 0x00	; 0
    417c:	0e 94 16 2c 	call	0x582c	; 0x582c <eeprom_update_byte>
  eeprom_update_byte((uint8_t*)113, 0x00);
    4180:	60 e0       	ldi	r22, 0x00	; 0
    4182:	81 e7       	ldi	r24, 0x71	; 113
    4184:	90 e0       	ldi	r25, 0x00	; 0
    4186:	0e 94 16 2c 	call	0x582c	; 0x582c <eeprom_update_byte>
    
  eeprom_update_byte((uint8_t*)120, 0x41);
    418a:	61 e4       	ldi	r22, 0x41	; 65
    418c:	88 e7       	ldi	r24, 0x78	; 120
    418e:	90 e0       	ldi	r25, 0x00	; 0
    4190:	0e 94 16 2c 	call	0x582c	; 0x582c <eeprom_update_byte>
  eeprom_update_byte((uint8_t*)121, 0x42);
    4194:	62 e4       	ldi	r22, 0x42	; 66
    4196:	89 e7       	ldi	r24, 0x79	; 121
    4198:	90 e0       	ldi	r25, 0x00	; 0
    419a:	0e 94 16 2c 	call	0x582c	; 0x582c <eeprom_update_byte>
  eeprom_update_byte((uint8_t*)122, 0x43);
    419e:	63 e4       	ldi	r22, 0x43	; 67
    41a0:	8a e7       	ldi	r24, 0x7A	; 122
    41a2:	90 e0       	ldi	r25, 0x00	; 0
    41a4:	0e 94 16 2c 	call	0x582c	; 0x582c <eeprom_update_byte>
  eeprom_update_byte((uint8_t*)123, 0x00);
    41a8:	60 e0       	ldi	r22, 0x00	; 0
    41aa:	8b e7       	ldi	r24, 0x7B	; 123
    41ac:	90 e0       	ldi	r25, 0x00	; 0
    41ae:	0e 94 16 2c 	call	0x582c	; 0x582c <eeprom_update_byte>
    
  eeprom_update_byte((uint8_t*)130, 0x44);
    41b2:	64 e4       	ldi	r22, 0x44	; 68
    41b4:	82 e8       	ldi	r24, 0x82	; 130
    41b6:	90 e0       	ldi	r25, 0x00	; 0
    41b8:	0e 94 16 2c 	call	0x582c	; 0x582c <eeprom_update_byte>
  eeprom_update_byte((uint8_t*)131, 0x45);
    41bc:	65 e4       	ldi	r22, 0x45	; 69
    41be:	83 e8       	ldi	r24, 0x83	; 131
    41c0:	90 e0       	ldi	r25, 0x00	; 0
    41c2:	0e 94 16 2c 	call	0x582c	; 0x582c <eeprom_update_byte>
  eeprom_update_byte((uint8_t*)132, 0x46);
    41c6:	66 e4       	ldi	r22, 0x46	; 70
    41c8:	84 e8       	ldi	r24, 0x84	; 132
    41ca:	90 e0       	ldi	r25, 0x00	; 0
    41cc:	0e 94 16 2c 	call	0x582c	; 0x582c <eeprom_update_byte>
  eeprom_update_byte((uint8_t*)133, 0x00);
    41d0:	60 e0       	ldi	r22, 0x00	; 0
    41d2:	85 e8       	ldi	r24, 0x85	; 133
    41d4:	90 e0       	ldi	r25, 0x00	; 0
    41d6:	0e 94 16 2c 	call	0x582c	; 0x582c <eeprom_update_byte>
    
  eeprom_update_byte((uint8_t*)140, 0x47);
    41da:	67 e4       	ldi	r22, 0x47	; 71
    41dc:	8c e8       	ldi	r24, 0x8C	; 140
    41de:	90 e0       	ldi	r25, 0x00	; 0
    41e0:	0e 94 16 2c 	call	0x582c	; 0x582c <eeprom_update_byte>
  eeprom_update_byte((uint8_t*)141, 0x48);
    41e4:	68 e4       	ldi	r22, 0x48	; 72
    41e6:	8d e8       	ldi	r24, 0x8D	; 141
    41e8:	90 e0       	ldi	r25, 0x00	; 0
    41ea:	0e 94 16 2c 	call	0x582c	; 0x582c <eeprom_update_byte>
  eeprom_update_byte((uint8_t*)142, 0x49);
    41ee:	69 e4       	ldi	r22, 0x49	; 73
    41f0:	8e e8       	ldi	r24, 0x8E	; 142
    41f2:	90 e0       	ldi	r25, 0x00	; 0
    41f4:	0e 94 16 2c 	call	0x582c	; 0x582c <eeprom_update_byte>
  eeprom_update_byte((uint8_t*)143, 0x00);
    41f8:	60 e0       	ldi	r22, 0x00	; 0
    41fa:	8f e8       	ldi	r24, 0x8F	; 143
    41fc:	90 e0       	ldi	r25, 0x00	; 0
    41fe:	0e 94 16 2c 	call	0x582c	; 0x582c <eeprom_update_byte>
    
  eeprom_update_byte((uint8_t*)150, 0x4A);
    4202:	6a e4       	ldi	r22, 0x4A	; 74
    4204:	86 e9       	ldi	r24, 0x96	; 150
    4206:	90 e0       	ldi	r25, 0x00	; 0
    4208:	0e 94 16 2c 	call	0x582c	; 0x582c <eeprom_update_byte>
  eeprom_update_byte((uint8_t*)151, 0x4B);
    420c:	6b e4       	ldi	r22, 0x4B	; 75
    420e:	87 e9       	ldi	r24, 0x97	; 151
    4210:	90 e0       	ldi	r25, 0x00	; 0
    4212:	0e 94 16 2c 	call	0x582c	; 0x582c <eeprom_update_byte>
  eeprom_update_byte((uint8_t*)152, 0x4C);
    4216:	6c e4       	ldi	r22, 0x4C	; 76
    4218:	88 e9       	ldi	r24, 0x98	; 152
    421a:	90 e0       	ldi	r25, 0x00	; 0
    421c:	0e 94 16 2c 	call	0x582c	; 0x582c <eeprom_update_byte>
  eeprom_update_byte((uint8_t*)153, 0x00);
    4220:	60 e0       	ldi	r22, 0x00	; 0
    4222:	89 e9       	ldi	r24, 0x99	; 153
    4224:	90 e0       	ldi	r25, 0x00	; 0
    4226:	0e 94 16 2c 	call	0x582c	; 0x582c <eeprom_update_byte>

  eeprom_update_byte((uint8_t*)200, 0x01);
    422a:	61 e0       	ldi	r22, 0x01	; 1
    422c:	88 ec       	ldi	r24, 0xC8	; 200
    422e:	90 e0       	ldi	r25, 0x00	; 0
    4230:	0e 94 16 2c 	call	0x582c	; 0x582c <eeprom_update_byte>
    4234:	08 95       	ret

00004236 <_ZN4Game9readScoreEv>:
/*----------------------------------------//
                Read Score
//----------------------------------------*/

void Game::readScore(void)
{
    4236:	cf 93       	push	r28
    4238:	df 93       	push	r29
    423a:	ec 01       	movw	r28, r24

  firstScore = eeprom_read_word((uint16_t*)10);
    423c:	8a e0       	ldi	r24, 0x0A	; 10
    423e:	90 e0       	ldi	r25, 0x00	; 0
    4240:	0e 94 10 2c 	call	0x5820	; 0x5820 <eeprom_read_word>
    4244:	99 8f       	std	Y+25, r25	; 0x19
    4246:	88 8f       	std	Y+24, r24	; 0x18
  secondScore = eeprom_read_word((uint16_t*)20);
    4248:	84 e1       	ldi	r24, 0x14	; 20
    424a:	90 e0       	ldi	r25, 0x00	; 0
    424c:	0e 94 10 2c 	call	0x5820	; 0x5820 <eeprom_read_word>
    4250:	9f 8f       	std	Y+31, r25	; 0x1f
    4252:	8e 8f       	std	Y+30, r24	; 0x1e
  thirdScore = eeprom_read_word((uint16_t*)30);
    4254:	8e e1       	ldi	r24, 0x1E	; 30
    4256:	90 e0       	ldi	r25, 0x00	; 0
    4258:	0e 94 10 2c 	call	0x5820	; 0x5820 <eeprom_read_word>
    425c:	9d a3       	std	Y+37, r25	; 0x25
    425e:	8c a3       	std	Y+36, r24	; 0x24
  fourthScore = eeprom_read_word((uint16_t*)40);
    4260:	88 e2       	ldi	r24, 0x28	; 40
    4262:	90 e0       	ldi	r25, 0x00	; 0
    4264:	0e 94 10 2c 	call	0x5820	; 0x5820 <eeprom_read_word>
    4268:	9b a7       	std	Y+43, r25	; 0x2b
    426a:	8a a7       	std	Y+42, r24	; 0x2a
  fifthScore = eeprom_read_word((uint16_t*)50);
    426c:	82 e3       	ldi	r24, 0x32	; 50
    426e:	90 e0       	ldi	r25, 0x00	; 0
    4270:	0e 94 10 2c 	call	0x5820	; 0x5820 <eeprom_read_word>
    4274:	99 ab       	std	Y+49, r25	; 0x31
    4276:	88 ab       	std	Y+48, r24	; 0x30

  firstName1st = eeprom_read_byte((uint8_t*)110);
    4278:	8e e6       	ldi	r24, 0x6E	; 110
    427a:	90 e0       	ldi	r25, 0x00	; 0
    427c:	0e 94 08 2c 	call	0x5810	; 0x5810 <eeprom_read_byte>
    4280:	8c 8b       	std	Y+20, r24	; 0x14
  firstName2nd = eeprom_read_byte((uint8_t*)111);
    4282:	8f e6       	ldi	r24, 0x6F	; 111
    4284:	90 e0       	ldi	r25, 0x00	; 0
    4286:	0e 94 08 2c 	call	0x5810	; 0x5810 <eeprom_read_byte>
    428a:	8d 8b       	std	Y+21, r24	; 0x15
  firstName3rd = eeprom_read_byte((uint8_t*)112);
    428c:	80 e7       	ldi	r24, 0x70	; 112
    428e:	90 e0       	ldi	r25, 0x00	; 0
    4290:	0e 94 08 2c 	call	0x5810	; 0x5810 <eeprom_read_byte>
    4294:	8e 8b       	std	Y+22, r24	; 0x16
  firstMode = eeprom_read_byte((uint8_t*)113);
    4296:	81 e7       	ldi	r24, 0x71	; 113
    4298:	90 e0       	ldi	r25, 0x00	; 0
    429a:	0e 94 08 2c 	call	0x5810	; 0x5810 <eeprom_read_byte>
    429e:	8f 8b       	std	Y+23, r24	; 0x17

  secondName1st = eeprom_read_byte((uint8_t*)120);
    42a0:	88 e7       	ldi	r24, 0x78	; 120
    42a2:	90 e0       	ldi	r25, 0x00	; 0
    42a4:	0e 94 08 2c 	call	0x5810	; 0x5810 <eeprom_read_byte>
    42a8:	8a 8f       	std	Y+26, r24	; 0x1a
  secondName2nd = eeprom_read_byte((uint8_t*)121);
    42aa:	89 e7       	ldi	r24, 0x79	; 121
    42ac:	90 e0       	ldi	r25, 0x00	; 0
    42ae:	0e 94 08 2c 	call	0x5810	; 0x5810 <eeprom_read_byte>
    42b2:	8b 8f       	std	Y+27, r24	; 0x1b
  secondName3rd = eeprom_read_byte((uint8_t*)122);
    42b4:	8a e7       	ldi	r24, 0x7A	; 122
    42b6:	90 e0       	ldi	r25, 0x00	; 0
    42b8:	0e 94 08 2c 	call	0x5810	; 0x5810 <eeprom_read_byte>
    42bc:	8c 8f       	std	Y+28, r24	; 0x1c
  secondMode = eeprom_read_byte((uint8_t*)123);
    42be:	8b e7       	ldi	r24, 0x7B	; 123
    42c0:	90 e0       	ldi	r25, 0x00	; 0
    42c2:	0e 94 08 2c 	call	0x5810	; 0x5810 <eeprom_read_byte>
    42c6:	8d 8f       	std	Y+29, r24	; 0x1d

  thirdName1st = eeprom_read_byte((uint8_t*)130);
    42c8:	82 e8       	ldi	r24, 0x82	; 130
    42ca:	90 e0       	ldi	r25, 0x00	; 0
    42cc:	0e 94 08 2c 	call	0x5810	; 0x5810 <eeprom_read_byte>
    42d0:	88 a3       	std	Y+32, r24	; 0x20
  thirdName2nd = eeprom_read_byte((uint8_t*)131);
    42d2:	83 e8       	ldi	r24, 0x83	; 131
    42d4:	90 e0       	ldi	r25, 0x00	; 0
    42d6:	0e 94 08 2c 	call	0x5810	; 0x5810 <eeprom_read_byte>
    42da:	89 a3       	std	Y+33, r24	; 0x21
  thirdName3rd = eeprom_read_byte((uint8_t*)132);
    42dc:	84 e8       	ldi	r24, 0x84	; 132
    42de:	90 e0       	ldi	r25, 0x00	; 0
    42e0:	0e 94 08 2c 	call	0x5810	; 0x5810 <eeprom_read_byte>
    42e4:	8a a3       	std	Y+34, r24	; 0x22
  thirdMode = eeprom_read_byte((uint8_t*)133);
    42e6:	85 e8       	ldi	r24, 0x85	; 133
    42e8:	90 e0       	ldi	r25, 0x00	; 0
    42ea:	0e 94 08 2c 	call	0x5810	; 0x5810 <eeprom_read_byte>
    42ee:	8b a3       	std	Y+35, r24	; 0x23

  fourthName1st = eeprom_read_byte((uint8_t*)140);
    42f0:	8c e8       	ldi	r24, 0x8C	; 140
    42f2:	90 e0       	ldi	r25, 0x00	; 0
    42f4:	0e 94 08 2c 	call	0x5810	; 0x5810 <eeprom_read_byte>
    42f8:	8e a3       	std	Y+38, r24	; 0x26
  fourthName2nd = eeprom_read_byte((uint8_t*)141);
    42fa:	8d e8       	ldi	r24, 0x8D	; 141
    42fc:	90 e0       	ldi	r25, 0x00	; 0
    42fe:	0e 94 08 2c 	call	0x5810	; 0x5810 <eeprom_read_byte>
    4302:	8f a3       	std	Y+39, r24	; 0x27
  fourthName3rd = eeprom_read_byte((uint8_t*)142);
    4304:	8e e8       	ldi	r24, 0x8E	; 142
    4306:	90 e0       	ldi	r25, 0x00	; 0
    4308:	0e 94 08 2c 	call	0x5810	; 0x5810 <eeprom_read_byte>
    430c:	88 a7       	std	Y+40, r24	; 0x28
  fourthMode = eeprom_read_byte((uint8_t*)143);
    430e:	8f e8       	ldi	r24, 0x8F	; 143
    4310:	90 e0       	ldi	r25, 0x00	; 0
    4312:	0e 94 08 2c 	call	0x5810	; 0x5810 <eeprom_read_byte>
    4316:	89 a7       	std	Y+41, r24	; 0x29

  fifthName1st = eeprom_read_byte((uint8_t*)150);
    4318:	86 e9       	ldi	r24, 0x96	; 150
    431a:	90 e0       	ldi	r25, 0x00	; 0
    431c:	0e 94 08 2c 	call	0x5810	; 0x5810 <eeprom_read_byte>
    4320:	8c a7       	std	Y+44, r24	; 0x2c
  fifthName2nd = eeprom_read_byte((uint8_t*)151);
    4322:	87 e9       	ldi	r24, 0x97	; 151
    4324:	90 e0       	ldi	r25, 0x00	; 0
    4326:	0e 94 08 2c 	call	0x5810	; 0x5810 <eeprom_read_byte>
    432a:	8d a7       	std	Y+45, r24	; 0x2d
  fifthName3rd = eeprom_read_byte((uint8_t*)152);
    432c:	88 e9       	ldi	r24, 0x98	; 152
    432e:	90 e0       	ldi	r25, 0x00	; 0
    4330:	0e 94 08 2c 	call	0x5810	; 0x5810 <eeprom_read_byte>
    4334:	8e a7       	std	Y+46, r24	; 0x2e
  fifthMode = eeprom_read_byte((uint8_t*)153);
    4336:	89 e9       	ldi	r24, 0x99	; 153
    4338:	90 e0       	ldi	r25, 0x00	; 0
    433a:	0e 94 08 2c 	call	0x5810	; 0x5810 <eeprom_read_byte>
    433e:	8f a7       	std	Y+47, r24	; 0x2f

  checkReset = eeprom_read_byte((uint8_t*)200);
    4340:	88 ec       	ldi	r24, 0xC8	; 200
    4342:	90 e0       	ldi	r25, 0x00	; 0
    4344:	0e 94 08 2c 	call	0x5810	; 0x5810 <eeprom_read_byte>
    4348:	8e ab       	std	Y+54, r24	; 0x36

    434a:	df 91       	pop	r29
    434c:	cf 91       	pop	r28
    434e:	08 95       	ret

00004350 <_ZN4Game5titleEv>:
/*----------------------------------------//
                Game title
//----------------------------------------*/

void Game::title(void)
{
    4350:	8f 92       	push	r8
    4352:	9f 92       	push	r9
    4354:	af 92       	push	r10
    4356:	bf 92       	push	r11
    4358:	cf 92       	push	r12
    435a:	df 92       	push	r13
    435c:	ef 92       	push	r14
    435e:	ff 92       	push	r15
    4360:	0f 93       	push	r16
    4362:	1f 93       	push	r17
    4364:	cf 93       	push	r28
    4366:	df 93       	push	r29
    4368:	ec 01       	movw	r28, r24

  if (m_IsReset == false)
    436a:	88 89       	ldd	r24, Y+16	; 0x10
    436c:	81 11       	cpse	r24, r1
    436e:	43 c0       	rjmp	.+134    	; 0x43f6 <_ZN4Game5titleEv+0xa6>
  {
    begin();
    4370:	ce 01       	movw	r24, r28
    4372:	0e 94 71 27 	call	0x4ee2	; 0x4ee2 <_ZN3TFT5beginEv>
    setRotation(0);
    4376:	60 e0       	ldi	r22, 0x00	; 0
    4378:	ce 01       	movw	r24, r28
    437a:	0e 94 c6 27 	call	0x4f8c	; 0x4f8c <_ZN3TFT11setRotationEa>

    fillScreen(WHITE);
    437e:	6f ef       	ldi	r22, 0xFF	; 255
    4380:	7f ef       	ldi	r23, 0xFF	; 255
    4382:	ce 01       	movw	r24, r28
    4384:	0e 94 22 28 	call	0x5044	; 0x5044 <_ZN3TFT10fillScreenEj>
    draw(8, 70, 304, 96, logoAtmel, BLACK, RED, BLUE, WHITE);
    4388:	8f ef       	ldi	r24, 0xFF	; 255
    438a:	8f 93       	push	r24
    438c:	8f 93       	push	r24
    438e:	0f 2e       	mov	r0, r31
    4390:	ff e1       	ldi	r31, 0x1F	; 31
    4392:	8f 2e       	mov	r8, r31
    4394:	91 2c       	mov	r9, r1
    4396:	f0 2d       	mov	r31, r0
    4398:	0f 2e       	mov	r0, r31
    439a:	a1 2c       	mov	r10, r1
    439c:	f8 ef       	ldi	r31, 0xF8	; 248
    439e:	bf 2e       	mov	r11, r31
    43a0:	f0 2d       	mov	r31, r0
    43a2:	c1 2c       	mov	r12, r1
    43a4:	d1 2c       	mov	r13, r1
    43a6:	0f 2e       	mov	r0, r31
    43a8:	f9 e7       	ldi	r31, 0x79	; 121
    43aa:	ef 2e       	mov	r14, r31
    43ac:	f4 e1       	ldi	r31, 0x14	; 20
    43ae:	ff 2e       	mov	r15, r31
    43b0:	f0 2d       	mov	r31, r0
    43b2:	00 e6       	ldi	r16, 0x60	; 96
    43b4:	10 e0       	ldi	r17, 0x00	; 0
    43b6:	20 e3       	ldi	r18, 0x30	; 48
    43b8:	31 e0       	ldi	r19, 0x01	; 1
    43ba:	46 e4       	ldi	r20, 0x46	; 70
    43bc:	50 e0       	ldi	r21, 0x00	; 0
    43be:	68 e0       	ldi	r22, 0x08	; 8
    43c0:	70 e0       	ldi	r23, 0x00	; 0
    43c2:	ce 01       	movw	r24, r28
    43c4:	0e 94 4a 29 	call	0x5294	; 0x5294 <_ZN3TFT4drawEiiiiPKhjjjj>
    43c8:	2f ef       	ldi	r18, 0xFF	; 255
    43ca:	8b e7       	ldi	r24, 0x7B	; 123
    43cc:	92 e9       	ldi	r25, 0x92	; 146
    43ce:	21 50       	subi	r18, 0x01	; 1
    43d0:	80 40       	sbci	r24, 0x00	; 0
    43d2:	90 40       	sbci	r25, 0x00	; 0
    43d4:	e1 f7       	brne	.-8      	; 0x43ce <_ZN4Game5titleEv+0x7e>
    43d6:	00 c0       	rjmp	.+0      	; 0x43d8 <_ZN4Game5titleEv+0x88>
    43d8:	00 00       	nop
public:
  Font() : TFT(){};
  Font(const uint8_t *bitmap) : TFT() { m_Bitmap = bitmap; }
  ~Font(){};

  void setFont(const uint8_t *bitmap) { m_Bitmap = bitmap; }
    43da:	89 e5       	ldi	r24, 0x59	; 89
    43dc:	9c e1       	ldi	r25, 0x1C	; 28
    43de:	9d 83       	std	Y+5, r25	; 0x05
    43e0:	8c 83       	std	Y+4, r24	; 0x04
  void setColor(uint16_t color0, uint16_t color1) { m_Background = color0; m_Colored = color1; }
    43e2:	1f 82       	std	Y+7, r1	; 0x07
    43e4:	1e 82       	std	Y+6, r1	; 0x06
    43e6:	8f ef       	ldi	r24, 0xFF	; 255
    43e8:	9f ef       	ldi	r25, 0xFF	; 255
    43ea:	99 87       	std	Y+9, r25	; 0x09
    43ec:	88 87       	std	Y+8, r24	; 0x08
    _delay_ms(3000);

    setFont(fontASCII);
    setColor(BLACK, WHITE);

    m_IsReset = true;
    43ee:	81 e0       	ldi	r24, 0x01	; 1
    43f0:	88 8b       	std	Y+16, r24	; 0x10
    43f2:	0f 90       	pop	r0
    43f4:	0f 90       	pop	r0
  }

  readScore();
    43f6:	ce 01       	movw	r24, r28
    43f8:	0e 94 1b 21 	call	0x4236	; 0x4236 <_ZN4Game9readScoreEv>

  if (checkReset != 0x01)
    43fc:	8e a9       	ldd	r24, Y+54	; 0x36
    43fe:	81 30       	cpi	r24, 0x01	; 1
    4400:	31 f0       	breq	.+12     	; 0x440e <_ZN4Game5titleEv+0xbe>
  {
    resetScore();
    4402:	ce 01       	movw	r24, r28
    4404:	0e 94 93 20 	call	0x4126	; 0x4126 <_ZN4Game10resetScoreEv>
    readScore();
    4408:	ce 01       	movw	r24, r28
    440a:	0e 94 1b 21 	call	0x4236	; 0x4236 <_ZN4Game9readScoreEv>
  }

  fillScreen(BLACK);
    440e:	60 e0       	ldi	r22, 0x00	; 0
    4410:	70 e0       	ldi	r23, 0x00	; 0
    4412:	ce 01       	movw	r24, r28
    4414:	0e 94 22 28 	call	0x5044	; 0x5044 <_ZN3TFT10fillScreenEj>
  draw(0, 16, 320, 224, titleMenu, BLACK, MAROON, RED, WHITE);
    4418:	8f ef       	ldi	r24, 0xFF	; 255
    441a:	8f 93       	push	r24
    441c:	8f 93       	push	r24
    441e:	0f 2e       	mov	r0, r31
    4420:	81 2c       	mov	r8, r1
    4422:	f8 ef       	ldi	r31, 0xF8	; 248
    4424:	9f 2e       	mov	r9, r31
    4426:	f0 2d       	mov	r31, r0
    4428:	0f 2e       	mov	r0, r31
    442a:	a1 2c       	mov	r10, r1
    442c:	f8 e7       	ldi	r31, 0x78	; 120
    442e:	bf 2e       	mov	r11, r31
    4430:	f0 2d       	mov	r31, r0
    4432:	c1 2c       	mov	r12, r1
    4434:	d1 2c       	mov	r13, r1
    4436:	0f 2e       	mov	r0, r31
    4438:	f9 ef       	ldi	r31, 0xF9	; 249
    443a:	ef 2e       	mov	r14, r31
    443c:	f2 e0       	ldi	r31, 0x02	; 2
    443e:	ff 2e       	mov	r15, r31
    4440:	f0 2d       	mov	r31, r0
    4442:	00 ee       	ldi	r16, 0xE0	; 224
    4444:	10 e0       	ldi	r17, 0x00	; 0
    4446:	20 e4       	ldi	r18, 0x40	; 64
    4448:	31 e0       	ldi	r19, 0x01	; 1
    444a:	40 e1       	ldi	r20, 0x10	; 16
    444c:	50 e0       	ldi	r21, 0x00	; 0
    444e:	60 e0       	ldi	r22, 0x00	; 0
    4450:	70 e0       	ldi	r23, 0x00	; 0
    4452:	ce 01       	movw	r24, r28
    4454:	0e 94 4a 29 	call	0x5294	; 0x5294 <_ZN3TFT4drawEiiiiPKhjjjj>
    4458:	2f ef       	ldi	r18, 0xFF	; 255
    445a:	81 ee       	ldi	r24, 0xE1	; 225
    445c:	94 e0       	ldi	r25, 0x04	; 4
    445e:	21 50       	subi	r18, 0x01	; 1
    4460:	80 40       	sbci	r24, 0x00	; 0
    4462:	90 40       	sbci	r25, 0x00	; 0
    4464:	e1 f7       	brne	.-8      	; 0x445e <_ZN4Game5titleEv+0x10e>
    4466:	00 c0       	rjmp	.+0      	; 0x4468 <_ZN4Game5titleEv+0x118>
    4468:	00 00       	nop
  _delay_ms(100);

  SW::init();
    446a:	0e 94 3c 27 	call	0x4e78	; 0x4e78 <_ZN2SW4initEv>
  Frame::init();
    446e:	0e 94 78 15 	call	0x2af0	; 0x2af0 <_ZN5Frame4initEv>

  void titleLoop(void);
  void startLoop(void);
  void endLoop(void);

  void init(void) { m_Cursor = 0; m_Temp = 0; m_ScoreTemp = 0;
    4472:	1a 86       	std	Y+10, r1	; 0x0a
    4474:	1b 86       	std	Y+11, r1	; 0x0b
    4476:	1d 86       	std	Y+13, r1	; 0x0d
    4478:	1c 86       	std	Y+12, r1	; 0x0c
    m_IsReset = false; m_IsHighSpeed = false; m_IsDrawed = false; Frame::scoreTime = 0; }
    447a:	18 8a       	std	Y+16, r1	; 0x10
    447c:	1a 8a       	std	Y+18, r1	; 0x12
    447e:	1b 8a       	std	Y+19, r1	; 0x13
    4480:	10 92 3a 02 	sts	0x023A, r1	; 0x80023a <_ZN5Frame9scoreTimeE+0x1>
    4484:	10 92 39 02 	sts	0x0239, r1	; 0x800239 <_ZN5Frame9scoreTimeE>
  Game::init();
  titleLoop();
    4488:	ce 01       	movw	r24, r28
    448a:	0e 94 99 15 	call	0x2b32	; 0x2b32 <_ZN4Game9titleLoopEv>

}
    448e:	0f 90       	pop	r0
    4490:	0f 90       	pop	r0
    4492:	df 91       	pop	r29
    4494:	cf 91       	pop	r28
    4496:	1f 91       	pop	r17
    4498:	0f 91       	pop	r16
    449a:	ff 90       	pop	r15
    449c:	ef 90       	pop	r14
    449e:	df 90       	pop	r13
    44a0:	cf 90       	pop	r12
    44a2:	bf 90       	pop	r11
    44a4:	af 90       	pop	r10
    44a6:	9f 90       	pop	r9
    44a8:	8f 90       	pop	r8
    44aa:	08 95       	ret

000044ac <_ZN6Object4ballEv>:
/*----------------------------------------//
                Object Ball
//----------------------------------------*/

void Object::ball(void)
{
    44ac:	8f 92       	push	r8
    44ae:	9f 92       	push	r9
    44b0:	af 92       	push	r10
    44b2:	bf 92       	push	r11
    44b4:	cf 92       	push	r12
    44b6:	df 92       	push	r13
    44b8:	ef 92       	push	r14
    44ba:	ff 92       	push	r15
    44bc:	0f 93       	push	r16
    44be:	1f 93       	push	r17
    44c0:	cf 93       	push	r28
    44c2:	df 93       	push	r29
    44c4:	ec 01       	movw	r28, r24

  if (m_MoveDistance < 304)
    44c6:	8e 85       	ldd	r24, Y+14	; 0x0e
    44c8:	9f 85       	ldd	r25, Y+15	; 0x0f
    44ca:	80 33       	cpi	r24, 0x30	; 48
    44cc:	21 e0       	ldi	r18, 0x01	; 1
    44ce:	92 07       	cpc	r25, r18
    44d0:	e4 f5       	brge	.+120    	; 0x454a <_ZN6Object4ballEv+0x9e>
  {
    xPosition = 304 - m_MoveDistance;
    44d2:	60 e3       	ldi	r22, 0x30	; 48
    44d4:	71 e0       	ldi	r23, 0x01	; 1
    44d6:	68 1b       	sub	r22, r24
    44d8:	79 0b       	sbc	r23, r25
    44da:	7d 8b       	std	Y+21, r23	; 0x15
    44dc:	6c 8b       	std	Y+20, r22	; 0x14
    draw(304 - m_MoveDistance, 164, 16, 16, ballTile, BLACK, DARKGRAY, GRAY, WHITE);
    44de:	8f ef       	ldi	r24, 0xFF	; 255
    44e0:	8f 93       	push	r24
    44e2:	8f 93       	push	r24
    44e4:	0f 2e       	mov	r0, r31
    44e6:	ff ee       	ldi	r31, 0xEF	; 239
    44e8:	8f 2e       	mov	r8, r31
    44ea:	fb e7       	ldi	r31, 0x7B	; 123
    44ec:	9f 2e       	mov	r9, r31
    44ee:	f0 2d       	mov	r31, r0
    44f0:	0f 2e       	mov	r0, r31
    44f2:	f7 ee       	ldi	r31, 0xE7	; 231
    44f4:	af 2e       	mov	r10, r31
    44f6:	f9 e3       	ldi	r31, 0x39	; 57
    44f8:	bf 2e       	mov	r11, r31
    44fa:	f0 2d       	mov	r31, r0
    44fc:	c1 2c       	mov	r12, r1
    44fe:	d1 2c       	mov	r13, r1
    4500:	0f 2e       	mov	r0, r31
    4502:	f9 e8       	ldi	r31, 0x89	; 137
    4504:	ef 2e       	mov	r14, r31
    4506:	ff e1       	ldi	r31, 0x1F	; 31
    4508:	ff 2e       	mov	r15, r31
    450a:	f0 2d       	mov	r31, r0
    450c:	00 e1       	ldi	r16, 0x10	; 16
    450e:	10 e0       	ldi	r17, 0x00	; 0
    4510:	20 e1       	ldi	r18, 0x10	; 16
    4512:	30 e0       	ldi	r19, 0x00	; 0
    4514:	44 ea       	ldi	r20, 0xA4	; 164
    4516:	50 e0       	ldi	r21, 0x00	; 0
    4518:	ce 01       	movw	r24, r28
    451a:	0e 94 4a 29 	call	0x5294	; 0x5294 <_ZN3TFT4drawEiiiiPKhjjjj>
    clear(320 - m_MoveDistance, 164, m_MoveSpeed + 2, 16, BLACK);
    451e:	2d 85       	ldd	r18, Y+13	; 0x0d
    4520:	02 2e       	mov	r0, r18
    4522:	00 0c       	add	r0, r0
    4524:	33 0b       	sbc	r19, r19
    4526:	2e 5f       	subi	r18, 0xFE	; 254
    4528:	3f 4f       	sbci	r19, 0xFF	; 255
    452a:	8e 85       	ldd	r24, Y+14	; 0x0e
    452c:	9f 85       	ldd	r25, Y+15	; 0x0f
    452e:	60 e4       	ldi	r22, 0x40	; 64
    4530:	71 e0       	ldi	r23, 0x01	; 1
    4532:	68 1b       	sub	r22, r24
    4534:	79 0b       	sbc	r23, r25
    4536:	e1 2c       	mov	r14, r1
    4538:	f1 2c       	mov	r15, r1
    453a:	44 ea       	ldi	r20, 0xA4	; 164
    453c:	50 e0       	ldi	r21, 0x00	; 0
    453e:	ce 01       	movw	r24, r28
    4540:	0e 94 67 28 	call	0x50ce	; 0x50ce <_ZN3TFT5clearEiiiij>
    4544:	0f 90       	pop	r0
    4546:	0f 90       	pop	r0
    4548:	0e c0       	rjmp	.+28     	; 0x4566 <_ZN6Object4ballEv+0xba>
  }

  else
  {
    clear(0, 164, 24, 16, BLACK);
    454a:	e1 2c       	mov	r14, r1
    454c:	f1 2c       	mov	r15, r1
    454e:	00 e1       	ldi	r16, 0x10	; 16
    4550:	10 e0       	ldi	r17, 0x00	; 0
    4552:	28 e1       	ldi	r18, 0x18	; 24
    4554:	30 e0       	ldi	r19, 0x00	; 0
    4556:	44 ea       	ldi	r20, 0xA4	; 164
    4558:	50 e0       	ldi	r21, 0x00	; 0
    455a:	60 e0       	ldi	r22, 0x00	; 0
    455c:	70 e0       	ldi	r23, 0x00	; 0
    455e:	ce 01       	movw	r24, r28
    4560:	0e 94 67 28 	call	0x50ce	; 0x50ce <_ZN3TFT5clearEiiiij>
    isRolling = false;
    4564:	1e 8a       	std	Y+22, r1	; 0x16
  }

}
    4566:	df 91       	pop	r29
    4568:	cf 91       	pop	r28
    456a:	1f 91       	pop	r17
    456c:	0f 91       	pop	r16
    456e:	ff 90       	pop	r15
    4570:	ef 90       	pop	r14
    4572:	df 90       	pop	r13
    4574:	cf 90       	pop	r12
    4576:	bf 90       	pop	r11
    4578:	af 90       	pop	r10
    457a:	9f 90       	pop	r9
    457c:	8f 90       	pop	r8
    457e:	08 95       	ret

00004580 <_ZN6Object4bombEv>:
/*----------------------------------------//
                Object Bomb
//----------------------------------------*/

void Object::bomb(void)
{
    4580:	8f 92       	push	r8
    4582:	9f 92       	push	r9
    4584:	af 92       	push	r10
    4586:	bf 92       	push	r11
    4588:	cf 92       	push	r12
    458a:	df 92       	push	r13
    458c:	ef 92       	push	r14
    458e:	ff 92       	push	r15
    4590:	0f 93       	push	r16
    4592:	1f 93       	push	r17
    4594:	cf 93       	push	r28
    4596:	df 93       	push	r29
    4598:	ec 01       	movw	r28, r24

  if (m_MoveDistance < 304)
    459a:	8e 85       	ldd	r24, Y+14	; 0x0e
    459c:	9f 85       	ldd	r25, Y+15	; 0x0f
    459e:	80 33       	cpi	r24, 0x30	; 48
    45a0:	21 e0       	ldi	r18, 0x01	; 1
    45a2:	92 07       	cpc	r25, r18
    45a4:	e4 f5       	brge	.+120    	; 0x461e <_ZN6Object4bombEv+0x9e>
  {
    xPosition = 304 - m_MoveDistance;
    45a6:	60 e3       	ldi	r22, 0x30	; 48
    45a8:	71 e0       	ldi	r23, 0x01	; 1
    45aa:	68 1b       	sub	r22, r24
    45ac:	79 0b       	sbc	r23, r25
    45ae:	7d 8b       	std	Y+21, r23	; 0x15
    45b0:	6c 8b       	std	Y+20, r22	; 0x14
    draw(304 - m_MoveDistance, 164, 16, 16, bombTile, BLACK, DARKGRAY, GRAY, WHITE);
    45b2:	8f ef       	ldi	r24, 0xFF	; 255
    45b4:	8f 93       	push	r24
    45b6:	8f 93       	push	r24
    45b8:	0f 2e       	mov	r0, r31
    45ba:	ff ee       	ldi	r31, 0xEF	; 239
    45bc:	8f 2e       	mov	r8, r31
    45be:	fb e7       	ldi	r31, 0x7B	; 123
    45c0:	9f 2e       	mov	r9, r31
    45c2:	f0 2d       	mov	r31, r0
    45c4:	0f 2e       	mov	r0, r31
    45c6:	f7 ee       	ldi	r31, 0xE7	; 231
    45c8:	af 2e       	mov	r10, r31
    45ca:	f9 e3       	ldi	r31, 0x39	; 57
    45cc:	bf 2e       	mov	r11, r31
    45ce:	f0 2d       	mov	r31, r0
    45d0:	c1 2c       	mov	r12, r1
    45d2:	d1 2c       	mov	r13, r1
    45d4:	0f 2e       	mov	r0, r31
    45d6:	f9 e7       	ldi	r31, 0x79	; 121
    45d8:	ef 2e       	mov	r14, r31
    45da:	ff e1       	ldi	r31, 0x1F	; 31
    45dc:	ff 2e       	mov	r15, r31
    45de:	f0 2d       	mov	r31, r0
    45e0:	00 e1       	ldi	r16, 0x10	; 16
    45e2:	10 e0       	ldi	r17, 0x00	; 0
    45e4:	20 e1       	ldi	r18, 0x10	; 16
    45e6:	30 e0       	ldi	r19, 0x00	; 0
    45e8:	44 ea       	ldi	r20, 0xA4	; 164
    45ea:	50 e0       	ldi	r21, 0x00	; 0
    45ec:	ce 01       	movw	r24, r28
    45ee:	0e 94 4a 29 	call	0x5294	; 0x5294 <_ZN3TFT4drawEiiiiPKhjjjj>
    clear(320 - m_MoveDistance, 164, m_MoveSpeed + 2, 16, BLACK);
    45f2:	2d 85       	ldd	r18, Y+13	; 0x0d
    45f4:	02 2e       	mov	r0, r18
    45f6:	00 0c       	add	r0, r0
    45f8:	33 0b       	sbc	r19, r19
    45fa:	2e 5f       	subi	r18, 0xFE	; 254
    45fc:	3f 4f       	sbci	r19, 0xFF	; 255
    45fe:	8e 85       	ldd	r24, Y+14	; 0x0e
    4600:	9f 85       	ldd	r25, Y+15	; 0x0f
    4602:	60 e4       	ldi	r22, 0x40	; 64
    4604:	71 e0       	ldi	r23, 0x01	; 1
    4606:	68 1b       	sub	r22, r24
    4608:	79 0b       	sbc	r23, r25
    460a:	e1 2c       	mov	r14, r1
    460c:	f1 2c       	mov	r15, r1
    460e:	44 ea       	ldi	r20, 0xA4	; 164
    4610:	50 e0       	ldi	r21, 0x00	; 0
    4612:	ce 01       	movw	r24, r28
    4614:	0e 94 67 28 	call	0x50ce	; 0x50ce <_ZN3TFT5clearEiiiij>
    4618:	0f 90       	pop	r0
    461a:	0f 90       	pop	r0
    461c:	41 c0       	rjmp	.+130    	; 0x46a0 <_ZN6Object4bombEv+0x120>
  }

  else
  {
    draw(0, 164, 16, 16, fireTile, BLACK, RED, YELLOW, WHITE);
    461e:	8f ef       	ldi	r24, 0xFF	; 255
    4620:	8f 93       	push	r24
    4622:	8f 93       	push	r24
    4624:	0f 2e       	mov	r0, r31
    4626:	f0 ee       	ldi	r31, 0xE0	; 224
    4628:	8f 2e       	mov	r8, r31
    462a:	99 24       	eor	r9, r9
    462c:	9a 94       	dec	r9
    462e:	f0 2d       	mov	r31, r0
    4630:	0f 2e       	mov	r0, r31
    4632:	a1 2c       	mov	r10, r1
    4634:	f8 ef       	ldi	r31, 0xF8	; 248
    4636:	bf 2e       	mov	r11, r31
    4638:	f0 2d       	mov	r31, r0
    463a:	c1 2c       	mov	r12, r1
    463c:	d1 2c       	mov	r13, r1
    463e:	0f 2e       	mov	r0, r31
    4640:	f9 e6       	ldi	r31, 0x69	; 105
    4642:	ef 2e       	mov	r14, r31
    4644:	ff e1       	ldi	r31, 0x1F	; 31
    4646:	ff 2e       	mov	r15, r31
    4648:	f0 2d       	mov	r31, r0
    464a:	00 e1       	ldi	r16, 0x10	; 16
    464c:	10 e0       	ldi	r17, 0x00	; 0
    464e:	20 e1       	ldi	r18, 0x10	; 16
    4650:	30 e0       	ldi	r19, 0x00	; 0
    4652:	44 ea       	ldi	r20, 0xA4	; 164
    4654:	50 e0       	ldi	r21, 0x00	; 0
    4656:	60 e0       	ldi	r22, 0x00	; 0
    4658:	70 e0       	ldi	r23, 0x00	; 0
    465a:	ce 01       	movw	r24, r28
    465c:	0e 94 4a 29 	call	0x5294	; 0x5294 <_ZN3TFT4drawEiiiiPKhjjjj>
    clear(16, 164, 4, 16, BLACK);
    4660:	e1 2c       	mov	r14, r1
    4662:	f1 2c       	mov	r15, r1
    4664:	24 e0       	ldi	r18, 0x04	; 4
    4666:	30 e0       	ldi	r19, 0x00	; 0
    4668:	44 ea       	ldi	r20, 0xA4	; 164
    466a:	50 e0       	ldi	r21, 0x00	; 0
    466c:	60 e1       	ldi	r22, 0x10	; 16
    466e:	70 e0       	ldi	r23, 0x00	; 0
    4670:	ce 01       	movw	r24, r28
    4672:	0e 94 67 28 	call	0x50ce	; 0x50ce <_ZN3TFT5clearEiiiij>
    m_MoveDistance = 304;
    4676:	80 e3       	ldi	r24, 0x30	; 48
    4678:	91 e0       	ldi	r25, 0x01	; 1
    467a:	9f 87       	std	Y+15, r25	; 0x0f
    467c:	8e 87       	std	Y+14, r24	; 0x0e
    m_MoveTemp += 1;
    467e:	8c 85       	ldd	r24, Y+12	; 0x0c
    4680:	8f 5f       	subi	r24, 0xFF	; 255
    4682:	8c 87       	std	Y+12, r24	; 0x0c

    if (m_MoveTemp > 25)
    4684:	0f 90       	pop	r0
    4686:	0f 90       	pop	r0
    4688:	8a 31       	cpi	r24, 0x1A	; 26
    468a:	54 f0       	brlt	.+20     	; 0x46a0 <_ZN6Object4bombEv+0x120>
    {
      clear(0, 164, 24, 16, BLACK);
    468c:	28 e1       	ldi	r18, 0x18	; 24
    468e:	30 e0       	ldi	r19, 0x00	; 0
    4690:	44 ea       	ldi	r20, 0xA4	; 164
    4692:	50 e0       	ldi	r21, 0x00	; 0
    4694:	60 e0       	ldi	r22, 0x00	; 0
    4696:	70 e0       	ldi	r23, 0x00	; 0
    4698:	ce 01       	movw	r24, r28
    469a:	0e 94 67 28 	call	0x50ce	; 0x50ce <_ZN3TFT5clearEiiiij>
      isRolling = false;
    469e:	1e 8a       	std	Y+22, r1	; 0x16
    }
  }

}
    46a0:	df 91       	pop	r29
    46a2:	cf 91       	pop	r28
    46a4:	1f 91       	pop	r17
    46a6:	0f 91       	pop	r16
    46a8:	ff 90       	pop	r15
    46aa:	ef 90       	pop	r14
    46ac:	df 90       	pop	r13
    46ae:	cf 90       	pop	r12
    46b0:	bf 90       	pop	r11
    46b2:	af 90       	pop	r10
    46b4:	9f 90       	pop	r9
    46b6:	8f 90       	pop	r8
    46b8:	08 95       	ret

000046ba <_ZN6Object7presentEv>:
/*----------------------------------------//
              Object Present
//----------------------------------------*/

void Object::present(void)
{
    46ba:	8f 92       	push	r8
    46bc:	9f 92       	push	r9
    46be:	af 92       	push	r10
    46c0:	bf 92       	push	r11
    46c2:	cf 92       	push	r12
    46c4:	df 92       	push	r13
    46c6:	ef 92       	push	r14
    46c8:	ff 92       	push	r15
    46ca:	0f 93       	push	r16
    46cc:	1f 93       	push	r17
    46ce:	cf 93       	push	r28
    46d0:	df 93       	push	r29
    46d2:	ec 01       	movw	r28, r24

  if (m_MoveDistance < 304)
    46d4:	8e 85       	ldd	r24, Y+14	; 0x0e
    46d6:	9f 85       	ldd	r25, Y+15	; 0x0f
    46d8:	80 33       	cpi	r24, 0x30	; 48
    46da:	21 e0       	ldi	r18, 0x01	; 1
    46dc:	92 07       	cpc	r25, r18
    46de:	e4 f5       	brge	.+120    	; 0x4758 <_ZN6Object7presentEv+0x9e>
  {
    xPosition = 304 - m_MoveDistance;
    46e0:	60 e3       	ldi	r22, 0x30	; 48
    46e2:	71 e0       	ldi	r23, 0x01	; 1
    46e4:	68 1b       	sub	r22, r24
    46e6:	79 0b       	sbc	r23, r25
    46e8:	7d 8b       	std	Y+21, r23	; 0x15
    46ea:	6c 8b       	std	Y+20, r22	; 0x14
    draw(304 - m_MoveDistance, 164, 16, 16, presentTile, BLACK, MAROON, RED, WHITE);
    46ec:	8f ef       	ldi	r24, 0xFF	; 255
    46ee:	8f 93       	push	r24
    46f0:	8f 93       	push	r24
    46f2:	0f 2e       	mov	r0, r31
    46f4:	81 2c       	mov	r8, r1
    46f6:	f8 ef       	ldi	r31, 0xF8	; 248
    46f8:	9f 2e       	mov	r9, r31
    46fa:	f0 2d       	mov	r31, r0
    46fc:	0f 2e       	mov	r0, r31
    46fe:	a1 2c       	mov	r10, r1
    4700:	f8 e7       	ldi	r31, 0x78	; 120
    4702:	bf 2e       	mov	r11, r31
    4704:	f0 2d       	mov	r31, r0
    4706:	c1 2c       	mov	r12, r1
    4708:	d1 2c       	mov	r13, r1
    470a:	0f 2e       	mov	r0, r31
    470c:	f9 e5       	ldi	r31, 0x59	; 89
    470e:	ef 2e       	mov	r14, r31
    4710:	ff e1       	ldi	r31, 0x1F	; 31
    4712:	ff 2e       	mov	r15, r31
    4714:	f0 2d       	mov	r31, r0
    4716:	00 e1       	ldi	r16, 0x10	; 16
    4718:	10 e0       	ldi	r17, 0x00	; 0
    471a:	20 e1       	ldi	r18, 0x10	; 16
    471c:	30 e0       	ldi	r19, 0x00	; 0
    471e:	44 ea       	ldi	r20, 0xA4	; 164
    4720:	50 e0       	ldi	r21, 0x00	; 0
    4722:	ce 01       	movw	r24, r28
    4724:	0e 94 4a 29 	call	0x5294	; 0x5294 <_ZN3TFT4drawEiiiiPKhjjjj>
    clear(320 - m_MoveDistance, 164, m_MoveSpeed + 2, 16, BLACK);
    4728:	2d 85       	ldd	r18, Y+13	; 0x0d
    472a:	02 2e       	mov	r0, r18
    472c:	00 0c       	add	r0, r0
    472e:	33 0b       	sbc	r19, r19
    4730:	2e 5f       	subi	r18, 0xFE	; 254
    4732:	3f 4f       	sbci	r19, 0xFF	; 255
    4734:	8e 85       	ldd	r24, Y+14	; 0x0e
    4736:	9f 85       	ldd	r25, Y+15	; 0x0f
    4738:	60 e4       	ldi	r22, 0x40	; 64
    473a:	71 e0       	ldi	r23, 0x01	; 1
    473c:	68 1b       	sub	r22, r24
    473e:	79 0b       	sbc	r23, r25
    4740:	e1 2c       	mov	r14, r1
    4742:	f1 2c       	mov	r15, r1
    4744:	44 ea       	ldi	r20, 0xA4	; 164
    4746:	50 e0       	ldi	r21, 0x00	; 0
    4748:	ce 01       	movw	r24, r28
    474a:	0e 94 67 28 	call	0x50ce	; 0x50ce <_ZN3TFT5clearEiiiij>
    isPresent = true;
    474e:	81 e0       	ldi	r24, 0x01	; 1
    4750:	8f 8b       	std	Y+23, r24	; 0x17
    4752:	0f 90       	pop	r0
    4754:	0f 90       	pop	r0
    4756:	0f c0       	rjmp	.+30     	; 0x4776 <_ZN6Object7presentEv+0xbc>
  }

  else
  {
    clear(0, 164, 24, 16, BLACK);
    4758:	e1 2c       	mov	r14, r1
    475a:	f1 2c       	mov	r15, r1
    475c:	00 e1       	ldi	r16, 0x10	; 16
    475e:	10 e0       	ldi	r17, 0x00	; 0
    4760:	28 e1       	ldi	r18, 0x18	; 24
    4762:	30 e0       	ldi	r19, 0x00	; 0
    4764:	44 ea       	ldi	r20, 0xA4	; 164
    4766:	50 e0       	ldi	r21, 0x00	; 0
    4768:	60 e0       	ldi	r22, 0x00	; 0
    476a:	70 e0       	ldi	r23, 0x00	; 0
    476c:	ce 01       	movw	r24, r28
    476e:	0e 94 67 28 	call	0x50ce	; 0x50ce <_ZN3TFT5clearEiiiij>
    isRolling = false;
    4772:	1e 8a       	std	Y+22, r1	; 0x16
    isPresent = false;
    4774:	1f 8a       	std	Y+23, r1	; 0x17
  }

}
    4776:	df 91       	pop	r29
    4778:	cf 91       	pop	r28
    477a:	1f 91       	pop	r17
    477c:	0f 91       	pop	r16
    477e:	ff 90       	pop	r15
    4780:	ef 90       	pop	r14
    4782:	df 90       	pop	r13
    4784:	cf 90       	pop	r12
    4786:	bf 90       	pop	r11
    4788:	af 90       	pop	r10
    478a:	9f 90       	pop	r9
    478c:	8f 90       	pop	r8
    478e:	08 95       	ret

00004790 <_ZN6Object9rollBlockEv>:
/*----------------------------------------//
                Roll Object
//----------------------------------------*/

void Object::rollBlock(void)
{
    4790:	cf 93       	push	r28
    4792:	df 93       	push	r29
    4794:	fc 01       	movw	r30, r24

  if (m_Temp != Frame::oneTick)
    4796:	20 91 28 02 	lds	r18, 0x0228	; 0x800228 <_ZN5Frame7oneTickE>
    479a:	82 85       	ldd	r24, Z+10	; 0x0a
    479c:	08 2e       	mov	r0, r24
    479e:	00 0c       	add	r0, r0
    47a0:	99 0b       	sbc	r25, r25
    47a2:	42 2f       	mov	r20, r18
    47a4:	50 e0       	ldi	r21, 0x00	; 0
    47a6:	84 17       	cp	r24, r20
    47a8:	95 07       	cpc	r25, r21
    47aa:	a9 f0       	breq	.+42     	; 0x47d6 <_ZN6Object9rollBlockEv+0x46>
  {
    m_Temp = Frame::oneTick;
    47ac:	22 87       	std	Z+10, r18	; 0x0a

    if (Frame::oneTick == 2)
    47ae:	22 30       	cpi	r18, 0x02	; 2
    47b0:	71 f4       	brne	.+28     	; 0x47ce <_ZN6Object9rollBlockEv+0x3e>
    {
      m_MoveDistance += m_MoveSpeed;
    47b2:	25 85       	ldd	r18, Z+13	; 0x0d
    47b4:	86 85       	ldd	r24, Z+14	; 0x0e
    47b6:	97 85       	ldd	r25, Z+15	; 0x0f
    47b8:	82 0f       	add	r24, r18
    47ba:	91 1d       	adc	r25, r1
    47bc:	27 fd       	sbrc	r18, 7
    47be:	9a 95       	dec	r25
    47c0:	97 87       	std	Z+15, r25	; 0x0f
    47c2:	86 87       	std	Z+14, r24	; 0x0e
      m_IsDrawed = false;
    47c4:	13 8a       	std	Z+19, r1	; 0x13
        isRolling = false;
      }
    }
  }

  if (isRolling == true && m_IsDrawed == false)
    47c6:	86 89       	ldd	r24, Z+22	; 0x16
    47c8:	81 11       	cpse	r24, r1
    47ca:	0b c0       	rjmp	.+22     	; 0x47e2 <_ZN6Object9rollBlockEv+0x52>
    47cc:	22 c0       	rjmp	.+68     	; 0x4812 <_ZN6Object9rollBlockEv+0x82>
      m_IsDrawed = false;
    }

    else
    {
      if (isRolling == true)
    47ce:	86 89       	ldd	r24, Z+22	; 0x16
    47d0:	88 23       	and	r24, r24
    47d2:	f9 f0       	breq	.+62     	; 0x4812 <_ZN6Object9rollBlockEv+0x82>
    47d4:	24 c0       	rjmp	.+72     	; 0x481e <_ZN6Object9rollBlockEv+0x8e>
        isRolling = false;
      }
    }
  }

  if (isRolling == true && m_IsDrawed == false)
    47d6:	86 89       	ldd	r24, Z+22	; 0x16
    47d8:	88 23       	and	r24, r24
    47da:	d9 f0       	breq	.+54     	; 0x4812 <_ZN6Object9rollBlockEv+0x82>
    47dc:	83 89       	ldd	r24, Z+19	; 0x13
    47de:	81 11       	cpse	r24, r1
    47e0:	1e c0       	rjmp	.+60     	; 0x481e <_ZN6Object9rollBlockEv+0x8e>
    47e2:	ef 01       	movw	r28, r30
  {
    if (m_RandomNumber < 4)
    47e4:	80 89       	ldd	r24, Z+16	; 0x10
    47e6:	84 30       	cpi	r24, 0x04	; 4
    47e8:	20 f4       	brcc	.+8      	; 0x47f2 <_ZN6Object9rollBlockEv+0x62>
    {
      ball();
    47ea:	cf 01       	movw	r24, r30
    47ec:	0e 94 56 22 	call	0x44ac	; 0x44ac <_ZN6Object4ballEv>
    47f0:	0d c0       	rjmp	.+26     	; 0x480c <_ZN6Object9rollBlockEv+0x7c>
    }

    else if (m_RandomNumber >= 4 && m_RandomNumber < 6)
    47f2:	9c ef       	ldi	r25, 0xFC	; 252
    47f4:	98 0f       	add	r25, r24
    47f6:	92 30       	cpi	r25, 0x02	; 2
    47f8:	20 f4       	brcc	.+8      	; 0x4802 <_ZN6Object9rollBlockEv+0x72>
    {
      present();
    47fa:	cf 01       	movw	r24, r30
    47fc:	0e 94 5d 23 	call	0x46ba	; 0x46ba <_ZN6Object7presentEv>
    4800:	05 c0       	rjmp	.+10     	; 0x480c <_ZN6Object9rollBlockEv+0x7c>
    }

    else if (m_RandomNumber >= 6)
    4802:	86 30       	cpi	r24, 0x06	; 6
    4804:	18 f0       	brcs	.+6      	; 0x480c <_ZN6Object9rollBlockEv+0x7c>
    {
      bomb();
    4806:	cf 01       	movw	r24, r30
    4808:	0e 94 c0 22 	call	0x4580	; 0x4580 <_ZN6Object4bombEv>
    }

    m_IsDrawed = true;
    480c:	81 e0       	ldi	r24, 0x01	; 1
    480e:	8b 8b       	std	Y+19, r24	; 0x13
    4810:	06 c0       	rjmp	.+12     	; 0x481e <_ZN6Object9rollBlockEv+0x8e>
  }

  else if (isRolling == false)
  {
    if (m_RandomNumber == Frame::secondFrame)
    4812:	90 89       	ldd	r25, Z+16	; 0x10
    4814:	80 91 27 02 	lds	r24, 0x0227	; 0x800227 <_ZN5Frame11secondFrameE>
    4818:	98 13       	cpse	r25, r24
    481a:	01 c0       	rjmp	.+2      	; 0x481e <_ZN6Object9rollBlockEv+0x8e>
    {
      m_IsReset = false;
    481c:	12 8a       	std	Z+18, r1	; 0x12
    }
  }

}
    481e:	df 91       	pop	r29
    4820:	cf 91       	pop	r28
    4822:	08 95       	ret

00004824 <_ZN6Object14rollBackgroundEv>:
/*----------------------------------------//
                Roll Object
//----------------------------------------*/

void Object::rollBackground(void)
{
    4824:	af 92       	push	r10
    4826:	bf 92       	push	r11
    4828:	cf 92       	push	r12
    482a:	df 92       	push	r13
    482c:	ef 92       	push	r14
    482e:	ff 92       	push	r15
    4830:	0f 93       	push	r16
    4832:	1f 93       	push	r17
    4834:	cf 93       	push	r28
    4836:	df 93       	push	r29
    4838:	fc 01       	movw	r30, r24

  if (m_Temp != Frame::oneTick)
    483a:	20 91 28 02 	lds	r18, 0x0228	; 0x800228 <_ZN5Frame7oneTickE>
    483e:	82 85       	ldd	r24, Z+10	; 0x0a
    4840:	08 2e       	mov	r0, r24
    4842:	00 0c       	add	r0, r0
    4844:	99 0b       	sbc	r25, r25
    4846:	42 2f       	mov	r20, r18
    4848:	50 e0       	ldi	r21, 0x00	; 0
    484a:	84 17       	cp	r24, r20
    484c:	95 07       	cpc	r25, r21
    484e:	b1 f0       	breq	.+44     	; 0x487c <_ZN6Object14rollBackgroundEv+0x58>
  {
    m_Temp = Frame::oneTick;
    4850:	22 87       	std	Z+10, r18	; 0x0a
    m_rollTemp++;
    4852:	83 85       	ldd	r24, Z+11	; 0x0b
    4854:	8f 5f       	subi	r24, 0xFF	; 255
    4856:	83 87       	std	Z+11, r24	; 0x0b

    if (Frame::oneTick == 1 && m_rollTemp > m_MoveSpeed)
    4858:	21 30       	cpi	r18, 0x01	; 1
    485a:	09 f0       	breq	.+2      	; 0x485e <_ZN6Object14rollBackgroundEv+0x3a>
    485c:	46 c0       	rjmp	.+140    	; 0x48ea <_ZN6Object14rollBackgroundEv+0xc6>
    485e:	95 85       	ldd	r25, Z+13	; 0x0d
    4860:	98 17       	cp	r25, r24
    4862:	0c f0       	brlt	.+2      	; 0x4866 <_ZN6Object14rollBackgroundEv+0x42>
    4864:	42 c0       	rjmp	.+132    	; 0x48ea <_ZN6Object14rollBackgroundEv+0xc6>
    {
      m_rollTemp = 0;
    4866:	13 86       	std	Z+11, r1	; 0x0b
      m_MoveDistance += 1;
    4868:	86 85       	ldd	r24, Z+14	; 0x0e
    486a:	97 85       	ldd	r25, Z+15	; 0x0f
    486c:	01 96       	adiw	r24, 0x01	; 1
    486e:	97 87       	std	Z+15, r25	; 0x0f
    4870:	86 87       	std	Z+14, r24	; 0x0e
      m_IsDrawed = false;
    4872:	13 8a       	std	Z+19, r1	; 0x13
    {
      return;
    }
  }
  
  if (isRolling == true && m_IsDrawed == false)
    4874:	86 89       	ldd	r24, Z+22	; 0x16
    4876:	88 23       	and	r24, r24
    4878:	99 f1       	breq	.+102    	; 0x48e0 <_ZN6Object14rollBackgroundEv+0xbc>
    487a:	06 c0       	rjmp	.+12     	; 0x4888 <_ZN6Object14rollBackgroundEv+0x64>
    487c:	86 89       	ldd	r24, Z+22	; 0x16
    487e:	88 23       	and	r24, r24
    4880:	79 f1       	breq	.+94     	; 0x48e0 <_ZN6Object14rollBackgroundEv+0xbc>
    4882:	83 89       	ldd	r24, Z+19	; 0x13
    4884:	81 11       	cpse	r24, r1
    4886:	31 c0       	rjmp	.+98     	; 0x48ea <_ZN6Object14rollBackgroundEv+0xc6>
    4888:	ef 01       	movw	r28, r30
  {
    if ((m_Width - m_MoveDistance) > 0)
    488a:	66 81       	ldd	r22, Z+6	; 0x06
    488c:	77 81       	ldd	r23, Z+7	; 0x07
    488e:	86 85       	ldd	r24, Z+14	; 0x0e
    4890:	97 85       	ldd	r25, Z+15	; 0x0f
    4892:	68 1b       	sub	r22, r24
    4894:	79 0b       	sbc	r23, r25
    4896:	16 16       	cp	r1, r22
    4898:	17 06       	cpc	r1, r23
    489a:	8c f4       	brge	.+34     	; 0x48be <_ZN6Object14rollBackgroundEv+0x9a>
    {
      draw(m_Width - m_MoveDistance, m_Height, 16, 10, m_Bitmap, BLACK, WHITE);
    489c:	e4 80       	ldd	r14, Z+4	; 0x04
    489e:	f5 80       	ldd	r15, Z+5	; 0x05
    48a0:	40 85       	ldd	r20, Z+8	; 0x08
    48a2:	51 85       	ldd	r21, Z+9	; 0x09
    48a4:	aa 24       	eor	r10, r10
    48a6:	aa 94       	dec	r10
    48a8:	ba 2c       	mov	r11, r10
    48aa:	c1 2c       	mov	r12, r1
    48ac:	d1 2c       	mov	r13, r1
    48ae:	0a e0       	ldi	r16, 0x0A	; 10
    48b0:	10 e0       	ldi	r17, 0x00	; 0
    48b2:	20 e1       	ldi	r18, 0x10	; 16
    48b4:	30 e0       	ldi	r19, 0x00	; 0
    48b6:	cf 01       	movw	r24, r30
    48b8:	0e 94 a0 28 	call	0x5140	; 0x5140 <_ZN3TFT4drawEiiiiPKhjj>
    48bc:	0e c0       	rjmp	.+28     	; 0x48da <_ZN6Object14rollBackgroundEv+0xb6>
    }

    else
    {
      clear(0, m_Height, 20, 10, BLACK);
    48be:	40 85       	ldd	r20, Z+8	; 0x08
    48c0:	51 85       	ldd	r21, Z+9	; 0x09
    48c2:	e1 2c       	mov	r14, r1
    48c4:	f1 2c       	mov	r15, r1
    48c6:	0a e0       	ldi	r16, 0x0A	; 10
    48c8:	10 e0       	ldi	r17, 0x00	; 0
    48ca:	24 e1       	ldi	r18, 0x14	; 20
    48cc:	30 e0       	ldi	r19, 0x00	; 0
    48ce:	60 e0       	ldi	r22, 0x00	; 0
    48d0:	70 e0       	ldi	r23, 0x00	; 0
    48d2:	cf 01       	movw	r24, r30
    48d4:	0e 94 67 28 	call	0x50ce	; 0x50ce <_ZN3TFT5clearEiiiij>
      isRolling = false;
    48d8:	1e 8a       	std	Y+22, r1	; 0x16
    }
  
    m_IsDrawed = true;
    48da:	81 e0       	ldi	r24, 0x01	; 1
    48dc:	8b 8b       	std	Y+19, r24	; 0x13
    48de:	05 c0       	rjmp	.+10     	; 0x48ea <_ZN6Object14rollBackgroundEv+0xc6>
  }

  else if (isRolling == false)
  {
    m_Width = 304;
    48e0:	80 e3       	ldi	r24, 0x30	; 48
    48e2:	91 e0       	ldi	r25, 0x01	; 1
    48e4:	97 83       	std	Z+7, r25	; 0x07
    48e6:	86 83       	std	Z+6, r24	; 0x06
    m_IsReset = false;
    48e8:	12 8a       	std	Z+18, r1	; 0x12
  }

}
    48ea:	df 91       	pop	r29
    48ec:	cf 91       	pop	r28
    48ee:	1f 91       	pop	r17
    48f0:	0f 91       	pop	r16
    48f2:	ff 90       	pop	r15
    48f4:	ef 90       	pop	r14
    48f6:	df 90       	pop	r13
    48f8:	cf 90       	pop	r12
    48fa:	bf 90       	pop	r11
    48fc:	af 90       	pop	r10
    48fe:	08 95       	ret

00004900 <_ZN6Object4initEv>:
/*----------------------------------------//
            Initialize Object
//----------------------------------------*/

void Object::init(void)
{
    4900:	8f 92       	push	r8
    4902:	9f 92       	push	r9
    4904:	af 92       	push	r10
    4906:	bf 92       	push	r11
    4908:	cf 92       	push	r12
    490a:	df 92       	push	r13
    490c:	ef 92       	push	r14
    490e:	ff 92       	push	r15
    4910:	cf 93       	push	r28
    4912:	df 93       	push	r29
    4914:	ec 01       	movw	r28, r24
  xPosition = 0;
    4916:	1d 8a       	std	Y+21, r1	; 0x15
    4918:	1c 8a       	std	Y+20, r1	; 0x14
  m_Temp = 0;
    491a:	1a 86       	std	Y+10, r1	; 0x0a
  m_MoveTemp = 0;
    491c:	1c 86       	std	Y+12, r1	; 0x0c
  m_MoveDistance = 0;
    491e:	1f 86       	std	Y+15, r1	; 0x0f
    4920:	1e 86       	std	Y+14, r1	; 0x0e
  m_RandomNumber = (Frame::presentTime * Frame::oneTick) % 10;
    4922:	80 90 35 02 	lds	r8, 0x0235	; 0x800235 <_ZN5Frame11presentTimeE>
    4926:	90 90 36 02 	lds	r9, 0x0236	; 0x800236 <_ZN5Frame11presentTimeE+0x1>
    492a:	a0 90 37 02 	lds	r10, 0x0237	; 0x800237 <_ZN5Frame11presentTimeE+0x2>
    492e:	b0 90 38 02 	lds	r11, 0x0238	; 0x800238 <_ZN5Frame11presentTimeE+0x3>
  m_RandomNumber = (Frame::presentTime * m_RandomNumber) % 10;
    4932:	a0 91 28 02 	lds	r26, 0x0228	; 0x800228 <_ZN5Frame7oneTickE>
    4936:	b0 e0       	ldi	r27, 0x00	; 0
    4938:	a5 01       	movw	r20, r10
    493a:	94 01       	movw	r18, r8
    493c:	0e 94 e8 2b 	call	0x57d0	; 0x57d0 <__muluhisi3>
    4940:	0f 2e       	mov	r0, r31
    4942:	fa e0       	ldi	r31, 0x0A	; 10
    4944:	cf 2e       	mov	r12, r31
    4946:	d1 2c       	mov	r13, r1
    4948:	e1 2c       	mov	r14, r1
    494a:	f1 2c       	mov	r15, r1
    494c:	f0 2d       	mov	r31, r0
    494e:	a7 01       	movw	r20, r14
    4950:	96 01       	movw	r18, r12
    4952:	0e 94 c6 2b 	call	0x578c	; 0x578c <__udivmodsi4>
    4956:	a6 2f       	mov	r26, r22
    4958:	b0 e0       	ldi	r27, 0x00	; 0
    495a:	a5 01       	movw	r20, r10
    495c:	94 01       	movw	r18, r8
    495e:	0e 94 e8 2b 	call	0x57d0	; 0x57d0 <__muluhisi3>
    4962:	a7 01       	movw	r20, r14
    4964:	96 01       	movw	r18, r12
    4966:	0e 94 c6 2b 	call	0x578c	; 0x578c <__udivmodsi4>
    496a:	68 8b       	std	Y+16, r22	; 0x10
    496c:	df 91       	pop	r29
    496e:	cf 91       	pop	r28
    4970:	ff 90       	pop	r15
    4972:	ef 90       	pop	r14
    4974:	df 90       	pop	r13
    4976:	cf 90       	pop	r12
    4978:	bf 90       	pop	r11
    497a:	af 90       	pop	r10
    497c:	9f 90       	pop	r9
    497e:	8f 90       	pop	r8
    4980:	08 95       	ret

00004982 <_ZN6Object5startEv>:
/*----------------------------------------//
              Start Object
//----------------------------------------*/

void Object::start(void)
{
    4982:	cf 93       	push	r28
    4984:	df 93       	push	r29
    4986:	ec 01       	movw	r28, r24

  if (m_IsReset == false)
    4988:	8a 89       	ldd	r24, Y+18	; 0x12
    498a:	81 11       	cpse	r24, r1
    498c:	06 c0       	rjmp	.+12     	; 0x499a <_ZN6Object5startEv+0x18>
  {
    init();
    498e:	ce 01       	movw	r24, r28
    4990:	0e 94 80 24 	call	0x4900	; 0x4900 <_ZN6Object4initEv>
    m_IsReset = true;
    4994:	81 e0       	ldi	r24, 0x01	; 1
    4996:	8a 8b       	std	Y+18, r24	; 0x12
    isRolling = true;
    4998:	8e 8b       	std	Y+22, r24	; 0x16
  }
  
  if (m_IsBlock == true)
    499a:	89 89       	ldd	r24, Y+17	; 0x11
    499c:	88 23       	and	r24, r24
    499e:	21 f0       	breq	.+8      	; 0x49a8 <_ZN6Object5startEv+0x26>
  {
    rollBlock();
    49a0:	ce 01       	movw	r24, r28
    49a2:	0e 94 c8 23 	call	0x4790	; 0x4790 <_ZN6Object9rollBlockEv>
    49a6:	03 c0       	rjmp	.+6      	; 0x49ae <_ZN6Object5startEv+0x2c>
  }

  else
  {
    rollBackground();
    49a8:	ce 01       	movw	r24, r28
    49aa:	0e 94 12 24 	call	0x4824	; 0x4824 <_ZN6Object14rollBackgroundEv>
  }
  
}
    49ae:	df 91       	pop	r29
    49b0:	cf 91       	pop	r28
    49b2:	08 95       	ret

000049b4 <_ZN6Player7runningEv>:
/*----------------------------------------//
              Running Player
//----------------------------------------*/

void Player::running(void)
{
    49b4:	4f 92       	push	r4
    49b6:	5f 92       	push	r5
    49b8:	6f 92       	push	r6
    49ba:	7f 92       	push	r7
    49bc:	8f 92       	push	r8
    49be:	9f 92       	push	r9
    49c0:	af 92       	push	r10
    49c2:	bf 92       	push	r11
    49c4:	cf 92       	push	r12
    49c6:	df 92       	push	r13
    49c8:	ef 92       	push	r14
    49ca:	ff 92       	push	r15
    49cc:	0f 93       	push	r16
    49ce:	1f 93       	push	r17
    49d0:	cf 93       	push	r28
    49d2:	df 93       	push	r29
    49d4:	fc 01       	movw	r30, r24

  if (m_Temp != Frame::oneTick)
    49d6:	20 91 28 02 	lds	r18, 0x0228	; 0x800228 <_ZN5Frame7oneTickE>
    49da:	84 81       	ldd	r24, Z+4	; 0x04
    49dc:	08 2e       	mov	r0, r24
    49de:	00 0c       	add	r0, r0
    49e0:	99 0b       	sbc	r25, r25
    49e2:	42 2f       	mov	r20, r18
    49e4:	50 e0       	ldi	r21, 0x00	; 0
    49e6:	84 17       	cp	r24, r20
    49e8:	95 07       	cpc	r25, r21
    49ea:	e9 f1       	breq	.+122    	; 0x4a66 <_ZN6Player7runningEv+0xb2>
  {
    m_Temp = Frame::oneTick;
    49ec:	24 83       	std	Z+4, r18	; 0x04

    if (Frame::oneTick == 0)
    49ee:	21 11       	cpse	r18, r1
    49f0:	3d c0       	rjmp	.+122    	; 0x4a6c <_ZN6Player7runningEv+0xb8>
    {
      m_IsDrawed = false;
    49f2:	12 86       	std	Z+10, r1	; 0x0a
    49f4:	3f 01       	movw	r6, r30
/*----------------------------------------//
              Running Player
//----------------------------------------*/

void Player::running(void)
{
    49f6:	c0 e0       	ldi	r28, 0x00	; 0
    49f8:	d0 e0       	ldi	r29, 0x00	; 0
  {
    for (int i=0; i<6; i++)
    {
      if (Frame::sixFrames == i)
      {
        draw(40, 140, 40, 40, charRun, i, BLACK, MAROON, RED, WHITE);
    49fa:	dd 24       	eor	r13, r13
    49fc:	da 94       	dec	r13
    49fe:	0f 2e       	mov	r0, r31
    4a00:	f8 ef       	ldi	r31, 0xF8	; 248
    4a02:	4f 2e       	mov	r4, r31
    4a04:	f0 2d       	mov	r31, r0
        m_IsDrawed = true;
    4a06:	55 24       	eor	r5, r5
    4a08:	53 94       	inc	r5

  if (m_IsDrawed == false)
  {
    for (int i=0; i<6; i++)
    {
      if (Frame::sixFrames == i)
    4a0a:	20 91 25 02 	lds	r18, 0x0225	; 0x800225 <_ZN5Frame9sixFramesE>
    4a0e:	30 e0       	ldi	r19, 0x00	; 0
    4a10:	2c 17       	cp	r18, r28
    4a12:	3d 07       	cpc	r19, r29
    4a14:	19 f5       	brne	.+70     	; 0x4a5c <_ZN6Player7runningEv+0xa8>
      {
        draw(40, 140, 40, 40, charRun, i, BLACK, MAROON, RED, WHITE);
    4a16:	df 92       	push	r13
    4a18:	df 92       	push	r13
    4a1a:	4f 92       	push	r4
    4a1c:	1f 92       	push	r1
    4a1e:	0f 2e       	mov	r0, r31
    4a20:	81 2c       	mov	r8, r1
    4a22:	f8 e7       	ldi	r31, 0x78	; 120
    4a24:	9f 2e       	mov	r9, r31
    4a26:	f0 2d       	mov	r31, r0
    4a28:	a1 2c       	mov	r10, r1
    4a2a:	b1 2c       	mov	r11, r1
    4a2c:	cc 2e       	mov	r12, r28
    4a2e:	0f 2e       	mov	r0, r31
    4a30:	f9 e2       	ldi	r31, 0x29	; 41
    4a32:	ef 2e       	mov	r14, r31
    4a34:	f1 e2       	ldi	r31, 0x21	; 33
    4a36:	ff 2e       	mov	r15, r31
    4a38:	f0 2d       	mov	r31, r0
    4a3a:	08 e2       	ldi	r16, 0x28	; 40
    4a3c:	10 e0       	ldi	r17, 0x00	; 0
    4a3e:	28 e2       	ldi	r18, 0x28	; 40
    4a40:	30 e0       	ldi	r19, 0x00	; 0
    4a42:	4c e8       	ldi	r20, 0x8C	; 140
    4a44:	50 e0       	ldi	r21, 0x00	; 0
    4a46:	68 e2       	ldi	r22, 0x28	; 40
    4a48:	70 e0       	ldi	r23, 0x00	; 0
    4a4a:	c3 01       	movw	r24, r6
    4a4c:	0e 94 1c 2a 	call	0x5438	; 0x5438 <_ZN3TFT4drawEiiiiPA100_Khajjjj>
        m_IsDrawed = true;
    4a50:	f3 01       	movw	r30, r6
    4a52:	52 86       	std	Z+10, r5	; 0x0a
    4a54:	0f 90       	pop	r0
    4a56:	0f 90       	pop	r0
    4a58:	0f 90       	pop	r0
    4a5a:	0f 90       	pop	r0
    }
  }

  if (m_IsDrawed == false)
  {
    for (int i=0; i<6; i++)
    4a5c:	21 96       	adiw	r28, 0x01	; 1
    4a5e:	c6 30       	cpi	r28, 0x06	; 6
    4a60:	d1 05       	cpc	r29, r1
    4a62:	99 f6       	brne	.-90     	; 0x4a0a <_ZN6Player7runningEv+0x56>
    4a64:	03 c0       	rjmp	.+6      	; 0x4a6c <_ZN6Player7runningEv+0xb8>
    {
      return;
    }
  }

  if (m_IsDrawed == false)
    4a66:	82 85       	ldd	r24, Z+10	; 0x0a
    4a68:	88 23       	and	r24, r24
    4a6a:	21 f2       	breq	.-120    	; 0x49f4 <_ZN6Player7runningEv+0x40>
        m_IsDrawed = true;
      }
    }
  }

}
    4a6c:	df 91       	pop	r29
    4a6e:	cf 91       	pop	r28
    4a70:	1f 91       	pop	r17
    4a72:	0f 91       	pop	r16
    4a74:	ff 90       	pop	r15
    4a76:	ef 90       	pop	r14
    4a78:	df 90       	pop	r13
    4a7a:	cf 90       	pop	r12
    4a7c:	bf 90       	pop	r11
    4a7e:	af 90       	pop	r10
    4a80:	9f 90       	pop	r9
    4a82:	8f 90       	pop	r8
    4a84:	7f 90       	pop	r7
    4a86:	6f 90       	pop	r6
    4a88:	5f 90       	pop	r5
    4a8a:	4f 90       	pop	r4
    4a8c:	08 95       	ret

00004a8e <_ZN6Player7jumpingEv>:
/*----------------------------------------//
              Jumping Player
//----------------------------------------*/

void Player::jumping(void)
{
    4a8e:	2f 92       	push	r2
    4a90:	3f 92       	push	r3
    4a92:	4f 92       	push	r4
    4a94:	5f 92       	push	r5
    4a96:	6f 92       	push	r6
    4a98:	7f 92       	push	r7
    4a9a:	8f 92       	push	r8
    4a9c:	9f 92       	push	r9
    4a9e:	af 92       	push	r10
    4aa0:	bf 92       	push	r11
    4aa2:	cf 92       	push	r12
    4aa4:	df 92       	push	r13
    4aa6:	ef 92       	push	r14
    4aa8:	ff 92       	push	r15
    4aaa:	0f 93       	push	r16
    4aac:	1f 93       	push	r17
    4aae:	cf 93       	push	r28
    4ab0:	df 93       	push	r29
    4ab2:	ec 01       	movw	r28, r24

  if (m_Temp != Frame::oneTick)
    4ab4:	20 91 28 02 	lds	r18, 0x0228	; 0x800228 <_ZN5Frame7oneTickE>
    4ab8:	8c 81       	ldd	r24, Y+4	; 0x04
    4aba:	08 2e       	mov	r0, r24
    4abc:	00 0c       	add	r0, r0
    4abe:	99 0b       	sbc	r25, r25
    4ac0:	42 2f       	mov	r20, r18
    4ac2:	50 e0       	ldi	r21, 0x00	; 0
    4ac4:	84 17       	cp	r24, r20
    4ac6:	95 07       	cpc	r25, r21
    4ac8:	09 f4       	brne	.+2      	; 0x4acc <_ZN6Player7jumpingEv+0x3e>
    4aca:	bf c0       	rjmp	.+382    	; 0x4c4a <_ZN6Player7jumpingEv+0x1bc>
  {
    m_Temp = Frame::oneTick;
    4acc:	2c 83       	std	Y+4, r18	; 0x04

    if (Frame::oneTick == 0)
    4ace:	21 11       	cpse	r18, r1
    4ad0:	c0 c0       	rjmp	.+384    	; 0x4c52 <_ZN6Player7jumpingEv+0x1c4>
    {
      if (m_IsUp == true)
    4ad2:	89 85       	ldd	r24, Y+9	; 0x09
    4ad4:	88 23       	and	r24, r24
    4ad6:	61 f0       	breq	.+24     	; 0x4af0 <_ZN6Player7jumpingEv+0x62>
      {
        m_JumpHeight += m_JumpSpeed;
    4ad8:	9f 81       	ldd	r25, Y+7	; 0x07
    4ada:	8e 81       	ldd	r24, Y+6	; 0x06
    4adc:	89 0f       	add	r24, r25

        if (m_JumpHeight >= 50)
    4ade:	82 33       	cpi	r24, 0x32	; 50
    4ae0:	fc f0       	brlt	.+62     	; 0x4b20 <_ZN6Player7jumpingEv+0x92>
        {
          m_JumpHeight -= m_JumpSpeed;
          m_JumpTemp ++;
    4ae2:	8d 81       	ldd	r24, Y+5	; 0x05
    4ae4:	8f 5f       	subi	r24, 0xFF	; 255
    4ae6:	8d 83       	std	Y+5, r24	; 0x05

          if (m_JumpTemp == 8)
    4ae8:	88 30       	cpi	r24, 0x08	; 8
    4aea:	d9 f4       	brne	.+54     	; 0x4b22 <_ZN6Player7jumpingEv+0x94>
          {
            m_IsUp = false;
    4aec:	19 86       	std	Y+9, r1	; 0x09
    4aee:	19 c0       	rjmp	.+50     	; 0x4b22 <_ZN6Player7jumpingEv+0x94>
        }
      }

      else
      {
        m_JumpHeight -= m_JumpSpeed;
    4af0:	8f 81       	ldd	r24, Y+7	; 0x07
    4af2:	9e 81       	ldd	r25, Y+6	; 0x06
    4af4:	89 1b       	sub	r24, r25
    4af6:	8f 83       	std	Y+7, r24	; 0x07

        if (m_JumpHeight <= 0)
    4af8:	18 16       	cp	r1, r24
    4afa:	9c f0       	brlt	.+38     	; 0x4b22 <_ZN6Player7jumpingEv+0x94>
        {
          clear(40, 140 - 25, 40, 25, BLACK);
    4afc:	e1 2c       	mov	r14, r1
    4afe:	f1 2c       	mov	r15, r1
    4b00:	09 e1       	ldi	r16, 0x19	; 25
    4b02:	10 e0       	ldi	r17, 0x00	; 0
    4b04:	28 e2       	ldi	r18, 0x28	; 40
    4b06:	30 e0       	ldi	r19, 0x00	; 0
    4b08:	43 e7       	ldi	r20, 0x73	; 115
    4b0a:	50 e0       	ldi	r21, 0x00	; 0
    4b0c:	68 e2       	ldi	r22, 0x28	; 40
    4b0e:	70 e0       	ldi	r23, 0x00	; 0
    4b10:	ce 01       	movw	r24, r28
    4b12:	0e 94 67 28 	call	0x50ce	; 0x50ce <_ZN3TFT5clearEiiiij>
          SW::interrupt0 = OFF;
    4b16:	10 92 42 02 	sts	0x0242, r1	; 0x800242 <_ZN2SW10interrupt0E>
          m_IsReset = false;
    4b1a:	18 86       	std	Y+8, r1	; 0x08
          isJump = false;
    4b1c:	1b 86       	std	Y+11, r1	; 0x0b
          return;
    4b1e:	99 c0       	rjmp	.+306    	; 0x4c52 <_ZN6Player7jumpingEv+0x1c4>

    if (Frame::oneTick == 0)
    {
      if (m_IsUp == true)
      {
        m_JumpHeight += m_JumpSpeed;
    4b20:	8f 83       	std	Y+7, r24	; 0x07
          isJump = false;
          return;
        }
      }

      m_IsDrawed = false;
    4b22:	1a 86       	std	Y+10, r1	; 0x0a
/*----------------------------------------//
              Jumping Player
//----------------------------------------*/

void Player::jumping(void)
{
    4b24:	61 2c       	mov	r6, r1
    4b26:	71 2c       	mov	r7, r1
          clear(40, (122 - m_JumpHeight) + 50, 32, 8, BLACK);
        }

        else
        {
          draw(40, 122 - m_JumpHeight, 32, 60, charDown, i, BLACK, MAROON, RED, WHITE);
    4b28:	0f 2e       	mov	r0, r31
    4b2a:	fa e7       	ldi	r31, 0x7A	; 122
    4b2c:	4f 2e       	mov	r4, r31
    4b2e:	51 2c       	mov	r5, r1
    4b30:	f0 2d       	mov	r31, r0
    4b32:	dd 24       	eor	r13, r13
    4b34:	da 94       	dec	r13
          clear(40, (122 - m_JumpHeight) - 8, 32, 8, BLACK);
    4b36:	0f 2e       	mov	r0, r31
    4b38:	f2 e7       	ldi	r31, 0x72	; 114
    4b3a:	2f 2e       	mov	r2, r31
    4b3c:	31 2c       	mov	r3, r1
    4b3e:	f0 2d       	mov	r31, r0

  if (m_IsDrawed == false)
  {
    for (int i=0; i<4; i++)
    {
      if (Frame::fourFrames == i)
    4b40:	80 91 26 02 	lds	r24, 0x0226	; 0x800226 <_ZN5Frame10fourFramesE>
    4b44:	90 e0       	ldi	r25, 0x00	; 0
    4b46:	86 15       	cp	r24, r6
    4b48:	97 05       	cpc	r25, r7
    4b4a:	09 f0       	breq	.+2      	; 0x4b4e <_ZN6Player7jumpingEv+0xc0>
    4b4c:	75 c0       	rjmp	.+234    	; 0x4c38 <_ZN6Player7jumpingEv+0x1aa>
      {

        if (m_IsUp == true)
    4b4e:	89 85       	ldd	r24, Y+9	; 0x09
    4b50:	88 23       	and	r24, r24
    4b52:	c9 f1       	breq	.+114    	; 0x4bc6 <_ZN6Player7jumpingEv+0x138>
        {
          draw(40, 122 - m_JumpHeight, 32, 50, charUp, i, BLACK, MAROON, RED, WHITE);
    4b54:	8f 81       	ldd	r24, Y+7	; 0x07
    4b56:	a2 01       	movw	r20, r4
    4b58:	48 1b       	sub	r20, r24
    4b5a:	51 09       	sbc	r21, r1
    4b5c:	87 fd       	sbrc	r24, 7
    4b5e:	53 95       	inc	r21
    4b60:	df 92       	push	r13
    4b62:	df 92       	push	r13
    4b64:	88 ef       	ldi	r24, 0xF8	; 248
    4b66:	8f 93       	push	r24
    4b68:	1f 92       	push	r1
    4b6a:	0f 2e       	mov	r0, r31
    4b6c:	81 2c       	mov	r8, r1
    4b6e:	f8 e7       	ldi	r31, 0x78	; 120
    4b70:	9f 2e       	mov	r9, r31
    4b72:	f0 2d       	mov	r31, r0
    4b74:	a1 2c       	mov	r10, r1
    4b76:	b1 2c       	mov	r11, r1
    4b78:	c6 2c       	mov	r12, r6
    4b7a:	0f 2e       	mov	r0, r31
    4b7c:	f9 e9       	ldi	r31, 0x99	; 153
    4b7e:	ef 2e       	mov	r14, r31
    4b80:	ff e1       	ldi	r31, 0x1F	; 31
    4b82:	ff 2e       	mov	r15, r31
    4b84:	f0 2d       	mov	r31, r0
    4b86:	02 e3       	ldi	r16, 0x32	; 50
    4b88:	10 e0       	ldi	r17, 0x00	; 0
    4b8a:	20 e2       	ldi	r18, 0x20	; 32
    4b8c:	30 e0       	ldi	r19, 0x00	; 0
    4b8e:	68 e2       	ldi	r22, 0x28	; 40
    4b90:	70 e0       	ldi	r23, 0x00	; 0
    4b92:	ce 01       	movw	r24, r28
    4b94:	0e 94 1c 2a 	call	0x5438	; 0x5438 <_ZN3TFT4drawEiiiiPA100_Khajjjj>
          clear(40, (122 - m_JumpHeight) + 50, 32, 8, BLACK);
    4b98:	8f 81       	ldd	r24, Y+7	; 0x07
    4b9a:	4c ea       	ldi	r20, 0xAC	; 172
    4b9c:	50 e0       	ldi	r21, 0x00	; 0
    4b9e:	48 1b       	sub	r20, r24
    4ba0:	51 09       	sbc	r21, r1
    4ba2:	87 fd       	sbrc	r24, 7
    4ba4:	53 95       	inc	r21
    4ba6:	e1 2c       	mov	r14, r1
    4ba8:	f1 2c       	mov	r15, r1
    4baa:	08 e0       	ldi	r16, 0x08	; 8
    4bac:	10 e0       	ldi	r17, 0x00	; 0
    4bae:	20 e2       	ldi	r18, 0x20	; 32
    4bb0:	30 e0       	ldi	r19, 0x00	; 0
    4bb2:	68 e2       	ldi	r22, 0x28	; 40
    4bb4:	70 e0       	ldi	r23, 0x00	; 0
    4bb6:	ce 01       	movw	r24, r28
    4bb8:	0e 94 67 28 	call	0x50ce	; 0x50ce <_ZN3TFT5clearEiiiij>
    4bbc:	0f 90       	pop	r0
    4bbe:	0f 90       	pop	r0
    4bc0:	0f 90       	pop	r0
    4bc2:	0f 90       	pop	r0
    4bc4:	37 c0       	rjmp	.+110    	; 0x4c34 <_ZN6Player7jumpingEv+0x1a6>
        }

        else
        {
          draw(40, 122 - m_JumpHeight, 32, 60, charDown, i, BLACK, MAROON, RED, WHITE);
    4bc6:	8f 81       	ldd	r24, Y+7	; 0x07
    4bc8:	a2 01       	movw	r20, r4
    4bca:	48 1b       	sub	r20, r24
    4bcc:	51 09       	sbc	r21, r1
    4bce:	87 fd       	sbrc	r24, 7
    4bd0:	53 95       	inc	r21
    4bd2:	df 92       	push	r13
    4bd4:	df 92       	push	r13
    4bd6:	88 ef       	ldi	r24, 0xF8	; 248
    4bd8:	8f 93       	push	r24
    4bda:	1f 92       	push	r1
    4bdc:	0f 2e       	mov	r0, r31
    4bde:	81 2c       	mov	r8, r1
    4be0:	f8 e7       	ldi	r31, 0x78	; 120
    4be2:	9f 2e       	mov	r9, r31
    4be4:	f0 2d       	mov	r31, r0
    4be6:	a1 2c       	mov	r10, r1
    4be8:	b1 2c       	mov	r11, r1
    4bea:	c6 2c       	mov	r12, r6
    4bec:	0f 2e       	mov	r0, r31
    4bee:	f1 e8       	ldi	r31, 0x81	; 129
    4bf0:	ef 2e       	mov	r14, r31
    4bf2:	f3 e2       	ldi	r31, 0x23	; 35
    4bf4:	ff 2e       	mov	r15, r31
    4bf6:	f0 2d       	mov	r31, r0
    4bf8:	0c e3       	ldi	r16, 0x3C	; 60
    4bfa:	10 e0       	ldi	r17, 0x00	; 0
    4bfc:	20 e2       	ldi	r18, 0x20	; 32
    4bfe:	30 e0       	ldi	r19, 0x00	; 0
    4c00:	68 e2       	ldi	r22, 0x28	; 40
    4c02:	70 e0       	ldi	r23, 0x00	; 0
    4c04:	ce 01       	movw	r24, r28
    4c06:	0e 94 f1 2a 	call	0x55e2	; 0x55e2 <_ZN3TFT4drawEiiiiPA120_Khajjjj>
          clear(40, (122 - m_JumpHeight) - 8, 32, 8, BLACK);
    4c0a:	8f 81       	ldd	r24, Y+7	; 0x07
    4c0c:	a1 01       	movw	r20, r2
    4c0e:	48 1b       	sub	r20, r24
    4c10:	51 09       	sbc	r21, r1
    4c12:	87 fd       	sbrc	r24, 7
    4c14:	53 95       	inc	r21
    4c16:	e1 2c       	mov	r14, r1
    4c18:	f1 2c       	mov	r15, r1
    4c1a:	08 e0       	ldi	r16, 0x08	; 8
    4c1c:	10 e0       	ldi	r17, 0x00	; 0
    4c1e:	20 e2       	ldi	r18, 0x20	; 32
    4c20:	30 e0       	ldi	r19, 0x00	; 0
    4c22:	68 e2       	ldi	r22, 0x28	; 40
    4c24:	70 e0       	ldi	r23, 0x00	; 0
    4c26:	ce 01       	movw	r24, r28
    4c28:	0e 94 67 28 	call	0x50ce	; 0x50ce <_ZN3TFT5clearEiiiij>
    4c2c:	0f 90       	pop	r0
    4c2e:	0f 90       	pop	r0
    4c30:	0f 90       	pop	r0
    4c32:	0f 90       	pop	r0
        }

        m_IsDrawed = true;
    4c34:	81 e0       	ldi	r24, 0x01	; 1
    4c36:	8a 87       	std	Y+10, r24	; 0x0a
    }
  }

  if (m_IsDrawed == false)
  {
    for (int i=0; i<4; i++)
    4c38:	8f ef       	ldi	r24, 0xFF	; 255
    4c3a:	68 1a       	sub	r6, r24
    4c3c:	78 0a       	sbc	r7, r24
    4c3e:	84 e0       	ldi	r24, 0x04	; 4
    4c40:	68 16       	cp	r6, r24
    4c42:	71 04       	cpc	r7, r1
    4c44:	09 f0       	breq	.+2      	; 0x4c48 <_ZN6Player7jumpingEv+0x1ba>
    4c46:	7c cf       	rjmp	.-264    	; 0x4b40 <_ZN6Player7jumpingEv+0xb2>
    4c48:	04 c0       	rjmp	.+8      	; 0x4c52 <_ZN6Player7jumpingEv+0x1c4>
    {
      return;
    }
  }

  if (m_IsDrawed == false)
    4c4a:	8a 85       	ldd	r24, Y+10	; 0x0a
    4c4c:	88 23       	and	r24, r24
    4c4e:	09 f4       	brne	.+2      	; 0x4c52 <_ZN6Player7jumpingEv+0x1c4>
    4c50:	69 cf       	rjmp	.-302    	; 0x4b24 <_ZN6Player7jumpingEv+0x96>

      }
    }
  }
  
}
    4c52:	df 91       	pop	r29
    4c54:	cf 91       	pop	r28
    4c56:	1f 91       	pop	r17
    4c58:	0f 91       	pop	r16
    4c5a:	ff 90       	pop	r15
    4c5c:	ef 90       	pop	r14
    4c5e:	df 90       	pop	r13
    4c60:	cf 90       	pop	r12
    4c62:	bf 90       	pop	r11
    4c64:	af 90       	pop	r10
    4c66:	9f 90       	pop	r9
    4c68:	8f 90       	pop	r8
    4c6a:	7f 90       	pop	r7
    4c6c:	6f 90       	pop	r6
    4c6e:	5f 90       	pop	r5
    4c70:	4f 90       	pop	r4
    4c72:	3f 90       	pop	r3
    4c74:	2f 90       	pop	r2
    4c76:	08 95       	ret

00004c78 <_ZN6Player4initEv>:
/*----------------------------------------//
            Initialize Player
//----------------------------------------*/

void Player::init(void)
{
    4c78:	ef 92       	push	r14
    4c7a:	ff 92       	push	r15
    4c7c:	0f 93       	push	r16
    4c7e:	1f 93       	push	r17
    4c80:	cf 93       	push	r28
    4c82:	df 93       	push	r29
    4c84:	ec 01       	movw	r28, r24
  clear(40, 140, 40, 40, BLACK);
    4c86:	e1 2c       	mov	r14, r1
    4c88:	f1 2c       	mov	r15, r1
    4c8a:	08 e2       	ldi	r16, 0x28	; 40
    4c8c:	10 e0       	ldi	r17, 0x00	; 0
    4c8e:	28 e2       	ldi	r18, 0x28	; 40
    4c90:	30 e0       	ldi	r19, 0x00	; 0
    4c92:	4c e8       	ldi	r20, 0x8C	; 140
    4c94:	50 e0       	ldi	r21, 0x00	; 0
    4c96:	68 e2       	ldi	r22, 0x28	; 40
    4c98:	70 e0       	ldi	r23, 0x00	; 0
    4c9a:	0e 94 67 28 	call	0x50ce	; 0x50ce <_ZN3TFT5clearEiiiij>
  m_Temp = 0;
    4c9e:	1c 82       	std	Y+4, r1	; 0x04
  m_JumpTemp = 0;
    4ca0:	1d 82       	std	Y+5, r1	; 0x05
  m_JumpHeight = 0;
    4ca2:	1f 82       	std	Y+7, r1	; 0x07
    4ca4:	df 91       	pop	r29
    4ca6:	cf 91       	pop	r28
    4ca8:	1f 91       	pop	r17
    4caa:	0f 91       	pop	r16
    4cac:	ff 90       	pop	r15
    4cae:	ef 90       	pop	r14
    4cb0:	08 95       	ret

00004cb2 <_ZN6Player5startEv>:
/*----------------------------------------//
                Start Player
//----------------------------------------*/

void Player::start(void)
{
    4cb2:	cf 93       	push	r28
    4cb4:	df 93       	push	r29
    4cb6:	ec 01       	movw	r28, r24

  if (SW::interrupt0 == ON && m_IsReset == false)
    4cb8:	80 91 42 02 	lds	r24, 0x0242	; 0x800242 <_ZN2SW10interrupt0E>
    4cbc:	88 23       	and	r24, r24
    4cbe:	59 f0       	breq	.+22     	; 0x4cd6 <_ZN6Player5startEv+0x24>
    4cc0:	88 85       	ldd	r24, Y+8	; 0x08
    4cc2:	81 11       	cpse	r24, r1
    4cc4:	08 c0       	rjmp	.+16     	; 0x4cd6 <_ZN6Player5startEv+0x24>
  {
    init();
    4cc6:	ce 01       	movw	r24, r28
    4cc8:	0e 94 3c 26 	call	0x4c78	; 0x4c78 <_ZN6Player4initEv>
    m_IsReset = true;
    4ccc:	81 e0       	ldi	r24, 0x01	; 1
    4cce:	88 87       	std	Y+8, r24	; 0x08
    m_IsUp = true;
    4cd0:	89 87       	std	Y+9, r24	; 0x09
    isJump = true;
    4cd2:	8b 87       	std	Y+11, r24	; 0x0b
    4cd4:	07 c0       	rjmp	.+14     	; 0x4ce4 <_ZN6Player5startEv+0x32>
  }

  if (isJump == false)
    4cd6:	8b 85       	ldd	r24, Y+11	; 0x0b
    4cd8:	81 11       	cpse	r24, r1
    4cda:	04 c0       	rjmp	.+8      	; 0x4ce4 <_ZN6Player5startEv+0x32>
  {
    running();
    4cdc:	ce 01       	movw	r24, r28
    4cde:	0e 94 da 24 	call	0x49b4	; 0x49b4 <_ZN6Player7runningEv>
    4ce2:	03 c0       	rjmp	.+6      	; 0x4cea <_ZN6Player5startEv+0x38>
  }
  
  else
  {
    jumping();
    4ce4:	ce 01       	movw	r24, r28
    4ce6:	0e 94 47 25 	call	0x4a8e	; 0x4a8e <_ZN6Player7jumpingEv>
  }

}
    4cea:	df 91       	pop	r29
    4cec:	cf 91       	pop	r28
    4cee:	08 95       	ret

00004cf0 <_ZN3MCU7Setting8beginPinEaa>:
    else
    {
      TCCR1A |= 0x03 | (1 << COM1B1);   // 256 Prescaler
      TCCR1B = 0x0C;                    // Fast PWM to 1023
      TCNT1H = 0x00;                    // Start Counting 0x0000
      TCNT1L = 0x00;
    4cf0:	81 30       	cpi	r24, 0x01	; 1
    4cf2:	89 f0       	breq	.+34     	; 0x4d16 <_ZN3MCU7Setting8beginPinEaa+0x26>
    4cf4:	82 30       	cpi	r24, 0x02	; 2
    4cf6:	e1 f0       	breq	.+56     	; 0x4d30 <_ZN3MCU7Setting8beginPinEaa+0x40>
    4cf8:	81 11       	cpse	r24, r1
    4cfa:	26 c0       	rjmp	.+76     	; 0x4d48 <_ZN3MCU7Setting8beginPinEaa+0x58>
    4cfc:	24 b1       	in	r18, 0x04	; 4
    4cfe:	81 e0       	ldi	r24, 0x01	; 1
    4d00:	90 e0       	ldi	r25, 0x00	; 0
    4d02:	02 c0       	rjmp	.+4      	; 0x4d08 <_ZN3MCU7Setting8beginPinEaa+0x18>
    4d04:	88 0f       	add	r24, r24
    4d06:	99 1f       	adc	r25, r25
    4d08:	6a 95       	dec	r22
    4d0a:	e2 f7       	brpl	.-8      	; 0x4d04 <_ZN3MCU7Setting8beginPinEaa+0x14>
    4d0c:	82 2b       	or	r24, r18
    4d0e:	84 b9       	out	0x04, r24	; 4
    4d10:	85 b1       	in	r24, 0x05	; 5
    4d12:	85 b9       	out	0x05, r24	; 5
    4d14:	08 95       	ret
    4d16:	27 b1       	in	r18, 0x07	; 7
    4d18:	81 e0       	ldi	r24, 0x01	; 1
    4d1a:	90 e0       	ldi	r25, 0x00	; 0
    4d1c:	02 c0       	rjmp	.+4      	; 0x4d22 <_ZN3MCU7Setting8beginPinEaa+0x32>
    4d1e:	88 0f       	add	r24, r24
    4d20:	99 1f       	adc	r25, r25
    4d22:	6a 95       	dec	r22
    4d24:	e2 f7       	brpl	.-8      	; 0x4d1e <_ZN3MCU7Setting8beginPinEaa+0x2e>
    4d26:	82 2b       	or	r24, r18
    4d28:	87 b9       	out	0x07, r24	; 7
    4d2a:	88 b1       	in	r24, 0x08	; 8
    4d2c:	88 b9       	out	0x08, r24	; 8
    4d2e:	08 95       	ret
    4d30:	2a b1       	in	r18, 0x0a	; 10
    4d32:	81 e0       	ldi	r24, 0x01	; 1
    4d34:	90 e0       	ldi	r25, 0x00	; 0
    4d36:	02 c0       	rjmp	.+4      	; 0x4d3c <_ZN3MCU7Setting8beginPinEaa+0x4c>
    4d38:	88 0f       	add	r24, r24
    4d3a:	99 1f       	adc	r25, r25
    4d3c:	6a 95       	dec	r22
    4d3e:	e2 f7       	brpl	.-8      	; 0x4d38 <_ZN3MCU7Setting8beginPinEaa+0x48>
    4d40:	82 2b       	or	r24, r18
    4d42:	8a b9       	out	0x0a, r24	; 10
    4d44:	8b b1       	in	r24, 0x0b	; 11
    4d46:	8b b9       	out	0x0b, r24	; 11
    4d48:	08 95       	ret

00004d4a <_ZN3MCU7Setting9beginPortEab>:
    4d4a:	61 95       	neg	r22
    4d4c:	81 30       	cpi	r24, 0x01	; 1
    4d4e:	39 f0       	breq	.+14     	; 0x4d5e <_ZN3MCU7Setting9beginPortEab+0x14>
    4d50:	82 30       	cpi	r24, 0x02	; 2
    4d52:	41 f0       	breq	.+16     	; 0x4d64 <_ZN3MCU7Setting9beginPortEab+0x1a>
    4d54:	81 11       	cpse	r24, r1
    4d56:	08 c0       	rjmp	.+16     	; 0x4d68 <_ZN3MCU7Setting9beginPortEab+0x1e>
    4d58:	64 b9       	out	0x04, r22	; 4
    4d5a:	15 b8       	out	0x05, r1	; 5
    4d5c:	08 95       	ret
    4d5e:	67 b9       	out	0x07, r22	; 7
    4d60:	18 b8       	out	0x08, r1	; 8
    4d62:	08 95       	ret
    4d64:	6a b9       	out	0x0a, r22	; 10
    4d66:	1b b8       	out	0x0b, r1	; 11
    4d68:	08 95       	ret

00004d6a <_ZN3MCU7Setting8beginINTEaa>:
    4d6a:	9d b3       	in	r25, 0x1d	; 29
    4d6c:	21 e0       	ldi	r18, 0x01	; 1
    4d6e:	30 e0       	ldi	r19, 0x00	; 0
    4d70:	02 c0       	rjmp	.+4      	; 0x4d76 <_ZN3MCU7Setting8beginINTEaa+0xc>
    4d72:	22 0f       	add	r18, r18
    4d74:	33 1f       	adc	r19, r19
    4d76:	8a 95       	dec	r24
    4d78:	e2 f7       	brpl	.-8      	; 0x4d72 <_ZN3MCU7Setting8beginINTEaa+0x8>
    4d7a:	29 2b       	or	r18, r25
    4d7c:	2d bb       	out	0x1d, r18	; 29
    4d7e:	61 30       	cpi	r22, 0x01	; 1
    4d80:	39 f0       	breq	.+14     	; 0x4d90 <_ZN3MCU7Setting8beginINTEaa+0x26>
    4d82:	62 30       	cpi	r22, 0x02	; 2
    4d84:	49 f0       	breq	.+18     	; 0x4d98 <_ZN3MCU7Setting8beginINTEaa+0x2e>
    4d86:	61 11       	cpse	r22, r1
    4d88:	0a c0       	rjmp	.+20     	; 0x4d9e <_ZN3MCU7Setting8beginINTEaa+0x34>
    4d8a:	10 92 69 00 	sts	0x0069, r1	; 0x800069 <__TEXT_REGION_LENGTH__+0x7f8069>
    4d8e:	08 95       	ret
    4d90:	8a e0       	ldi	r24, 0x0A	; 10
    4d92:	80 93 69 00 	sts	0x0069, r24	; 0x800069 <__TEXT_REGION_LENGTH__+0x7f8069>
    4d96:	08 95       	ret
    4d98:	8f e0       	ldi	r24, 0x0F	; 15
    4d9a:	80 93 69 00 	sts	0x0069, r24	; 0x800069 <__TEXT_REGION_LENGTH__+0x7f8069>
    4d9e:	08 95       	ret

00004da0 <_ZN3MCU7Setting10beginTimerEab>:
    4da0:	81 30       	cpi	r24, 0x01	; 1
    4da2:	99 f1       	breq	.+102    	; 0x4e0a <_ZN3MCU7Setting10beginTimerEab+0x6a>
    4da4:	82 30       	cpi	r24, 0x02	; 2
    4da6:	b1 f0       	breq	.+44     	; 0x4dd4 <_ZN3MCU7Setting10beginTimerEab+0x34>
    4da8:	81 11       	cpse	r24, r1
    4daa:	4f c0       	rjmp	.+158    	; 0x4e4a <_ZN3MCU7Setting10beginTimerEab+0xaa>
    4dac:	61 11       	cpse	r22, r1
    4dae:	08 c0       	rjmp	.+16     	; 0x4dc0 <_ZN3MCU7Setting10beginTimerEab+0x20>
    4db0:	81 e0       	ldi	r24, 0x01	; 1
    4db2:	80 93 6e 00 	sts	0x006E, r24	; 0x80006e <__TEXT_REGION_LENGTH__+0x7f806e>
    4db6:	14 bc       	out	0x24, r1	; 36
    4db8:	85 e0       	ldi	r24, 0x05	; 5
    4dba:	85 bd       	out	0x25, r24	; 37
    4dbc:	16 bc       	out	0x26, r1	; 38
    4dbe:	08 95       	ret
    4dc0:	82 e0       	ldi	r24, 0x02	; 2
    4dc2:	80 93 6e 00 	sts	0x006E, r24	; 0x80006e <__TEXT_REGION_LENGTH__+0x7f806e>
    4dc6:	84 bd       	out	0x24, r24	; 36
    4dc8:	85 e0       	ldi	r24, 0x05	; 5
    4dca:	85 bd       	out	0x25, r24	; 37
    4dcc:	16 bc       	out	0x26, r1	; 38
    4dce:	8f ef       	ldi	r24, 0xFF	; 255
    4dd0:	87 bd       	out	0x27, r24	; 39
    4dd2:	08 95       	ret
    4dd4:	61 11       	cpse	r22, r1
    4dd6:	0b c0       	rjmp	.+22     	; 0x4dee <_ZN3MCU7Setting10beginTimerEab+0x4e>
    4dd8:	81 e0       	ldi	r24, 0x01	; 1
    4dda:	80 93 70 00 	sts	0x0070, r24	; 0x800070 <__TEXT_REGION_LENGTH__+0x7f8070>
    4dde:	10 92 b0 00 	sts	0x00B0, r1	; 0x8000b0 <__TEXT_REGION_LENGTH__+0x7f80b0>
    4de2:	84 e0       	ldi	r24, 0x04	; 4
    4de4:	80 93 b1 00 	sts	0x00B1, r24	; 0x8000b1 <__TEXT_REGION_LENGTH__+0x7f80b1>
    4de8:	10 92 b2 00 	sts	0x00B2, r1	; 0x8000b2 <__TEXT_REGION_LENGTH__+0x7f80b2>
    4dec:	08 95       	ret
    4dee:	82 e0       	ldi	r24, 0x02	; 2
    4df0:	80 93 70 00 	sts	0x0070, r24	; 0x800070 <__TEXT_REGION_LENGTH__+0x7f8070>
    4df4:	80 93 b0 00 	sts	0x00B0, r24	; 0x8000b0 <__TEXT_REGION_LENGTH__+0x7f80b0>
    4df8:	84 e0       	ldi	r24, 0x04	; 4
    4dfa:	80 93 b1 00 	sts	0x00B1, r24	; 0x8000b1 <__TEXT_REGION_LENGTH__+0x7f80b1>
    4dfe:	10 92 b2 00 	sts	0x00B2, r1	; 0x8000b2 <__TEXT_REGION_LENGTH__+0x7f80b2>
    4e02:	89 ef       	ldi	r24, 0xF9	; 249
    4e04:	80 93 b3 00 	sts	0x00B3, r24	; 0x8000b3 <__TEXT_REGION_LENGTH__+0x7f80b3>
    4e08:	08 95       	ret
    4e0a:	61 11       	cpse	r22, r1
    4e0c:	0d c0       	rjmp	.+26     	; 0x4e28 <_ZN3MCU7Setting10beginTimerEab+0x88>
    4e0e:	81 e0       	ldi	r24, 0x01	; 1
    4e10:	80 93 6f 00 	sts	0x006F, r24	; 0x80006f <__TEXT_REGION_LENGTH__+0x7f806f>
    4e14:	10 92 80 00 	sts	0x0080, r1	; 0x800080 <__TEXT_REGION_LENGTH__+0x7f8080>
    4e18:	85 e0       	ldi	r24, 0x05	; 5
    4e1a:	80 93 81 00 	sts	0x0081, r24	; 0x800081 <__TEXT_REGION_LENGTH__+0x7f8081>
    4e1e:	10 92 85 00 	sts	0x0085, r1	; 0x800085 <__TEXT_REGION_LENGTH__+0x7f8085>
    4e22:	10 92 84 00 	sts	0x0084, r1	; 0x800084 <__TEXT_REGION_LENGTH__+0x7f8084>
    4e26:	08 95       	ret
    4e28:	82 e0       	ldi	r24, 0x02	; 2
    4e2a:	80 93 6f 00 	sts	0x006F, r24	; 0x80006f <__TEXT_REGION_LENGTH__+0x7f806f>
    4e2e:	10 92 80 00 	sts	0x0080, r1	; 0x800080 <__TEXT_REGION_LENGTH__+0x7f8080>
    4e32:	8d e0       	ldi	r24, 0x0D	; 13
    4e34:	80 93 81 00 	sts	0x0081, r24	; 0x800081 <__TEXT_REGION_LENGTH__+0x7f8081>
    4e38:	10 92 85 00 	sts	0x0085, r1	; 0x800085 <__TEXT_REGION_LENGTH__+0x7f8085>
    4e3c:	10 92 84 00 	sts	0x0084, r1	; 0x800084 <__TEXT_REGION_LENGTH__+0x7f8084>
    4e40:	10 92 89 00 	sts	0x0089, r1	; 0x800089 <__TEXT_REGION_LENGTH__+0x7f8089>
    4e44:	8f ef       	ldi	r24, 0xFF	; 255
    4e46:	80 93 88 00 	sts	0x0088, r24	; 0x800088 <__TEXT_REGION_LENGTH__+0x7f8088>
    4e4a:	08 95       	ret

00004e4c <_ZN3MCU7Setting8beginSPIEv>:
            Begin SPI Protocol
//----------------------------------------*/

void MCU::Setting::beginSPI(void)
{
  SPCR = (1 << SPE) | (1 << MSTR);
    4e4c:	80 e5       	ldi	r24, 0x50	; 80
    4e4e:	8c bd       	out	0x2c, r24	; 44
  SPSR = (1 << SPI2X);
    4e50:	81 e0       	ldi	r24, 0x01	; 1
    4e52:	8d bd       	out	0x2d, r24	; 45
    4e54:	08 95       	ret

00004e56 <_ZN2SW6updateEv>:
              update Switch
//----------------------------------------*/

void SW::update(void)
{
  newData = PINC | 0xC0;
    4e56:	86 b1       	in	r24, 0x06	; 6
    4e58:	80 6c       	ori	r24, 0xC0	; 192
    4e5a:	80 93 44 02 	sts	0x0244, r24	; 0x800244 <_ZN2SW7newDataE>
  result = oldData & ~newData;
    4e5e:	80 91 44 02 	lds	r24, 0x0244	; 0x800244 <_ZN2SW7newDataE>
    4e62:	90 91 43 02 	lds	r25, 0x0243	; 0x800243 <_ZN2SW7oldDataE>
    4e66:	80 95       	com	r24
    4e68:	89 23       	and	r24, r25
    4e6a:	80 93 45 02 	sts	0x0245, r24	; 0x800245 <_ZN2SW6resultE>
  oldData = newData;
    4e6e:	80 91 44 02 	lds	r24, 0x0244	; 0x800244 <_ZN2SW7newDataE>
    4e72:	80 93 43 02 	sts	0x0243, r24	; 0x800243 <_ZN2SW7oldDataE>
    4e76:	08 95       	ret

00004e78 <_ZN2SW4initEv>:
            Initialize Switch
//----------------------------------------*/

void SW::init(void)
{
  interrupt0 = OFF;
    4e78:	10 92 42 02 	sts	0x0242, r1	; 0x800242 <_ZN2SW10interrupt0E>
  interrupt1 = OFF;
    4e7c:	10 92 41 02 	sts	0x0241, r1	; 0x800241 <_ZN2SW10interrupt1E>
  up = OFF;
    4e80:	10 92 40 02 	sts	0x0240, r1	; 0x800240 <_ZN2SW2upE>
  down = OFF;
    4e84:	10 92 3f 02 	sts	0x023F, r1	; 0x80023f <_ZN2SW4downE>
  left = OFF;
    4e88:	10 92 3e 02 	sts	0x023E, r1	; 0x80023e <_ZN2SW4leftE>
  right = OFF;
    4e8c:	10 92 3d 02 	sts	0x023D, r1	; 0x80023d <_ZN2SW5rightE>
  start = OFF;
    4e90:	10 92 3c 02 	sts	0x023C, r1	; 0x80023c <_ZN2SW5startE>
  select = OFF;
    4e94:	10 92 3b 02 	sts	0x023B, r1	; 0x80023b <_ZN2SW6selectE>
    4e98:	08 95       	ret

00004e9a <_ZN3SPI7sendBitEh>:

void TFT::fillPixel(int16_t xPos, int16_t yPos, uint16_t colorValue)
{
  setAddress(xPos, yPos, xPos, yPos);
  exportLongData(colorValue);
}
    4e9a:	6e bd       	out	0x2e, r22	; 46
    4e9c:	0d b4       	in	r0, 0x2d	; 45
    4e9e:	07 fe       	sbrs	r0, 7
    4ea0:	fd cf       	rjmp	.-6      	; 0x4e9c <_ZN3SPI7sendBitEh+0x2>
    4ea2:	08 95       	ret

00004ea4 <_ZN3SPI13exportCommandEh>:
    4ea4:	2a 98       	cbi	0x05, 2	; 5
    4ea6:	28 98       	cbi	0x05, 0	; 5
    4ea8:	0e 94 4d 27 	call	0x4e9a	; 0x4e9a <_ZN3SPI7sendBitEh>
    4eac:	28 9a       	sbi	0x05, 0	; 5
    4eae:	08 95       	ret

00004eb0 <_ZN3SPI10exportDataEh>:
    4eb0:	2a 9a       	sbi	0x05, 2	; 5
    4eb2:	28 98       	cbi	0x05, 0	; 5
    4eb4:	0e 94 4d 27 	call	0x4e9a	; 0x4e9a <_ZN3SPI7sendBitEh>
    4eb8:	28 9a       	sbi	0x05, 0	; 5
    4eba:	08 95       	ret

00004ebc <_ZN3SPI14exportLongDataEj>:
    4ebc:	1f 93       	push	r17
    4ebe:	cf 93       	push	r28
    4ec0:	df 93       	push	r29
    4ec2:	ec 01       	movw	r28, r24
    4ec4:	16 2f       	mov	r17, r22
    4ec6:	67 2f       	mov	r22, r23
    4ec8:	2a 9a       	sbi	0x05, 2	; 5
    4eca:	28 98       	cbi	0x05, 0	; 5
    4ecc:	0e 94 4d 27 	call	0x4e9a	; 0x4e9a <_ZN3SPI7sendBitEh>
    4ed0:	61 2f       	mov	r22, r17
    4ed2:	ce 01       	movw	r24, r28
    4ed4:	0e 94 4d 27 	call	0x4e9a	; 0x4e9a <_ZN3SPI7sendBitEh>
    4ed8:	28 9a       	sbi	0x05, 0	; 5
    4eda:	df 91       	pop	r29
    4edc:	cf 91       	pop	r28
    4ede:	1f 91       	pop	r17
    4ee0:	08 95       	ret

00004ee2 <_ZN3TFT5beginEv>:
    4ee2:	cf 93       	push	r28
    4ee4:	df 93       	push	r29
    4ee6:	ec 01       	movw	r28, r24
    4ee8:	28 9a       	sbi	0x05, 0	; 5
    4eea:	29 98       	cbi	0x05, 1	; 5
    4eec:	2f ef       	ldi	r18, 0xFF	; 255
    4eee:	89 ef       	ldi	r24, 0xF9	; 249
    4ef0:	90 e0       	ldi	r25, 0x00	; 0
    4ef2:	21 50       	subi	r18, 0x01	; 1
    4ef4:	80 40       	sbci	r24, 0x00	; 0
    4ef6:	90 40       	sbci	r25, 0x00	; 0
    4ef8:	e1 f7       	brne	.-8      	; 0x4ef2 <_ZN3TFT5beginEv+0x10>
    4efa:	00 c0       	rjmp	.+0      	; 0x4efc <_ZN3TFT5beginEv+0x1a>
    4efc:	00 00       	nop
    4efe:	29 9a       	sbi	0x05, 1	; 5
    4f00:	2f ef       	ldi	r18, 0xFF	; 255
    4f02:	89 e6       	ldi	r24, 0x69	; 105
    4f04:	98 e1       	ldi	r25, 0x18	; 24
    4f06:	21 50       	subi	r18, 0x01	; 1
    4f08:	80 40       	sbci	r24, 0x00	; 0
    4f0a:	90 40       	sbci	r25, 0x00	; 0
    4f0c:	e1 f7       	brne	.-8      	; 0x4f06 <_ZN3TFT5beginEv+0x24>
    4f0e:	00 c0       	rjmp	.+0      	; 0x4f10 <_ZN3TFT5beginEv+0x2e>
    4f10:	00 00       	nop
    4f12:	61 e0       	ldi	r22, 0x01	; 1
    4f14:	ce 01       	movw	r24, r28
    4f16:	0e 94 52 27 	call	0x4ea4	; 0x4ea4 <_ZN3SPI13exportCommandEh>
    4f1a:	2f ef       	ldi	r18, 0xFF	; 255
    4f1c:	89 ef       	ldi	r24, 0xF9	; 249
    4f1e:	90 e0       	ldi	r25, 0x00	; 0
    4f20:	21 50       	subi	r18, 0x01	; 1
    4f22:	80 40       	sbci	r24, 0x00	; 0
    4f24:	90 40       	sbci	r25, 0x00	; 0
    4f26:	e1 f7       	brne	.-8      	; 0x4f20 <_ZN3TFT5beginEv+0x3e>
    4f28:	00 c0       	rjmp	.+0      	; 0x4f2a <_ZN3TFT5beginEv+0x48>
    4f2a:	00 00       	nop
    4f2c:	60 ec       	ldi	r22, 0xC0	; 192
    4f2e:	ce 01       	movw	r24, r28
    4f30:	0e 94 52 27 	call	0x4ea4	; 0x4ea4 <_ZN3SPI13exportCommandEh>
    4f34:	6b e2       	ldi	r22, 0x2B	; 43
    4f36:	ce 01       	movw	r24, r28
    4f38:	0e 94 58 27 	call	0x4eb0	; 0x4eb0 <_ZN3SPI10exportDataEh>
    4f3c:	66 e3       	ldi	r22, 0x36	; 54
    4f3e:	ce 01       	movw	r24, r28
    4f40:	0e 94 52 27 	call	0x4ea4	; 0x4ea4 <_ZN3SPI13exportCommandEh>
    4f44:	68 e4       	ldi	r22, 0x48	; 72
    4f46:	ce 01       	movw	r24, r28
    4f48:	0e 94 58 27 	call	0x4eb0	; 0x4eb0 <_ZN3SPI10exportDataEh>
    4f4c:	6a e3       	ldi	r22, 0x3A	; 58
    4f4e:	ce 01       	movw	r24, r28
    4f50:	0e 94 52 27 	call	0x4ea4	; 0x4ea4 <_ZN3SPI13exportCommandEh>
    4f54:	65 e5       	ldi	r22, 0x55	; 85
    4f56:	ce 01       	movw	r24, r28
    4f58:	0e 94 58 27 	call	0x4eb0	; 0x4eb0 <_ZN3SPI10exportDataEh>
    4f5c:	60 e2       	ldi	r22, 0x20	; 32
    4f5e:	ce 01       	movw	r24, r28
    4f60:	0e 94 52 27 	call	0x4ea4	; 0x4ea4 <_ZN3SPI13exportCommandEh>
    4f64:	61 e1       	ldi	r22, 0x11	; 17
    4f66:	ce 01       	movw	r24, r28
    4f68:	0e 94 52 27 	call	0x4ea4	; 0x4ea4 <_ZN3SPI13exportCommandEh>
    4f6c:	2f ef       	ldi	r18, 0xFF	; 255
    4f6e:	8d ee       	ldi	r24, 0xED	; 237
    4f70:	92 e0       	ldi	r25, 0x02	; 2
    4f72:	21 50       	subi	r18, 0x01	; 1
    4f74:	80 40       	sbci	r24, 0x00	; 0
    4f76:	90 40       	sbci	r25, 0x00	; 0
    4f78:	e1 f7       	brne	.-8      	; 0x4f72 <_ZN3TFT5beginEv+0x90>
    4f7a:	00 c0       	rjmp	.+0      	; 0x4f7c <_ZN3TFT5beginEv+0x9a>
    4f7c:	00 00       	nop
    4f7e:	69 e2       	ldi	r22, 0x29	; 41
    4f80:	ce 01       	movw	r24, r28
    4f82:	0e 94 52 27 	call	0x4ea4	; 0x4ea4 <_ZN3SPI13exportCommandEh>
    4f86:	df 91       	pop	r29
    4f88:	cf 91       	pop	r28
    4f8a:	08 95       	ret

00004f8c <_ZN3TFT11setRotationEa>:
    4f8c:	1f 93       	push	r17
    4f8e:	cf 93       	push	r28
    4f90:	df 93       	push	r29
    4f92:	ec 01       	movw	r28, r24
    4f94:	16 2f       	mov	r17, r22
    4f96:	66 e3       	ldi	r22, 0x36	; 54
    4f98:	0e 94 52 27 	call	0x4ea4	; 0x4ea4 <_ZN3SPI13exportCommandEh>
    4f9c:	11 30       	cpi	r17, 0x01	; 1
    4f9e:	89 f0       	breq	.+34     	; 0x4fc2 <_ZN3TFT11setRotationEa+0x36>
    4fa0:	12 30       	cpi	r17, 0x02	; 2
    4fa2:	a1 f0       	breq	.+40     	; 0x4fcc <_ZN3TFT11setRotationEa+0x40>
    4fa4:	11 11       	cpse	r17, r1
    4fa6:	16 c0       	rjmp	.+44     	; 0x4fd4 <_ZN3TFT11setRotationEa+0x48>
    4fa8:	68 e2       	ldi	r22, 0x28	; 40
    4faa:	ce 01       	movw	r24, r28
    4fac:	0e 94 58 27 	call	0x4eb0	; 0x4eb0 <_ZN3SPI10exportDataEh>
    4fb0:	88 81       	ld	r24, Y
    4fb2:	99 81       	ldd	r25, Y+1	; 0x01
    4fb4:	2a 81       	ldd	r18, Y+2	; 0x02
    4fb6:	3b 81       	ldd	r19, Y+3	; 0x03
    4fb8:	39 83       	std	Y+1, r19	; 0x01
    4fba:	28 83       	st	Y, r18
    4fbc:	9b 83       	std	Y+3, r25	; 0x03
    4fbe:	8a 83       	std	Y+2, r24	; 0x02
    4fc0:	09 c0       	rjmp	.+18     	; 0x4fd4 <_ZN3TFT11setRotationEa+0x48>
    4fc2:	68 e4       	ldi	r22, 0x48	; 72
    4fc4:	ce 01       	movw	r24, r28
    4fc6:	0e 94 58 27 	call	0x4eb0	; 0x4eb0 <_ZN3SPI10exportDataEh>
    4fca:	04 c0       	rjmp	.+8      	; 0x4fd4 <_ZN3TFT11setRotationEa+0x48>
    4fcc:	68 e8       	ldi	r22, 0x88	; 136
    4fce:	ce 01       	movw	r24, r28
    4fd0:	0e 94 58 27 	call	0x4eb0	; 0x4eb0 <_ZN3SPI10exportDataEh>
    4fd4:	df 91       	pop	r29
    4fd6:	cf 91       	pop	r28
    4fd8:	1f 91       	pop	r17
    4fda:	08 95       	ret

00004fdc <_ZN3TFT10setAddressEiiii>:
    4fdc:	af 92       	push	r10
    4fde:	bf 92       	push	r11
    4fe0:	cf 92       	push	r12
    4fe2:	df 92       	push	r13
    4fe4:	ef 92       	push	r14
    4fe6:	ff 92       	push	r15
    4fe8:	0f 93       	push	r16
    4fea:	1f 93       	push	r17
    4fec:	cf 93       	push	r28
    4fee:	df 93       	push	r29
    4ff0:	ec 01       	movw	r28, r24
    4ff2:	5b 01       	movw	r10, r22
    4ff4:	7a 01       	movw	r14, r20
    4ff6:	69 01       	movw	r12, r18
    4ff8:	6a e2       	ldi	r22, 0x2A	; 42
    4ffa:	0e 94 52 27 	call	0x4ea4	; 0x4ea4 <_ZN3SPI13exportCommandEh>
    4ffe:	b5 01       	movw	r22, r10
    5000:	ce 01       	movw	r24, r28
    5002:	0e 94 5e 27 	call	0x4ebc	; 0x4ebc <_ZN3SPI14exportLongDataEj>
    5006:	b6 01       	movw	r22, r12
    5008:	ce 01       	movw	r24, r28
    500a:	0e 94 5e 27 	call	0x4ebc	; 0x4ebc <_ZN3SPI14exportLongDataEj>
    500e:	6b e2       	ldi	r22, 0x2B	; 43
    5010:	ce 01       	movw	r24, r28
    5012:	0e 94 52 27 	call	0x4ea4	; 0x4ea4 <_ZN3SPI13exportCommandEh>
    5016:	b7 01       	movw	r22, r14
    5018:	ce 01       	movw	r24, r28
    501a:	0e 94 5e 27 	call	0x4ebc	; 0x4ebc <_ZN3SPI14exportLongDataEj>
    501e:	b8 01       	movw	r22, r16
    5020:	ce 01       	movw	r24, r28
    5022:	0e 94 5e 27 	call	0x4ebc	; 0x4ebc <_ZN3SPI14exportLongDataEj>
    5026:	6c e2       	ldi	r22, 0x2C	; 44
    5028:	ce 01       	movw	r24, r28
    502a:	0e 94 52 27 	call	0x4ea4	; 0x4ea4 <_ZN3SPI13exportCommandEh>
    502e:	df 91       	pop	r29
    5030:	cf 91       	pop	r28
    5032:	1f 91       	pop	r17
    5034:	0f 91       	pop	r16
    5036:	ff 90       	pop	r15
    5038:	ef 90       	pop	r14
    503a:	df 90       	pop	r13
    503c:	cf 90       	pop	r12
    503e:	bf 90       	pop	r11
    5040:	af 90       	pop	r10
    5042:	08 95       	ret

00005044 <_ZN3TFT10fillScreenEj>:
    5044:	cf 92       	push	r12
    5046:	df 92       	push	r13
    5048:	ef 92       	push	r14
    504a:	ff 92       	push	r15
    504c:	0f 93       	push	r16
    504e:	1f 93       	push	r17
    5050:	cf 93       	push	r28
    5052:	df 93       	push	r29
    5054:	7c 01       	movw	r14, r24
    5056:	6b 01       	movw	r12, r22
    5058:	fc 01       	movw	r30, r24
    505a:	02 81       	ldd	r16, Z+2	; 0x02
    505c:	13 81       	ldd	r17, Z+3	; 0x03
    505e:	01 50       	subi	r16, 0x01	; 1
    5060:	11 09       	sbc	r17, r1
    5062:	20 81       	ld	r18, Z
    5064:	31 81       	ldd	r19, Z+1	; 0x01
    5066:	21 50       	subi	r18, 0x01	; 1
    5068:	31 09       	sbc	r19, r1
    506a:	40 e0       	ldi	r20, 0x00	; 0
    506c:	50 e0       	ldi	r21, 0x00	; 0
    506e:	60 e0       	ldi	r22, 0x00	; 0
    5070:	70 e0       	ldi	r23, 0x00	; 0
    5072:	0e 94 ee 27 	call	0x4fdc	; 0x4fdc <_ZN3TFT10setAddressEiiii>
    5076:	f7 01       	movw	r30, r14
    5078:	82 81       	ldd	r24, Z+2	; 0x02
    507a:	93 81       	ldd	r25, Z+3	; 0x03
    507c:	18 16       	cp	r1, r24
    507e:	19 06       	cpc	r1, r25
    5080:	ec f4       	brge	.+58     	; 0x50bc <_ZN3TFT10fillScreenEj+0x78>
    5082:	00 e0       	ldi	r16, 0x00	; 0
    5084:	10 e0       	ldi	r17, 0x00	; 0
    5086:	f7 01       	movw	r30, r14
    5088:	80 81       	ld	r24, Z
    508a:	91 81       	ldd	r25, Z+1	; 0x01
    508c:	18 16       	cp	r1, r24
    508e:	19 06       	cpc	r1, r25
    5090:	6c f4       	brge	.+26     	; 0x50ac <_ZN3TFT10fillScreenEj+0x68>
    5092:	c0 e0       	ldi	r28, 0x00	; 0
    5094:	d0 e0       	ldi	r29, 0x00	; 0
    5096:	b6 01       	movw	r22, r12
    5098:	c7 01       	movw	r24, r14
    509a:	0e 94 5e 27 	call	0x4ebc	; 0x4ebc <_ZN3SPI14exportLongDataEj>
    509e:	21 96       	adiw	r28, 0x01	; 1
    50a0:	f7 01       	movw	r30, r14
    50a2:	80 81       	ld	r24, Z
    50a4:	91 81       	ldd	r25, Z+1	; 0x01
    50a6:	c8 17       	cp	r28, r24
    50a8:	d9 07       	cpc	r29, r25
    50aa:	ac f3       	brlt	.-22     	; 0x5096 <_ZN3TFT10fillScreenEj+0x52>
    50ac:	0f 5f       	subi	r16, 0xFF	; 255
    50ae:	1f 4f       	sbci	r17, 0xFF	; 255
    50b0:	f7 01       	movw	r30, r14
    50b2:	82 81       	ldd	r24, Z+2	; 0x02
    50b4:	93 81       	ldd	r25, Z+3	; 0x03
    50b6:	08 17       	cp	r16, r24
    50b8:	19 07       	cpc	r17, r25
    50ba:	2c f3       	brlt	.-54     	; 0x5086 <_ZN3TFT10fillScreenEj+0x42>
    50bc:	df 91       	pop	r29
    50be:	cf 91       	pop	r28
    50c0:	1f 91       	pop	r17
    50c2:	0f 91       	pop	r16
    50c4:	ff 90       	pop	r15
    50c6:	ef 90       	pop	r14
    50c8:	df 90       	pop	r13
    50ca:	cf 90       	pop	r12
    50cc:	08 95       	ret

000050ce <_ZN3TFT5clearEiiiij>:
/*----------------------------------------//
                Clear Screen
//----------------------------------------*/

void TFT::clear(int16_t xPos, int16_t yPos, int16_t width, int16_t height, uint16_t colorValue)
{
    50ce:	8f 92       	push	r8
    50d0:	9f 92       	push	r9
    50d2:	af 92       	push	r10
    50d4:	bf 92       	push	r11
    50d6:	cf 92       	push	r12
    50d8:	df 92       	push	r13
    50da:	ef 92       	push	r14
    50dc:	ff 92       	push	r15
    50de:	0f 93       	push	r16
    50e0:	1f 93       	push	r17
    50e2:	cf 93       	push	r28
    50e4:	df 93       	push	r29
    50e6:	6c 01       	movw	r12, r24
    50e8:	49 01       	movw	r8, r18
    50ea:	58 01       	movw	r10, r16

  setAddress(xPos, yPos, (xPos + width - 1), (yPos + height - 1));
    50ec:	8a 01       	movw	r16, r20
    50ee:	0a 0d       	add	r16, r10
    50f0:	1b 1d       	adc	r17, r11
    50f2:	01 50       	subi	r16, 0x01	; 1
    50f4:	11 09       	sbc	r17, r1
    50f6:	9b 01       	movw	r18, r22
    50f8:	28 0d       	add	r18, r8
    50fa:	39 1d       	adc	r19, r9
    50fc:	21 50       	subi	r18, 0x01	; 1
    50fe:	31 09       	sbc	r19, r1
    5100:	0e 94 ee 27 	call	0x4fdc	; 0x4fdc <_ZN3TFT10setAddressEiiii>

  for (int yPos=height; yPos>0; yPos--)
    5104:	1a 14       	cp	r1, r10
    5106:	1b 04       	cpc	r1, r11
    5108:	74 f4       	brge	.+28     	; 0x5126 <_ZN3TFT5clearEiiiij+0x58>
  {
    for (int xPos=width; xPos>0; xPos--)
    510a:	18 14       	cp	r1, r8
    510c:	19 04       	cpc	r1, r9
    510e:	3c f4       	brge	.+14     	; 0x511e <_ZN3TFT5clearEiiiij+0x50>
    5110:	e4 01       	movw	r28, r8
    {
      exportLongData(colorValue);
    5112:	b7 01       	movw	r22, r14
    5114:	c6 01       	movw	r24, r12
    5116:	0e 94 5e 27 	call	0x4ebc	; 0x4ebc <_ZN3SPI14exportLongDataEj>

  setAddress(xPos, yPos, (xPos + width - 1), (yPos + height - 1));

  for (int yPos=height; yPos>0; yPos--)
  {
    for (int xPos=width; xPos>0; xPos--)
    511a:	21 97       	sbiw	r28, 0x01	; 1
    511c:	d1 f7       	brne	.-12     	; 0x5112 <_ZN3TFT5clearEiiiij+0x44>
void TFT::clear(int16_t xPos, int16_t yPos, int16_t width, int16_t height, uint16_t colorValue)
{

  setAddress(xPos, yPos, (xPos + width - 1), (yPos + height - 1));

  for (int yPos=height; yPos>0; yPos--)
    511e:	81 e0       	ldi	r24, 0x01	; 1
    5120:	a8 1a       	sub	r10, r24
    5122:	b1 08       	sbc	r11, r1
    5124:	91 f7       	brne	.-28     	; 0x510a <_ZN3TFT5clearEiiiij+0x3c>
    {
      exportLongData(colorValue);
    }
  }

}
    5126:	df 91       	pop	r29
    5128:	cf 91       	pop	r28
    512a:	1f 91       	pop	r17
    512c:	0f 91       	pop	r16
    512e:	ff 90       	pop	r15
    5130:	ef 90       	pop	r14
    5132:	df 90       	pop	r13
    5134:	cf 90       	pop	r12
    5136:	bf 90       	pop	r11
    5138:	af 90       	pop	r10
    513a:	9f 90       	pop	r9
    513c:	8f 90       	pop	r8
    513e:	08 95       	ret

00005140 <_ZN3TFT4drawEiiiiPKhjj>:
                Draw Bitmap
//----------------------------------------*/

void TFT::draw(int16_t xPos, int16_t yPos, int16_t width, int16_t height, const uint8_t *bitmap,
  uint16_t color0, uint16_t color1)
{
    5140:	3f 92       	push	r3
    5142:	4f 92       	push	r4
    5144:	5f 92       	push	r5
    5146:	6f 92       	push	r6
    5148:	7f 92       	push	r7
    514a:	8f 92       	push	r8
    514c:	9f 92       	push	r9
    514e:	af 92       	push	r10
    5150:	bf 92       	push	r11
    5152:	cf 92       	push	r12
    5154:	df 92       	push	r13
    5156:	ef 92       	push	r14
    5158:	ff 92       	push	r15
    515a:	0f 93       	push	r16
    515c:	1f 93       	push	r17
    515e:	cf 93       	push	r28
    5160:	df 93       	push	r29
    5162:	cd b7       	in	r28, 0x3d	; 61
    5164:	de b7       	in	r29, 0x3e	; 62
    5166:	2a 97       	sbiw	r28, 0x0a	; 10
    5168:	0f b6       	in	r0, 0x3f	; 63
    516a:	f8 94       	cli
    516c:	de bf       	out	0x3e, r29	; 62
    516e:	0f be       	out	0x3f, r0	; 63
    5170:	cd bf       	out	0x3d, r28	; 61
    5172:	4c 01       	movw	r8, r24
    5174:	39 01       	movw	r6, r18
    5176:	1a 83       	std	Y+2, r17	; 0x02
    5178:	09 83       	std	Y+1, r16	; 0x01

  uint8_t data;
  uint8_t temp;

  setAddress(xPos, yPos, (xPos + width - 1), (yPos + height - 1));
    517a:	04 0f       	add	r16, r20
    517c:	15 1f       	adc	r17, r21
    517e:	01 50       	subi	r16, 0x01	; 1
    5180:	11 09       	sbc	r17, r1
    5182:	9b 01       	movw	r18, r22
    5184:	26 0d       	add	r18, r6
    5186:	37 1d       	adc	r19, r7
    5188:	21 50       	subi	r18, 0x01	; 1
    518a:	31 09       	sbc	r19, r1
    518c:	0e 94 ee 27 	call	0x4fdc	; 0x4fdc <_ZN3TFT10setAddressEiiii>

  for (int i=0; i<(height / 2); i++)
    5190:	89 81       	ldd	r24, Y+1	; 0x01
    5192:	9a 81       	ldd	r25, Y+2	; 0x02
    5194:	99 23       	and	r25, r25
    5196:	0c f4       	brge	.+2      	; 0x519a <_ZN3TFT4drawEiiiiPKhjj+0x5a>
    5198:	01 96       	adiw	r24, 0x01	; 1
    519a:	9c 01       	movw	r18, r24
    519c:	35 95       	asr	r19
    519e:	27 95       	ror	r18
    51a0:	38 87       	std	Y+8, r19	; 0x08
    51a2:	2f 83       	std	Y+7, r18	; 0x07
    51a4:	12 16       	cp	r1, r18
    51a6:	13 06       	cpc	r1, r19
    51a8:	0c f0       	brlt	.+2      	; 0x51ac <_ZN3TFT4drawEiiiiPKhjj+0x6c>
    51aa:	5c c0       	rjmp	.+184    	; 0x5264 <_ZN3TFT4drawEiiiiPKhjj+0x124>
  {
    for (int j=0; j<2; j++)
    {
      for (int k=0; k<(width / 16); k++)
    51ac:	c3 01       	movw	r24, r6
    51ae:	99 23       	and	r25, r25
    51b0:	0c f4       	brge	.+2      	; 0x51b4 <_ZN3TFT4drawEiiiiPKhjj+0x74>
    51b2:	0f 96       	adiw	r24, 0x0f	; 15
    51b4:	fc 01       	movw	r30, r24
    51b6:	f5 95       	asr	r31
    51b8:	e7 95       	ror	r30
    51ba:	f5 95       	asr	r31
    51bc:	e7 95       	ror	r30
    51be:	f5 95       	asr	r31
    51c0:	e7 95       	ror	r30
    51c2:	f5 95       	asr	r31
    51c4:	e7 95       	ror	r30
    51c6:	fc 83       	std	Y+4, r31	; 0x04
    51c8:	eb 83       	std	Y+3, r30	; 0x03
    51ca:	fe 83       	std	Y+6, r31	; 0x06
    51cc:	ed 83       	std	Y+5, r30	; 0x05
    51ce:	6e 2c       	mov	r6, r14
    51d0:	7f 2c       	mov	r7, r15
    51d2:	1a 82       	std	Y+2, r1	; 0x02
    51d4:	19 82       	std	Y+1, r1	; 0x01
    51d6:	68 94       	set
    51d8:	ee 24       	eor	r14, r14
    51da:	e1 f8       	bld	r14, 1
    51dc:	f1 2c       	mov	r15, r1
    51de:	4d 80       	ldd	r4, Y+5	; 0x05
    51e0:	5e 80       	ldd	r5, Y+6	; 0x06
    51e2:	46 0c       	add	r4, r6
    51e4:	57 1c       	adc	r5, r7
    51e6:	2b 81       	ldd	r18, Y+3	; 0x03
    51e8:	3c 81       	ldd	r19, Y+4	; 0x04
    51ea:	12 16       	cp	r1, r18
    51ec:	13 06       	cpc	r1, r19
    51ee:	3c f5       	brge	.+78     	; 0x523e <_ZN3TFT4drawEiiiiPKhjj+0xfe>
    51f0:	83 01       	movw	r16, r6
      {

        data = pgm_read_byte(&bitmap[i * (width / 16) + k]);
    51f2:	f8 01       	movw	r30, r16
    51f4:	34 90       	lpm	r3, Z
    51f6:	28 e0       	ldi	r18, 0x08	; 8
    51f8:	30 e0       	ldi	r19, 0x00	; 0
    51fa:	3a 87       	std	Y+10, r19	; 0x0a
    51fc:	29 87       	std	Y+9, r18	; 0x09
          temp = data >> 7;

          for (int m=0; m<2; m++)
          {

            if (temp == 0x00)       //1Pixel = 0
    51fe:	33 20       	and	r3, r3
    5200:	4c f4       	brge	.+18     	; 0x5214 <_ZN3TFT4drawEiiiiPKhjj+0xd4>
              exportLongData(color0);
            }

            else                    //1Pixel = 1
            {
              exportLongData(color1);
    5202:	b5 01       	movw	r22, r10
    5204:	c4 01       	movw	r24, r8
    5206:	0e 94 5e 27 	call	0x4ebc	; 0x4ebc <_ZN3SPI14exportLongDataEj>
    520a:	b5 01       	movw	r22, r10
    520c:	c4 01       	movw	r24, r8
    520e:	0e 94 5e 27 	call	0x4ebc	; 0x4ebc <_ZN3SPI14exportLongDataEj>
    5212:	08 c0       	rjmp	.+16     	; 0x5224 <_ZN3TFT4drawEiiiiPKhjj+0xe4>
          for (int m=0; m<2; m++)
          {

            if (temp == 0x00)       //1Pixel = 0
            {
              exportLongData(color0);
    5214:	b6 01       	movw	r22, r12
    5216:	c4 01       	movw	r24, r8
    5218:	0e 94 5e 27 	call	0x4ebc	; 0x4ebc <_ZN3SPI14exportLongDataEj>
    521c:	b6 01       	movw	r22, r12
    521e:	c4 01       	movw	r24, r8
    5220:	0e 94 5e 27 	call	0x4ebc	; 0x4ebc <_ZN3SPI14exportLongDataEj>
              exportLongData(color1);
            }

          }

          data <<= 1;
    5224:	33 0c       	add	r3, r3
    5226:	89 85       	ldd	r24, Y+9	; 0x09
    5228:	9a 85       	ldd	r25, Y+10	; 0x0a
    522a:	01 97       	sbiw	r24, 0x01	; 1
    522c:	9a 87       	std	Y+10, r25	; 0x0a
    522e:	89 87       	std	Y+9, r24	; 0x09
      for (int k=0; k<(width / 16); k++)
      {

        data = pgm_read_byte(&bitmap[i * (width / 16) + k]);

        for (int l=0; l<8; l++)
    5230:	89 2b       	or	r24, r25
    5232:	29 f7       	brne	.-54     	; 0x51fe <_ZN3TFT4drawEiiiiPKhjj+0xbe>
    5234:	0f 5f       	subi	r16, 0xFF	; 255
    5236:	1f 4f       	sbci	r17, 0xFF	; 255

  for (int i=0; i<(height / 2); i++)
  {
    for (int j=0; j<2; j++)
    {
      for (int k=0; k<(width / 16); k++)
    5238:	04 15       	cp	r16, r4
    523a:	15 05       	cpc	r17, r5
    523c:	d1 f6       	brne	.-76     	; 0x51f2 <_ZN3TFT4drawEiiiiPKhjj+0xb2>
    523e:	91 e0       	ldi	r25, 0x01	; 1
    5240:	e9 1a       	sub	r14, r25
    5242:	f1 08       	sbc	r15, r1

  setAddress(xPos, yPos, (xPos + width - 1), (yPos + height - 1));

  for (int i=0; i<(height / 2); i++)
  {
    for (int j=0; j<2; j++)
    5244:	81 f6       	brne	.-96     	; 0x51e6 <_ZN3TFT4drawEiiiiPKhjj+0xa6>
  uint8_t data;
  uint8_t temp;

  setAddress(xPos, yPos, (xPos + width - 1), (yPos + height - 1));

  for (int i=0; i<(height / 2); i++)
    5246:	e9 81       	ldd	r30, Y+1	; 0x01
    5248:	fa 81       	ldd	r31, Y+2	; 0x02
    524a:	31 96       	adiw	r30, 0x01	; 1
    524c:	fa 83       	std	Y+2, r31	; 0x02
    524e:	e9 83       	std	Y+1, r30	; 0x01
    5250:	2d 81       	ldd	r18, Y+5	; 0x05
    5252:	3e 81       	ldd	r19, Y+6	; 0x06
    5254:	62 0e       	add	r6, r18
    5256:	73 1e       	adc	r7, r19
    5258:	8f 81       	ldd	r24, Y+7	; 0x07
    525a:	98 85       	ldd	r25, Y+8	; 0x08
    525c:	e8 17       	cp	r30, r24
    525e:	f9 07       	cpc	r31, r25
    5260:	09 f0       	breq	.+2      	; 0x5264 <_ZN3TFT4drawEiiiiPKhjj+0x124>
    5262:	b9 cf       	rjmp	.-142    	; 0x51d6 <_ZN3TFT4drawEiiiiPKhjj+0x96>

      }
    }
  }

}
    5264:	2a 96       	adiw	r28, 0x0a	; 10
    5266:	0f b6       	in	r0, 0x3f	; 63
    5268:	f8 94       	cli
    526a:	de bf       	out	0x3e, r29	; 62
    526c:	0f be       	out	0x3f, r0	; 63
    526e:	cd bf       	out	0x3d, r28	; 61
    5270:	df 91       	pop	r29
    5272:	cf 91       	pop	r28
    5274:	1f 91       	pop	r17
    5276:	0f 91       	pop	r16
    5278:	ff 90       	pop	r15
    527a:	ef 90       	pop	r14
    527c:	df 90       	pop	r13
    527e:	cf 90       	pop	r12
    5280:	bf 90       	pop	r11
    5282:	af 90       	pop	r10
    5284:	9f 90       	pop	r9
    5286:	8f 90       	pop	r8
    5288:	7f 90       	pop	r7
    528a:	6f 90       	pop	r6
    528c:	5f 90       	pop	r5
    528e:	4f 90       	pop	r4
    5290:	3f 90       	pop	r3
    5292:	08 95       	ret

00005294 <_ZN3TFT4drawEiiiiPKhjjjj>:
                Draw Bitmap
//----------------------------------------*/

void TFT::draw(int16_t xPos, int16_t yPos, int16_t width, int16_t height, const uint8_t *bitmap,
  uint16_t color0, uint16_t color1, uint16_t color2, uint16_t color3)
{
    5294:	2f 92       	push	r2
    5296:	3f 92       	push	r3
    5298:	4f 92       	push	r4
    529a:	5f 92       	push	r5
    529c:	6f 92       	push	r6
    529e:	7f 92       	push	r7
    52a0:	8f 92       	push	r8
    52a2:	9f 92       	push	r9
    52a4:	af 92       	push	r10
    52a6:	bf 92       	push	r11
    52a8:	cf 92       	push	r12
    52aa:	df 92       	push	r13
    52ac:	ef 92       	push	r14
    52ae:	ff 92       	push	r15
    52b0:	0f 93       	push	r16
    52b2:	1f 93       	push	r17
    52b4:	cf 93       	push	r28
    52b6:	df 93       	push	r29
    52b8:	cd b7       	in	r28, 0x3d	; 61
    52ba:	de b7       	in	r29, 0x3e	; 62
    52bc:	60 97       	sbiw	r28, 0x10	; 16
    52be:	0f b6       	in	r0, 0x3f	; 63
    52c0:	f8 94       	cli
    52c2:	de bf       	out	0x3e, r29	; 62
    52c4:	0f be       	out	0x3f, r0	; 63
    52c6:	cd bf       	out	0x3d, r28	; 61
    52c8:	98 8b       	std	Y+16, r25	; 0x10
    52ca:	8f 87       	std	Y+15, r24	; 0x0f
    52cc:	29 01       	movw	r4, r18
    52ce:	38 01       	movw	r6, r16
    52d0:	da 82       	std	Y+2, r13	; 0x02
    52d2:	c9 82       	std	Y+1, r12	; 0x01
    52d4:	ba 86       	std	Y+10, r11	; 0x0a
    52d6:	a9 86       	std	Y+9, r10	; 0x09
    52d8:	9c 86       	std	Y+12, r9	; 0x0c
    52da:	8b 86       	std	Y+11, r8	; 0x0b

  uint8_t data;
  uint8_t temp;

  setAddress(xPos, yPos, (xPos + width - 1), (yPos + height - 1));
    52dc:	8a 01       	movw	r16, r20
    52de:	06 0d       	add	r16, r6
    52e0:	17 1d       	adc	r17, r7
    52e2:	01 50       	subi	r16, 0x01	; 1
    52e4:	11 09       	sbc	r17, r1
    52e6:	9b 01       	movw	r18, r22
    52e8:	24 0d       	add	r18, r4
    52ea:	35 1d       	adc	r19, r5
    52ec:	21 50       	subi	r18, 0x01	; 1
    52ee:	31 09       	sbc	r19, r1
    52f0:	0e 94 ee 27 	call	0x4fdc	; 0x4fdc <_ZN3TFT10setAddressEiiii>

  for (int i=0; i<(height / 2); i++)
    52f4:	c3 01       	movw	r24, r6
    52f6:	99 23       	and	r25, r25
    52f8:	0c f4       	brge	.+2      	; 0x52fc <_ZN3TFT4drawEiiiiPKhjjjj+0x68>
    52fa:	01 96       	adiw	r24, 0x01	; 1
    52fc:	9c 01       	movw	r18, r24
    52fe:	35 95       	asr	r19
    5300:	27 95       	ror	r18
    5302:	3e 87       	std	Y+14, r19	; 0x0e
    5304:	2d 87       	std	Y+13, r18	; 0x0d
    5306:	12 16       	cp	r1, r18
    5308:	13 06       	cpc	r1, r19
    530a:	0c f0       	brlt	.+2      	; 0x530e <_ZN3TFT4drawEiiiiPKhjjjj+0x7a>
    530c:	7c c0       	rjmp	.+248    	; 0x5406 <_ZN3TFT4drawEiiiiPKhjjjj+0x172>
  {
    for (int j=0; j<2; j++)
    {
      for (int k=0; k<(width / 8); k++)
    530e:	c2 01       	movw	r24, r4
    5310:	99 23       	and	r25, r25
    5312:	0c f4       	brge	.+2      	; 0x5316 <_ZN3TFT4drawEiiiiPKhjjjj+0x82>
    5314:	07 96       	adiw	r24, 0x07	; 7
    5316:	fc 01       	movw	r30, r24
    5318:	f5 95       	asr	r31
    531a:	e7 95       	ror	r30
    531c:	f5 95       	asr	r31
    531e:	e7 95       	ror	r30
    5320:	f5 95       	asr	r31
    5322:	e7 95       	ror	r30
    5324:	fe 83       	std	Y+6, r31	; 0x06
    5326:	ed 83       	std	Y+5, r30	; 0x05
    5328:	f8 87       	std	Y+8, r31	; 0x08
    532a:	ef 83       	std	Y+7, r30	; 0x07
    532c:	6e 2c       	mov	r6, r14
    532e:	7f 2c       	mov	r7, r15
    5330:	21 2c       	mov	r2, r1
    5332:	31 2c       	mov	r3, r1
    5334:	68 94       	set
    5336:	aa 24       	eor	r10, r10
    5338:	a1 f8       	bld	r10, 1
    533a:	b1 2c       	mov	r11, r1
    533c:	8f 80       	ldd	r8, Y+7	; 0x07
    533e:	98 84       	ldd	r9, Y+8	; 0x08
    5340:	86 0c       	add	r8, r6
    5342:	97 1c       	adc	r9, r7
    5344:	7c 82       	std	Y+4, r7	; 0x04
    5346:	6b 82       	std	Y+3, r6	; 0x03
    5348:	4f 84       	ldd	r4, Y+15	; 0x0f
    534a:	58 88       	ldd	r5, Y+16	; 0x10
    534c:	2d 81       	ldd	r18, Y+5	; 0x05
    534e:	3e 81       	ldd	r19, Y+6	; 0x06
    5350:	12 16       	cp	r1, r18
    5352:	13 06       	cpc	r1, r19
    5354:	0c f0       	brlt	.+2      	; 0x5358 <_ZN3TFT4drawEiiiiPKhjjjj+0xc4>
    5356:	43 c0       	rjmp	.+134    	; 0x53de <_ZN3TFT4drawEiiiiPKhjjjj+0x14a>
    5358:	eb 80       	ldd	r14, Y+3	; 0x03
    535a:	fc 80       	ldd	r15, Y+4	; 0x04
      {

        data = pgm_read_byte(&bitmap[i * (width / 8) + k]);
    535c:	f7 01       	movw	r30, r14
    535e:	c4 90       	lpm	r12, Z
    5360:	68 94       	set
    5362:	66 24       	eor	r6, r6
    5364:	62 f8       	bld	r6, 2
    5366:	71 2c       	mov	r7, r1

        for (int l=0; l<4; l++)
        {
          temp = data >> 6;
    5368:	dc 2c       	mov	r13, r12
    536a:	d6 94       	lsr	r13
    536c:	d6 94       	lsr	r13
    536e:	d6 94       	lsr	r13
    5370:	d6 94       	lsr	r13
    5372:	d6 94       	lsr	r13
    5374:	d6 94       	lsr	r13
    5376:	02 e0       	ldi	r16, 0x02	; 2
    5378:	10 e0       	ldi	r17, 0x00	; 0

          for (int m=0; m<2; m++)
          {

            if (temp == 0x00)       //1Pixel = 00
    537a:	d1 10       	cpse	r13, r1
    537c:	06 c0       	rjmp	.+12     	; 0x538a <_ZN3TFT4drawEiiiiPKhjjjj+0xf6>
            {
              exportLongData(color0);
    537e:	69 81       	ldd	r22, Y+1	; 0x01
    5380:	7a 81       	ldd	r23, Y+2	; 0x02
    5382:	c2 01       	movw	r24, r4
    5384:	0e 94 5e 27 	call	0x4ebc	; 0x4ebc <_ZN3SPI14exportLongDataEj>
    5388:	1a c0       	rjmp	.+52     	; 0x53be <_ZN3TFT4drawEiiiiPKhjjjj+0x12a>
            }

            else if (temp == 0x01)  //1Pixel = 01
    538a:	f1 e0       	ldi	r31, 0x01	; 1
    538c:	df 12       	cpse	r13, r31
    538e:	06 c0       	rjmp	.+12     	; 0x539c <_ZN3TFT4drawEiiiiPKhjjjj+0x108>
            {
              exportLongData(color1);
    5390:	69 85       	ldd	r22, Y+9	; 0x09
    5392:	7a 85       	ldd	r23, Y+10	; 0x0a
    5394:	c2 01       	movw	r24, r4
    5396:	0e 94 5e 27 	call	0x4ebc	; 0x4ebc <_ZN3SPI14exportLongDataEj>
    539a:	11 c0       	rjmp	.+34     	; 0x53be <_ZN3TFT4drawEiiiiPKhjjjj+0x12a>
            }

            else if (temp == 0x02)  //1Pixel = 10
    539c:	22 e0       	ldi	r18, 0x02	; 2
    539e:	d2 12       	cpse	r13, r18
    53a0:	06 c0       	rjmp	.+12     	; 0x53ae <_ZN3TFT4drawEiiiiPKhjjjj+0x11a>
            {
              exportLongData(color2);
    53a2:	6b 85       	ldd	r22, Y+11	; 0x0b
    53a4:	7c 85       	ldd	r23, Y+12	; 0x0c
    53a6:	c2 01       	movw	r24, r4
    53a8:	0e 94 5e 27 	call	0x4ebc	; 0x4ebc <_ZN3SPI14exportLongDataEj>
    53ac:	08 c0       	rjmp	.+16     	; 0x53be <_ZN3TFT4drawEiiiiPKhjjjj+0x12a>
            }

            else if (temp == 0x03)  //1Pixel = 11
    53ae:	33 e0       	ldi	r19, 0x03	; 3
    53b0:	d3 12       	cpse	r13, r19
    53b2:	05 c0       	rjmp	.+10     	; 0x53be <_ZN3TFT4drawEiiiiPKhjjjj+0x12a>
            {
              exportLongData(color3);
    53b4:	6d a1       	ldd	r22, Y+37	; 0x25
    53b6:	7e a1       	ldd	r23, Y+38	; 0x26
    53b8:	c2 01       	movw	r24, r4
    53ba:	0e 94 5e 27 	call	0x4ebc	; 0x4ebc <_ZN3SPI14exportLongDataEj>
    53be:	01 50       	subi	r16, 0x01	; 1
    53c0:	11 09       	sbc	r17, r1

        for (int l=0; l<4; l++)
        {
          temp = data >> 6;

          for (int m=0; m<2; m++)
    53c2:	d9 f6       	brne	.-74     	; 0x537a <_ZN3TFT4drawEiiiiPKhjjjj+0xe6>
              exportLongData(color3);
            }

          }

          data <<= 2;
    53c4:	cc 0c       	add	r12, r12
    53c6:	cc 0c       	add	r12, r12
    53c8:	81 e0       	ldi	r24, 0x01	; 1
    53ca:	68 1a       	sub	r6, r24
    53cc:	71 08       	sbc	r7, r1
      for (int k=0; k<(width / 8); k++)
      {

        data = pgm_read_byte(&bitmap[i * (width / 8) + k]);

        for (int l=0; l<4; l++)
    53ce:	61 f6       	brne	.-104    	; 0x5368 <_ZN3TFT4drawEiiiiPKhjjjj+0xd4>
    53d0:	9f ef       	ldi	r25, 0xFF	; 255
    53d2:	e9 1a       	sub	r14, r25
    53d4:	f9 0a       	sbc	r15, r25

  for (int i=0; i<(height / 2); i++)
  {
    for (int j=0; j<2; j++)
    {
      for (int k=0; k<(width / 8); k++)
    53d6:	e8 14       	cp	r14, r8
    53d8:	f9 04       	cpc	r15, r9
    53da:	09 f0       	breq	.+2      	; 0x53de <_ZN3TFT4drawEiiiiPKhjjjj+0x14a>
    53dc:	bf cf       	rjmp	.-130    	; 0x535c <_ZN3TFT4drawEiiiiPKhjjjj+0xc8>
    53de:	e1 e0       	ldi	r30, 0x01	; 1
    53e0:	ae 1a       	sub	r10, r30
    53e2:	b1 08       	sbc	r11, r1

  setAddress(xPos, yPos, (xPos + width - 1), (yPos + height - 1));

  for (int i=0; i<(height / 2); i++)
  {
    for (int j=0; j<2; j++)
    53e4:	09 f0       	breq	.+2      	; 0x53e8 <_ZN3TFT4drawEiiiiPKhjjjj+0x154>
    53e6:	b2 cf       	rjmp	.-156    	; 0x534c <_ZN3TFT4drawEiiiiPKhjjjj+0xb8>
    53e8:	6b 80       	ldd	r6, Y+3	; 0x03
    53ea:	7c 80       	ldd	r7, Y+4	; 0x04
  uint8_t data;
  uint8_t temp;

  setAddress(xPos, yPos, (xPos + width - 1), (yPos + height - 1));

  for (int i=0; i<(height / 2); i++)
    53ec:	ff ef       	ldi	r31, 0xFF	; 255
    53ee:	2f 1a       	sub	r2, r31
    53f0:	3f 0a       	sbc	r3, r31
    53f2:	2f 81       	ldd	r18, Y+7	; 0x07
    53f4:	38 85       	ldd	r19, Y+8	; 0x08
    53f6:	62 0e       	add	r6, r18
    53f8:	73 1e       	adc	r7, r19
    53fa:	8d 85       	ldd	r24, Y+13	; 0x0d
    53fc:	9e 85       	ldd	r25, Y+14	; 0x0e
    53fe:	28 16       	cp	r2, r24
    5400:	39 06       	cpc	r3, r25
    5402:	09 f0       	breq	.+2      	; 0x5406 <_ZN3TFT4drawEiiiiPKhjjjj+0x172>
    5404:	97 cf       	rjmp	.-210    	; 0x5334 <_ZN3TFT4drawEiiiiPKhjjjj+0xa0>

      }
    }
  }

}
    5406:	60 96       	adiw	r28, 0x10	; 16
    5408:	0f b6       	in	r0, 0x3f	; 63
    540a:	f8 94       	cli
    540c:	de bf       	out	0x3e, r29	; 62
    540e:	0f be       	out	0x3f, r0	; 63
    5410:	cd bf       	out	0x3d, r28	; 61
    5412:	df 91       	pop	r29
    5414:	cf 91       	pop	r28
    5416:	1f 91       	pop	r17
    5418:	0f 91       	pop	r16
    541a:	ff 90       	pop	r15
    541c:	ef 90       	pop	r14
    541e:	df 90       	pop	r13
    5420:	cf 90       	pop	r12
    5422:	bf 90       	pop	r11
    5424:	af 90       	pop	r10
    5426:	9f 90       	pop	r9
    5428:	8f 90       	pop	r8
    542a:	7f 90       	pop	r7
    542c:	6f 90       	pop	r6
    542e:	5f 90       	pop	r5
    5430:	4f 90       	pop	r4
    5432:	3f 90       	pop	r3
    5434:	2f 90       	pop	r2
    5436:	08 95       	ret

00005438 <_ZN3TFT4drawEiiiiPA100_Khajjjj>:
            Draw 100bytes Bitmap
//----------------------------------------*/

void TFT::draw(int16_t xPos, int16_t yPos, int16_t width, int16_t height, const unsigned char (*bitmap)[100], int8_t tileSelection,
  uint16_t color0, uint16_t color1, uint16_t color2, uint16_t color3)
{
    5438:	2f 92       	push	r2
    543a:	3f 92       	push	r3
    543c:	4f 92       	push	r4
    543e:	5f 92       	push	r5
    5440:	6f 92       	push	r6
    5442:	7f 92       	push	r7
    5444:	8f 92       	push	r8
    5446:	9f 92       	push	r9
    5448:	af 92       	push	r10
    544a:	bf 92       	push	r11
    544c:	cf 92       	push	r12
    544e:	df 92       	push	r13
    5450:	ef 92       	push	r14
    5452:	ff 92       	push	r15
    5454:	0f 93       	push	r16
    5456:	1f 93       	push	r17
    5458:	cf 93       	push	r28
    545a:	df 93       	push	r29
    545c:	cd b7       	in	r28, 0x3d	; 61
    545e:	de b7       	in	r29, 0x3e	; 62
    5460:	2e 97       	sbiw	r28, 0x0e	; 14
    5462:	0f b6       	in	r0, 0x3f	; 63
    5464:	f8 94       	cli
    5466:	de bf       	out	0x3e, r29	; 62
    5468:	0f be       	out	0x3f, r0	; 63
    546a:	cd bf       	out	0x3d, r28	; 61
    546c:	9e 87       	std	Y+14, r25	; 0x0e
    546e:	8d 87       	std	Y+13, r24	; 0x0d
    5470:	29 01       	movw	r4, r18
    5472:	38 01       	movw	r6, r16
    5474:	ba 82       	std	Y+2, r11	; 0x02
    5476:	a9 82       	std	Y+1, r10	; 0x01
    5478:	9a 86       	std	Y+10, r9	; 0x0a
    547a:	89 86       	std	Y+9, r8	; 0x09

  uint8_t data;
  uint8_t temp;

  setAddress(xPos, yPos, (xPos + width - 1), (yPos + height - 1));
    547c:	8a 01       	movw	r16, r20
    547e:	06 0d       	add	r16, r6
    5480:	17 1d       	adc	r17, r7
    5482:	01 50       	subi	r16, 0x01	; 1
    5484:	11 09       	sbc	r17, r1
    5486:	9b 01       	movw	r18, r22
    5488:	24 0d       	add	r18, r4
    548a:	35 1d       	adc	r19, r5
    548c:	21 50       	subi	r18, 0x01	; 1
    548e:	31 09       	sbc	r19, r1
    5490:	0e 94 ee 27 	call	0x4fdc	; 0x4fdc <_ZN3TFT10setAddressEiiii>

  for (int i=0; i<(height / 2); i++)
    5494:	c3 01       	movw	r24, r6
    5496:	99 23       	and	r25, r25
    5498:	0c f4       	brge	.+2      	; 0x549c <_ZN3TFT4drawEiiiiPA100_Khajjjj+0x64>
    549a:	01 96       	adiw	r24, 0x01	; 1
    549c:	9c 01       	movw	r18, r24
    549e:	35 95       	asr	r19
    54a0:	27 95       	ror	r18
    54a2:	3c 87       	std	Y+12, r19	; 0x0c
    54a4:	2b 87       	std	Y+11, r18	; 0x0b
    54a6:	12 16       	cp	r1, r18
    54a8:	13 06       	cpc	r1, r19
    54aa:	0c f0       	brlt	.+2      	; 0x54ae <_ZN3TFT4drawEiiiiPA100_Khajjjj+0x76>
    54ac:	81 c0       	rjmp	.+258    	; 0x55b0 <_ZN3TFT4drawEiiiiPA100_Khajjjj+0x178>
  {
    for (int j=0; j<2; j++)
    {
      for (int k=0; k<(width / 8); k++)
    54ae:	c2 01       	movw	r24, r4
    54b0:	99 23       	and	r25, r25
    54b2:	0c f4       	brge	.+2      	; 0x54b6 <_ZN3TFT4drawEiiiiPA100_Khajjjj+0x7e>
    54b4:	07 96       	adiw	r24, 0x07	; 7
    54b6:	fc 01       	movw	r30, r24
    54b8:	f5 95       	asr	r31
    54ba:	e7 95       	ror	r30
    54bc:	f5 95       	asr	r31
    54be:	e7 95       	ror	r30
    54c0:	f5 95       	asr	r31
    54c2:	e7 95       	ror	r30
    54c4:	fe 83       	std	Y+6, r31	; 0x06
    54c6:	ed 83       	std	Y+5, r30	; 0x05
    54c8:	f8 87       	std	Y+8, r31	; 0x08
    54ca:	ef 83       	std	Y+7, r30	; 0x07
    54cc:	37 01       	movw	r6, r14
    54ce:	fc 2d       	mov	r31, r12
    54d0:	24 e6       	ldi	r18, 0x64	; 100
    54d2:	f2 02       	muls	r31, r18
    54d4:	60 0c       	add	r6, r0
    54d6:	71 1c       	adc	r7, r1
    54d8:	11 24       	eor	r1, r1
      {

        data = pgm_read_byte(&bitmap[tileSelection][i * (width / 8) + k]);
    54da:	21 2c       	mov	r2, r1
    54dc:	31 2c       	mov	r3, r1
    54de:	68 94       	set
    54e0:	aa 24       	eor	r10, r10
    54e2:	a1 f8       	bld	r10, 1
    54e4:	b1 2c       	mov	r11, r1
    54e6:	8f 80       	ldd	r8, Y+7	; 0x07
    54e8:	98 84       	ldd	r9, Y+8	; 0x08
    54ea:	86 0c       	add	r8, r6
    54ec:	97 1c       	adc	r9, r7
    54ee:	7c 82       	std	Y+4, r7	; 0x04
    54f0:	6b 82       	std	Y+3, r6	; 0x03
    54f2:	4d 84       	ldd	r4, Y+13	; 0x0d
    54f4:	5e 84       	ldd	r5, Y+14	; 0x0e

  for (int i=0; i<(height / 2); i++)
  {
    for (int j=0; j<2; j++)
    {
      for (int k=0; k<(width / 8); k++)
    54f6:	8d 81       	ldd	r24, Y+5	; 0x05
    54f8:	9e 81       	ldd	r25, Y+6	; 0x06
    54fa:	18 16       	cp	r1, r24
    54fc:	19 06       	cpc	r1, r25
    54fe:	0c f0       	brlt	.+2      	; 0x5502 <_ZN3TFT4drawEiiiiPA100_Khajjjj+0xca>
    5500:	43 c0       	rjmp	.+134    	; 0x5588 <_ZN3TFT4drawEiiiiPA100_Khajjjj+0x150>
    5502:	eb 80       	ldd	r14, Y+3	; 0x03
    5504:	fc 80       	ldd	r15, Y+4	; 0x04
      {

        data = pgm_read_byte(&bitmap[tileSelection][i * (width / 8) + k]);
    5506:	f7 01       	movw	r30, r14
    5508:	c4 90       	lpm	r12, Z
    550a:	68 94       	set
    550c:	66 24       	eor	r6, r6
    550e:	62 f8       	bld	r6, 2
    5510:	71 2c       	mov	r7, r1

        for (int l=0; l<4; l++)
        {
          temp = data >> 6;
    5512:	dc 2c       	mov	r13, r12
    5514:	d6 94       	lsr	r13
    5516:	d6 94       	lsr	r13
    5518:	d6 94       	lsr	r13
    551a:	d6 94       	lsr	r13
    551c:	d6 94       	lsr	r13
    551e:	d6 94       	lsr	r13
    5520:	02 e0       	ldi	r16, 0x02	; 2
    5522:	10 e0       	ldi	r17, 0x00	; 0

          for (int m=0; m<2; m++)
          {

            if (temp == 0x00)       //1Pixel = 00
    5524:	d1 10       	cpse	r13, r1
    5526:	06 c0       	rjmp	.+12     	; 0x5534 <_ZN3TFT4drawEiiiiPA100_Khajjjj+0xfc>
            {
              exportLongData(color0);
    5528:	69 81       	ldd	r22, Y+1	; 0x01
    552a:	7a 81       	ldd	r23, Y+2	; 0x02
    552c:	c2 01       	movw	r24, r4
    552e:	0e 94 5e 27 	call	0x4ebc	; 0x4ebc <_ZN3SPI14exportLongDataEj>
    5532:	1a c0       	rjmp	.+52     	; 0x5568 <_ZN3TFT4drawEiiiiPA100_Khajjjj+0x130>
            }

            else if (temp == 0x01)  //1Pixel = 01
    5534:	f1 e0       	ldi	r31, 0x01	; 1
    5536:	df 12       	cpse	r13, r31
    5538:	06 c0       	rjmp	.+12     	; 0x5546 <_ZN3TFT4drawEiiiiPA100_Khajjjj+0x10e>
            {
              exportLongData(color1);
    553a:	69 85       	ldd	r22, Y+9	; 0x09
    553c:	7a 85       	ldd	r23, Y+10	; 0x0a
    553e:	c2 01       	movw	r24, r4
    5540:	0e 94 5e 27 	call	0x4ebc	; 0x4ebc <_ZN3SPI14exportLongDataEj>
    5544:	11 c0       	rjmp	.+34     	; 0x5568 <_ZN3TFT4drawEiiiiPA100_Khajjjj+0x130>
            }

            else if (temp == 0x02)  //1Pixel = 10
    5546:	22 e0       	ldi	r18, 0x02	; 2
    5548:	d2 12       	cpse	r13, r18
    554a:	06 c0       	rjmp	.+12     	; 0x5558 <_ZN3TFT4drawEiiiiPA100_Khajjjj+0x120>
            {
              exportLongData(color2);
    554c:	6b a1       	ldd	r22, Y+35	; 0x23
    554e:	7c a1       	ldd	r23, Y+36	; 0x24
    5550:	c2 01       	movw	r24, r4
    5552:	0e 94 5e 27 	call	0x4ebc	; 0x4ebc <_ZN3SPI14exportLongDataEj>
    5556:	08 c0       	rjmp	.+16     	; 0x5568 <_ZN3TFT4drawEiiiiPA100_Khajjjj+0x130>
            }

            else if (temp == 0x03)  //1Pixel = 11
    5558:	33 e0       	ldi	r19, 0x03	; 3
    555a:	d3 12       	cpse	r13, r19
    555c:	05 c0       	rjmp	.+10     	; 0x5568 <_ZN3TFT4drawEiiiiPA100_Khajjjj+0x130>
            {
              exportLongData(color3);
    555e:	6d a1       	ldd	r22, Y+37	; 0x25
    5560:	7e a1       	ldd	r23, Y+38	; 0x26
    5562:	c2 01       	movw	r24, r4
    5564:	0e 94 5e 27 	call	0x4ebc	; 0x4ebc <_ZN3SPI14exportLongDataEj>
    5568:	01 50       	subi	r16, 0x01	; 1
    556a:	11 09       	sbc	r17, r1

        for (int l=0; l<4; l++)
        {
          temp = data >> 6;

          for (int m=0; m<2; m++)
    556c:	d9 f6       	brne	.-74     	; 0x5524 <_ZN3TFT4drawEiiiiPA100_Khajjjj+0xec>
              exportLongData(color3);
            }

          }

          data <<= 2;
    556e:	cc 0c       	add	r12, r12
    5570:	cc 0c       	add	r12, r12
    5572:	81 e0       	ldi	r24, 0x01	; 1
    5574:	68 1a       	sub	r6, r24
    5576:	71 08       	sbc	r7, r1
      for (int k=0; k<(width / 8); k++)
      {

        data = pgm_read_byte(&bitmap[tileSelection][i * (width / 8) + k]);

        for (int l=0; l<4; l++)
    5578:	61 f6       	brne	.-104    	; 0x5512 <_ZN3TFT4drawEiiiiPA100_Khajjjj+0xda>
    557a:	9f ef       	ldi	r25, 0xFF	; 255
    557c:	e9 1a       	sub	r14, r25
    557e:	f9 0a       	sbc	r15, r25

  for (int i=0; i<(height / 2); i++)
  {
    for (int j=0; j<2; j++)
    {
      for (int k=0; k<(width / 8); k++)
    5580:	8e 14       	cp	r8, r14
    5582:	9f 04       	cpc	r9, r15
    5584:	09 f0       	breq	.+2      	; 0x5588 <_ZN3TFT4drawEiiiiPA100_Khajjjj+0x150>
    5586:	bf cf       	rjmp	.-130    	; 0x5506 <_ZN3TFT4drawEiiiiPA100_Khajjjj+0xce>
    5588:	e1 e0       	ldi	r30, 0x01	; 1
    558a:	ae 1a       	sub	r10, r30
    558c:	b1 08       	sbc	r11, r1

  setAddress(xPos, yPos, (xPos + width - 1), (yPos + height - 1));

  for (int i=0; i<(height / 2); i++)
  {
    for (int j=0; j<2; j++)
    558e:	09 f0       	breq	.+2      	; 0x5592 <_ZN3TFT4drawEiiiiPA100_Khajjjj+0x15a>
    5590:	b2 cf       	rjmp	.-156    	; 0x54f6 <_ZN3TFT4drawEiiiiPA100_Khajjjj+0xbe>
    5592:	6b 80       	ldd	r6, Y+3	; 0x03
    5594:	7c 80       	ldd	r7, Y+4	; 0x04
  uint8_t data;
  uint8_t temp;

  setAddress(xPos, yPos, (xPos + width - 1), (yPos + height - 1));

  for (int i=0; i<(height / 2); i++)
    5596:	ff ef       	ldi	r31, 0xFF	; 255
    5598:	2f 1a       	sub	r2, r31
    559a:	3f 0a       	sbc	r3, r31
    559c:	2f 81       	ldd	r18, Y+7	; 0x07
    559e:	38 85       	ldd	r19, Y+8	; 0x08
    55a0:	62 0e       	add	r6, r18
    55a2:	73 1e       	adc	r7, r19
    55a4:	8b 85       	ldd	r24, Y+11	; 0x0b
    55a6:	9c 85       	ldd	r25, Y+12	; 0x0c
    55a8:	28 16       	cp	r2, r24
    55aa:	39 06       	cpc	r3, r25
    55ac:	09 f0       	breq	.+2      	; 0x55b0 <_ZN3TFT4drawEiiiiPA100_Khajjjj+0x178>
    55ae:	97 cf       	rjmp	.-210    	; 0x54de <_ZN3TFT4drawEiiiiPA100_Khajjjj+0xa6>

      }
    }
  }

}
    55b0:	2e 96       	adiw	r28, 0x0e	; 14
    55b2:	0f b6       	in	r0, 0x3f	; 63
    55b4:	f8 94       	cli
    55b6:	de bf       	out	0x3e, r29	; 62
    55b8:	0f be       	out	0x3f, r0	; 63
    55ba:	cd bf       	out	0x3d, r28	; 61
    55bc:	df 91       	pop	r29
    55be:	cf 91       	pop	r28
    55c0:	1f 91       	pop	r17
    55c2:	0f 91       	pop	r16
    55c4:	ff 90       	pop	r15
    55c6:	ef 90       	pop	r14
    55c8:	df 90       	pop	r13
    55ca:	cf 90       	pop	r12
    55cc:	bf 90       	pop	r11
    55ce:	af 90       	pop	r10
    55d0:	9f 90       	pop	r9
    55d2:	8f 90       	pop	r8
    55d4:	7f 90       	pop	r7
    55d6:	6f 90       	pop	r6
    55d8:	5f 90       	pop	r5
    55da:	4f 90       	pop	r4
    55dc:	3f 90       	pop	r3
    55de:	2f 90       	pop	r2
    55e0:	08 95       	ret

000055e2 <_ZN3TFT4drawEiiiiPA120_Khajjjj>:
            Draw 120bytes Bitmap
//----------------------------------------*/

void TFT::draw(int16_t xPos, int16_t yPos, int16_t width, int16_t height, const unsigned char (*bitmap)[120], int8_t tileSelection,
  uint16_t color0, uint16_t color1, uint16_t color2, uint16_t color3)
{
    55e2:	2f 92       	push	r2
    55e4:	3f 92       	push	r3
    55e6:	4f 92       	push	r4
    55e8:	5f 92       	push	r5
    55ea:	6f 92       	push	r6
    55ec:	7f 92       	push	r7
    55ee:	8f 92       	push	r8
    55f0:	9f 92       	push	r9
    55f2:	af 92       	push	r10
    55f4:	bf 92       	push	r11
    55f6:	cf 92       	push	r12
    55f8:	df 92       	push	r13
    55fa:	ef 92       	push	r14
    55fc:	ff 92       	push	r15
    55fe:	0f 93       	push	r16
    5600:	1f 93       	push	r17
    5602:	cf 93       	push	r28
    5604:	df 93       	push	r29
    5606:	cd b7       	in	r28, 0x3d	; 61
    5608:	de b7       	in	r29, 0x3e	; 62
    560a:	2e 97       	sbiw	r28, 0x0e	; 14
    560c:	0f b6       	in	r0, 0x3f	; 63
    560e:	f8 94       	cli
    5610:	de bf       	out	0x3e, r29	; 62
    5612:	0f be       	out	0x3f, r0	; 63
    5614:	cd bf       	out	0x3d, r28	; 61
    5616:	9e 87       	std	Y+14, r25	; 0x0e
    5618:	8d 87       	std	Y+13, r24	; 0x0d
    561a:	29 01       	movw	r4, r18
    561c:	38 01       	movw	r6, r16
    561e:	ba 82       	std	Y+2, r11	; 0x02
    5620:	a9 82       	std	Y+1, r10	; 0x01
    5622:	9a 86       	std	Y+10, r9	; 0x0a
    5624:	89 86       	std	Y+9, r8	; 0x09

  uint8_t data;
  uint8_t temp;

  setAddress(xPos, yPos, (xPos + width - 1), (yPos + height - 1));
    5626:	8a 01       	movw	r16, r20
    5628:	06 0d       	add	r16, r6
    562a:	17 1d       	adc	r17, r7
    562c:	01 50       	subi	r16, 0x01	; 1
    562e:	11 09       	sbc	r17, r1
    5630:	9b 01       	movw	r18, r22
    5632:	24 0d       	add	r18, r4
    5634:	35 1d       	adc	r19, r5
    5636:	21 50       	subi	r18, 0x01	; 1
    5638:	31 09       	sbc	r19, r1
    563a:	0e 94 ee 27 	call	0x4fdc	; 0x4fdc <_ZN3TFT10setAddressEiiii>

  for (int i=0; i<(height / 2); i++)
    563e:	c3 01       	movw	r24, r6
    5640:	99 23       	and	r25, r25
    5642:	0c f4       	brge	.+2      	; 0x5646 <_ZN3TFT4drawEiiiiPA120_Khajjjj+0x64>
    5644:	01 96       	adiw	r24, 0x01	; 1
    5646:	9c 01       	movw	r18, r24
    5648:	35 95       	asr	r19
    564a:	27 95       	ror	r18
    564c:	3c 87       	std	Y+12, r19	; 0x0c
    564e:	2b 87       	std	Y+11, r18	; 0x0b
    5650:	12 16       	cp	r1, r18
    5652:	13 06       	cpc	r1, r19
    5654:	0c f0       	brlt	.+2      	; 0x5658 <_ZN3TFT4drawEiiiiPA120_Khajjjj+0x76>
    5656:	81 c0       	rjmp	.+258    	; 0x575a <_ZN3TFT4drawEiiiiPA120_Khajjjj+0x178>
  {
    for (int j=0; j<2; j++)
    {
      for (int k=0; k<(width / 8); k++)
    5658:	c2 01       	movw	r24, r4
    565a:	99 23       	and	r25, r25
    565c:	0c f4       	brge	.+2      	; 0x5660 <_ZN3TFT4drawEiiiiPA120_Khajjjj+0x7e>
    565e:	07 96       	adiw	r24, 0x07	; 7
    5660:	fc 01       	movw	r30, r24
    5662:	f5 95       	asr	r31
    5664:	e7 95       	ror	r30
    5666:	f5 95       	asr	r31
    5668:	e7 95       	ror	r30
    566a:	f5 95       	asr	r31
    566c:	e7 95       	ror	r30
    566e:	fe 83       	std	Y+6, r31	; 0x06
    5670:	ed 83       	std	Y+5, r30	; 0x05
    5672:	f8 87       	std	Y+8, r31	; 0x08
    5674:	ef 83       	std	Y+7, r30	; 0x07
    5676:	37 01       	movw	r6, r14
    5678:	fc 2d       	mov	r31, r12
    567a:	28 e7       	ldi	r18, 0x78	; 120
    567c:	f2 02       	muls	r31, r18
    567e:	60 0c       	add	r6, r0
    5680:	71 1c       	adc	r7, r1
    5682:	11 24       	eor	r1, r1
      {

        data = pgm_read_byte(&bitmap[tileSelection][i * (width / 8) + k]);
    5684:	21 2c       	mov	r2, r1
    5686:	31 2c       	mov	r3, r1
    5688:	68 94       	set
    568a:	aa 24       	eor	r10, r10
    568c:	a1 f8       	bld	r10, 1
    568e:	b1 2c       	mov	r11, r1
    5690:	8f 80       	ldd	r8, Y+7	; 0x07
    5692:	98 84       	ldd	r9, Y+8	; 0x08
    5694:	86 0c       	add	r8, r6
    5696:	97 1c       	adc	r9, r7
    5698:	7c 82       	std	Y+4, r7	; 0x04
    569a:	6b 82       	std	Y+3, r6	; 0x03
    569c:	4d 84       	ldd	r4, Y+13	; 0x0d
    569e:	5e 84       	ldd	r5, Y+14	; 0x0e

  for (int i=0; i<(height / 2); i++)
  {
    for (int j=0; j<2; j++)
    {
      for (int k=0; k<(width / 8); k++)
    56a0:	8d 81       	ldd	r24, Y+5	; 0x05
    56a2:	9e 81       	ldd	r25, Y+6	; 0x06
    56a4:	18 16       	cp	r1, r24
    56a6:	19 06       	cpc	r1, r25
    56a8:	0c f0       	brlt	.+2      	; 0x56ac <_ZN3TFT4drawEiiiiPA120_Khajjjj+0xca>
    56aa:	43 c0       	rjmp	.+134    	; 0x5732 <_ZN3TFT4drawEiiiiPA120_Khajjjj+0x150>
    56ac:	eb 80       	ldd	r14, Y+3	; 0x03
    56ae:	fc 80       	ldd	r15, Y+4	; 0x04
      {

        data = pgm_read_byte(&bitmap[tileSelection][i * (width / 8) + k]);
    56b0:	f7 01       	movw	r30, r14
    56b2:	c4 90       	lpm	r12, Z
    56b4:	68 94       	set
    56b6:	66 24       	eor	r6, r6
    56b8:	62 f8       	bld	r6, 2
    56ba:	71 2c       	mov	r7, r1

        for (int l=0; l<4; l++)
        {
          temp = data >> 6;
    56bc:	dc 2c       	mov	r13, r12
    56be:	d6 94       	lsr	r13
    56c0:	d6 94       	lsr	r13
    56c2:	d6 94       	lsr	r13
    56c4:	d6 94       	lsr	r13
    56c6:	d6 94       	lsr	r13
    56c8:	d6 94       	lsr	r13
    56ca:	02 e0       	ldi	r16, 0x02	; 2
    56cc:	10 e0       	ldi	r17, 0x00	; 0

          for (int m=0; m<2; m++)
          {

            if (temp == 0x00)       //1Pixel = 00
    56ce:	d1 10       	cpse	r13, r1
    56d0:	06 c0       	rjmp	.+12     	; 0x56de <_ZN3TFT4drawEiiiiPA120_Khajjjj+0xfc>
            {
              exportLongData(color0);
    56d2:	69 81       	ldd	r22, Y+1	; 0x01
    56d4:	7a 81       	ldd	r23, Y+2	; 0x02
    56d6:	c2 01       	movw	r24, r4
    56d8:	0e 94 5e 27 	call	0x4ebc	; 0x4ebc <_ZN3SPI14exportLongDataEj>
    56dc:	1a c0       	rjmp	.+52     	; 0x5712 <_ZN3TFT4drawEiiiiPA120_Khajjjj+0x130>
            }

            else if (temp == 0x01)  //1Pixel = 01
    56de:	f1 e0       	ldi	r31, 0x01	; 1
    56e0:	df 12       	cpse	r13, r31
    56e2:	06 c0       	rjmp	.+12     	; 0x56f0 <_ZN3TFT4drawEiiiiPA120_Khajjjj+0x10e>
            {
              exportLongData(color1);
    56e4:	69 85       	ldd	r22, Y+9	; 0x09
    56e6:	7a 85       	ldd	r23, Y+10	; 0x0a
    56e8:	c2 01       	movw	r24, r4
    56ea:	0e 94 5e 27 	call	0x4ebc	; 0x4ebc <_ZN3SPI14exportLongDataEj>
    56ee:	11 c0       	rjmp	.+34     	; 0x5712 <_ZN3TFT4drawEiiiiPA120_Khajjjj+0x130>
            }

            else if (temp == 0x02)  //1Pixel = 10
    56f0:	22 e0       	ldi	r18, 0x02	; 2
    56f2:	d2 12       	cpse	r13, r18
    56f4:	06 c0       	rjmp	.+12     	; 0x5702 <_ZN3TFT4drawEiiiiPA120_Khajjjj+0x120>
            {
              exportLongData(color2);
    56f6:	6b a1       	ldd	r22, Y+35	; 0x23
    56f8:	7c a1       	ldd	r23, Y+36	; 0x24
    56fa:	c2 01       	movw	r24, r4
    56fc:	0e 94 5e 27 	call	0x4ebc	; 0x4ebc <_ZN3SPI14exportLongDataEj>
    5700:	08 c0       	rjmp	.+16     	; 0x5712 <_ZN3TFT4drawEiiiiPA120_Khajjjj+0x130>
            }

            else if (temp == 0x03)  //1Pixel = 11
    5702:	33 e0       	ldi	r19, 0x03	; 3
    5704:	d3 12       	cpse	r13, r19
    5706:	05 c0       	rjmp	.+10     	; 0x5712 <_ZN3TFT4drawEiiiiPA120_Khajjjj+0x130>
            {
              exportLongData(color3);
    5708:	6d a1       	ldd	r22, Y+37	; 0x25
    570a:	7e a1       	ldd	r23, Y+38	; 0x26
    570c:	c2 01       	movw	r24, r4
    570e:	0e 94 5e 27 	call	0x4ebc	; 0x4ebc <_ZN3SPI14exportLongDataEj>
    5712:	01 50       	subi	r16, 0x01	; 1
    5714:	11 09       	sbc	r17, r1

        for (int l=0; l<4; l++)
        {
          temp = data >> 6;

          for (int m=0; m<2; m++)
    5716:	d9 f6       	brne	.-74     	; 0x56ce <_ZN3TFT4drawEiiiiPA120_Khajjjj+0xec>
              exportLongData(color3);
            }

          }

          data <<= 2;
    5718:	cc 0c       	add	r12, r12
    571a:	cc 0c       	add	r12, r12
    571c:	81 e0       	ldi	r24, 0x01	; 1
    571e:	68 1a       	sub	r6, r24
    5720:	71 08       	sbc	r7, r1
      for (int k=0; k<(width / 8); k++)
      {

        data = pgm_read_byte(&bitmap[tileSelection][i * (width / 8) + k]);

        for (int l=0; l<4; l++)
    5722:	61 f6       	brne	.-104    	; 0x56bc <_ZN3TFT4drawEiiiiPA120_Khajjjj+0xda>
    5724:	9f ef       	ldi	r25, 0xFF	; 255
    5726:	e9 1a       	sub	r14, r25
    5728:	f9 0a       	sbc	r15, r25

  for (int i=0; i<(height / 2); i++)
  {
    for (int j=0; j<2; j++)
    {
      for (int k=0; k<(width / 8); k++)
    572a:	8e 14       	cp	r8, r14
    572c:	9f 04       	cpc	r9, r15
    572e:	09 f0       	breq	.+2      	; 0x5732 <_ZN3TFT4drawEiiiiPA120_Khajjjj+0x150>
    5730:	bf cf       	rjmp	.-130    	; 0x56b0 <_ZN3TFT4drawEiiiiPA120_Khajjjj+0xce>
    5732:	e1 e0       	ldi	r30, 0x01	; 1
    5734:	ae 1a       	sub	r10, r30
    5736:	b1 08       	sbc	r11, r1

  setAddress(xPos, yPos, (xPos + width - 1), (yPos + height - 1));

  for (int i=0; i<(height / 2); i++)
  {
    for (int j=0; j<2; j++)
    5738:	09 f0       	breq	.+2      	; 0x573c <_ZN3TFT4drawEiiiiPA120_Khajjjj+0x15a>
    573a:	b2 cf       	rjmp	.-156    	; 0x56a0 <_ZN3TFT4drawEiiiiPA120_Khajjjj+0xbe>
    573c:	6b 80       	ldd	r6, Y+3	; 0x03
    573e:	7c 80       	ldd	r7, Y+4	; 0x04
  uint8_t data;
  uint8_t temp;

  setAddress(xPos, yPos, (xPos + width - 1), (yPos + height - 1));

  for (int i=0; i<(height / 2); i++)
    5740:	ff ef       	ldi	r31, 0xFF	; 255
    5742:	2f 1a       	sub	r2, r31
    5744:	3f 0a       	sbc	r3, r31
    5746:	2f 81       	ldd	r18, Y+7	; 0x07
    5748:	38 85       	ldd	r19, Y+8	; 0x08
    574a:	62 0e       	add	r6, r18
    574c:	73 1e       	adc	r7, r19
    574e:	8b 85       	ldd	r24, Y+11	; 0x0b
    5750:	9c 85       	ldd	r25, Y+12	; 0x0c
    5752:	28 16       	cp	r2, r24
    5754:	39 06       	cpc	r3, r25
    5756:	09 f0       	breq	.+2      	; 0x575a <_ZN3TFT4drawEiiiiPA120_Khajjjj+0x178>
    5758:	97 cf       	rjmp	.-210    	; 0x5688 <_ZN3TFT4drawEiiiiPA120_Khajjjj+0xa6>

      }
    }
  }

    575a:	2e 96       	adiw	r28, 0x0e	; 14
    575c:	0f b6       	in	r0, 0x3f	; 63
    575e:	f8 94       	cli
    5760:	de bf       	out	0x3e, r29	; 62
    5762:	0f be       	out	0x3f, r0	; 63
    5764:	cd bf       	out	0x3d, r28	; 61
    5766:	df 91       	pop	r29
    5768:	cf 91       	pop	r28
    576a:	1f 91       	pop	r17
    576c:	0f 91       	pop	r16
    576e:	ff 90       	pop	r15
    5770:	ef 90       	pop	r14
    5772:	df 90       	pop	r13
    5774:	cf 90       	pop	r12
    5776:	bf 90       	pop	r11
    5778:	af 90       	pop	r10
    577a:	9f 90       	pop	r9
    577c:	8f 90       	pop	r8
    577e:	7f 90       	pop	r7
    5780:	6f 90       	pop	r6
    5782:	5f 90       	pop	r5
    5784:	4f 90       	pop	r4
    5786:	3f 90       	pop	r3
    5788:	2f 90       	pop	r2
    578a:	08 95       	ret

0000578c <__udivmodsi4>:
    578c:	a1 e2       	ldi	r26, 0x21	; 33
    578e:	1a 2e       	mov	r1, r26
    5790:	aa 1b       	sub	r26, r26
    5792:	bb 1b       	sub	r27, r27
    5794:	fd 01       	movw	r30, r26
    5796:	0d c0       	rjmp	.+26     	; 0x57b2 <__udivmodsi4_ep>

00005798 <__udivmodsi4_loop>:
    5798:	aa 1f       	adc	r26, r26
    579a:	bb 1f       	adc	r27, r27
    579c:	ee 1f       	adc	r30, r30
    579e:	ff 1f       	adc	r31, r31
    57a0:	a2 17       	cp	r26, r18
    57a2:	b3 07       	cpc	r27, r19
    57a4:	e4 07       	cpc	r30, r20
    57a6:	f5 07       	cpc	r31, r21
    57a8:	20 f0       	brcs	.+8      	; 0x57b2 <__udivmodsi4_ep>
    57aa:	a2 1b       	sub	r26, r18
    57ac:	b3 0b       	sbc	r27, r19
    57ae:	e4 0b       	sbc	r30, r20
    57b0:	f5 0b       	sbc	r31, r21

000057b2 <__udivmodsi4_ep>:
    57b2:	66 1f       	adc	r22, r22
    57b4:	77 1f       	adc	r23, r23
    57b6:	88 1f       	adc	r24, r24
    57b8:	99 1f       	adc	r25, r25
    57ba:	1a 94       	dec	r1
    57bc:	69 f7       	brne	.-38     	; 0x5798 <__udivmodsi4_loop>
    57be:	60 95       	com	r22
    57c0:	70 95       	com	r23
    57c2:	80 95       	com	r24
    57c4:	90 95       	com	r25
    57c6:	9b 01       	movw	r18, r22
    57c8:	ac 01       	movw	r20, r24
    57ca:	bd 01       	movw	r22, r26
    57cc:	cf 01       	movw	r24, r30
    57ce:	08 95       	ret

000057d0 <__muluhisi3>:
    57d0:	0e 94 f9 2b 	call	0x57f2	; 0x57f2 <__umulhisi3>
    57d4:	a5 9f       	mul	r26, r21
    57d6:	90 0d       	add	r25, r0
    57d8:	b4 9f       	mul	r27, r20
    57da:	90 0d       	add	r25, r0
    57dc:	a4 9f       	mul	r26, r20
    57de:	80 0d       	add	r24, r0
    57e0:	91 1d       	adc	r25, r1
    57e2:	11 24       	eor	r1, r1
    57e4:	08 95       	ret

000057e6 <__tablejump2__>:
    57e6:	ee 0f       	add	r30, r30
    57e8:	ff 1f       	adc	r31, r31
    57ea:	05 90       	lpm	r0, Z+
    57ec:	f4 91       	lpm	r31, Z
    57ee:	e0 2d       	mov	r30, r0
    57f0:	09 94       	ijmp

000057f2 <__umulhisi3>:
    57f2:	a2 9f       	mul	r26, r18
    57f4:	b0 01       	movw	r22, r0
    57f6:	b3 9f       	mul	r27, r19
    57f8:	c0 01       	movw	r24, r0
    57fa:	a3 9f       	mul	r26, r19
    57fc:	70 0d       	add	r23, r0
    57fe:	81 1d       	adc	r24, r1
    5800:	11 24       	eor	r1, r1
    5802:	91 1d       	adc	r25, r1
    5804:	b2 9f       	mul	r27, r18
    5806:	70 0d       	add	r23, r0
    5808:	81 1d       	adc	r24, r1
    580a:	11 24       	eor	r1, r1
    580c:	91 1d       	adc	r25, r1
    580e:	08 95       	ret

00005810 <eeprom_read_byte>:
    5810:	f9 99       	sbic	0x1f, 1	; 31
    5812:	fe cf       	rjmp	.-4      	; 0x5810 <eeprom_read_byte>
    5814:	92 bd       	out	0x22, r25	; 34
    5816:	81 bd       	out	0x21, r24	; 33
    5818:	f8 9a       	sbi	0x1f, 0	; 31
    581a:	99 27       	eor	r25, r25
    581c:	80 b5       	in	r24, 0x20	; 32
    581e:	08 95       	ret

00005820 <eeprom_read_word>:
    5820:	a8 e1       	ldi	r26, 0x18	; 24
    5822:	b0 e0       	ldi	r27, 0x00	; 0
    5824:	42 e0       	ldi	r20, 0x02	; 2
    5826:	50 e0       	ldi	r21, 0x00	; 0
    5828:	0c 94 30 2c 	jmp	0x5860	; 0x5860 <eeprom_read_blraw>

0000582c <eeprom_update_byte>:
    582c:	26 2f       	mov	r18, r22

0000582e <eeprom_update_r18>:
    582e:	f9 99       	sbic	0x1f, 1	; 31
    5830:	fe cf       	rjmp	.-4      	; 0x582e <eeprom_update_r18>
    5832:	92 bd       	out	0x22, r25	; 34
    5834:	81 bd       	out	0x21, r24	; 33
    5836:	f8 9a       	sbi	0x1f, 0	; 31
    5838:	01 97       	sbiw	r24, 0x01	; 1
    583a:	00 b4       	in	r0, 0x20	; 32
    583c:	02 16       	cp	r0, r18
    583e:	39 f0       	breq	.+14     	; 0x584e <eeprom_update_r18+0x20>
    5840:	1f ba       	out	0x1f, r1	; 31
    5842:	20 bd       	out	0x20, r18	; 32
    5844:	0f b6       	in	r0, 0x3f	; 63
    5846:	f8 94       	cli
    5848:	fa 9a       	sbi	0x1f, 2	; 31
    584a:	f9 9a       	sbi	0x1f, 1	; 31
    584c:	0f be       	out	0x3f, r0	; 63
    584e:	08 95       	ret

00005850 <eeprom_update_word>:
    5850:	01 96       	adiw	r24, 0x01	; 1
    5852:	27 2f       	mov	r18, r23
    5854:	0e 94 17 2c 	call	0x582e	; 0x582e <eeprom_update_r18>
    5858:	0c 94 16 2c 	jmp	0x582c	; 0x582c <eeprom_update_byte>

0000585c <eeprom_read_block>:
    585c:	dc 01       	movw	r26, r24
    585e:	cb 01       	movw	r24, r22

00005860 <eeprom_read_blraw>:
    5860:	fc 01       	movw	r30, r24
    5862:	f9 99       	sbic	0x1f, 1	; 31
    5864:	fe cf       	rjmp	.-4      	; 0x5862 <eeprom_read_blraw+0x2>
    5866:	06 c0       	rjmp	.+12     	; 0x5874 <eeprom_read_blraw+0x14>
    5868:	f2 bd       	out	0x22, r31	; 34
    586a:	e1 bd       	out	0x21, r30	; 33
    586c:	f8 9a       	sbi	0x1f, 0	; 31
    586e:	31 96       	adiw	r30, 0x01	; 1
    5870:	00 b4       	in	r0, 0x20	; 32
    5872:	0d 92       	st	X+, r0
    5874:	41 50       	subi	r20, 0x01	; 1
    5876:	50 40       	sbci	r21, 0x00	; 0
    5878:	b8 f7       	brcc	.-18     	; 0x5868 <eeprom_read_blraw+0x8>
    587a:	08 95       	ret

0000587c <_exit>:
    587c:	f8 94       	cli

0000587e <__stop_program>:
    587e:	ff cf       	rjmp	.-2      	; 0x587e <__stop_program>
