
ATmega328P.elf:     file format elf32-avr

Sections:
Idx Name          Size      VMA       LMA       File off  Algn
  0 .data         00000000  00800100  00800100  00001542  2**0
                  CONTENTS, ALLOC, LOAD, DATA
  1 .text         000014ce  00000000  00000000  00000074  2**1
                  CONTENTS, ALLOC, LOAD, READONLY, CODE
  2 .bss          00000006  00800100  00800100  00001542  2**0
                  ALLOC
  3 .comment      00000030  00000000  00000000  00001542  2**0
                  CONTENTS, READONLY
  4 .note.gnu.avr.deviceinfo 00000040  00000000  00000000  00001574  2**2
                  CONTENTS, READONLY
  5 .debug_aranges 00000108  00000000  00000000  000015b4  2**0
                  CONTENTS, READONLY, DEBUGGING
  6 .debug_info   0000247c  00000000  00000000  000016bc  2**0
                  CONTENTS, READONLY, DEBUGGING
  7 .debug_abbrev 00000c14  00000000  00000000  00003b38  2**0
                  CONTENTS, READONLY, DEBUGGING
  8 .debug_line   00000cde  00000000  00000000  0000474c  2**0
                  CONTENTS, READONLY, DEBUGGING
  9 .debug_frame  00000368  00000000  00000000  0000542c  2**2
                  CONTENTS, READONLY, DEBUGGING
 10 .debug_str    00000919  00000000  00000000  00005794  2**0
                  CONTENTS, READONLY, DEBUGGING
 11 .debug_loc    000017ff  00000000  00000000  000060ad  2**0
                  CONTENTS, READONLY, DEBUGGING
 12 .debug_ranges 000000d8  00000000  00000000  000078ac  2**0
                  CONTENTS, READONLY, DEBUGGING

Disassembly of section .text:

00000000 <__vectors>:
       0:	0c 94 75 06 	jmp	0xcea	; 0xcea <__ctors_end>
       4:	0c 94 92 06 	jmp	0xd24	; 0xd24 <__bad_interrupt>
       8:	0c 94 92 06 	jmp	0xd24	; 0xd24 <__bad_interrupt>
       c:	0c 94 92 06 	jmp	0xd24	; 0xd24 <__bad_interrupt>
      10:	0c 94 92 06 	jmp	0xd24	; 0xd24 <__bad_interrupt>
      14:	0c 94 92 06 	jmp	0xd24	; 0xd24 <__bad_interrupt>
      18:	0c 94 92 06 	jmp	0xd24	; 0xd24 <__bad_interrupt>
      1c:	0c 94 92 06 	jmp	0xd24	; 0xd24 <__bad_interrupt>
      20:	0c 94 92 06 	jmp	0xd24	; 0xd24 <__bad_interrupt>
      24:	0c 94 92 06 	jmp	0xd24	; 0xd24 <__bad_interrupt>
      28:	0c 94 92 06 	jmp	0xd24	; 0xd24 <__bad_interrupt>
      2c:	0c 94 92 06 	jmp	0xd24	; 0xd24 <__bad_interrupt>
      30:	0c 94 92 06 	jmp	0xd24	; 0xd24 <__bad_interrupt>
      34:	0c 94 92 06 	jmp	0xd24	; 0xd24 <__bad_interrupt>
      38:	0c 94 92 06 	jmp	0xd24	; 0xd24 <__bad_interrupt>
      3c:	0c 94 92 06 	jmp	0xd24	; 0xd24 <__bad_interrupt>
      40:	0c 94 92 06 	jmp	0xd24	; 0xd24 <__bad_interrupt>
      44:	0c 94 92 06 	jmp	0xd24	; 0xd24 <__bad_interrupt>
      48:	0c 94 92 06 	jmp	0xd24	; 0xd24 <__bad_interrupt>
      4c:	0c 94 92 06 	jmp	0xd24	; 0xd24 <__bad_interrupt>
      50:	0c 94 92 06 	jmp	0xd24	; 0xd24 <__bad_interrupt>
      54:	0c 94 92 06 	jmp	0xd24	; 0xd24 <__bad_interrupt>
      58:	0c 94 92 06 	jmp	0xd24	; 0xd24 <__bad_interrupt>
      5c:	0c 94 92 06 	jmp	0xd24	; 0xd24 <__bad_interrupt>
      60:	0c 94 92 06 	jmp	0xd24	; 0xd24 <__bad_interrupt>
      64:	0c 94 92 06 	jmp	0xd24	; 0xd24 <__bad_interrupt>

00000068 <__trampolines_end>:
      68:	ff ff       	.word	0xffff	; ????
      6a:	ff ff       	.word	0xffff	; ????
      6c:	ff ff       	.word	0xffff	; ????
      6e:	ff ff       	.word	0xffff	; ????
      70:	ff ff       	.word	0xffff	; ????
      72:	ff ff       	.word	0xffff	; ????
      74:	ff ff       	.word	0xffff	; ????
      76:	ff ff       	.word	0xffff	; ????
      78:	ff ff       	.word	0xffff	; ????
      7a:	ff ff       	.word	0xffff	; ????
      7c:	ff ff       	.word	0xffff	; ????
      7e:	ff ff       	.word	0xffff	; ????
      80:	ff ff       	.word	0xffff	; ????
      82:	ff ff       	.word	0xffff	; ????
      84:	ff ff       	.word	0xffff	; ????
      86:	ff ff       	.word	0xffff	; ????
      88:	ff ff       	.word	0xffff	; ????
      8a:	ff ff       	.word	0xffff	; ????
      8c:	ff ff       	.word	0xffff	; ????
      8e:	ff ff       	.word	0xffff	; ????
      90:	ff ff       	.word	0xffff	; ????
      92:	ff ff       	.word	0xffff	; ????
      94:	ff ff       	.word	0xffff	; ????
      96:	ff ff       	.word	0xffff	; ????
      98:	ff ff       	.word	0xffff	; ????
      9a:	ff ff       	.word	0xffff	; ????
      9c:	ff ff       	.word	0xffff	; ????
      9e:	ff ff       	.word	0xffff	; ????
      a0:	ff ff       	.word	0xffff	; ????
      a2:	ff ff       	.word	0xffff	; ????
      a4:	ff ff       	.word	0xffff	; ????
      a6:	ff ff       	.word	0xffff	; ????
      a8:	ff ff       	.word	0xffff	; ????
      aa:	ff ff       	.word	0xffff	; ????
      ac:	ff ff       	.word	0xffff	; ????
      ae:	ff ff       	.word	0xffff	; ????
      b0:	ff ff       	.word	0xffff	; ????
      b2:	ff ff       	.word	0xffff	; ????
      b4:	ff ff       	.word	0xffff	; ????
      b6:	ff ff       	.word	0xffff	; ????
      b8:	ff ff       	.word	0xffff	; ????
      ba:	ff ff       	.word	0xffff	; ????
      bc:	ff ff       	.word	0xffff	; ????
      be:	ff ff       	.word	0xffff	; ????
      c0:	ff ff       	.word	0xffff	; ????
      c2:	ff ff       	.word	0xffff	; ????
      c4:	ff ff       	.word	0xffff	; ????
      c6:	ff ff       	.word	0xffff	; ????
      c8:	ff ff       	.word	0xffff	; ????
      ca:	ff ff       	.word	0xffff	; ????
      cc:	ff ff       	.word	0xffff	; ????
      ce:	ff ff       	.word	0xffff	; ????
      d0:	ff ff       	.word	0xffff	; ????
      d2:	ff ff       	.word	0xffff	; ????
      d4:	ff ff       	.word	0xffff	; ????
      d6:	ff ff       	.word	0xffff	; ????
      d8:	ff ff       	.word	0xffff	; ????
      da:	ff ff       	.word	0xffff	; ????
      dc:	ff ff       	.word	0xffff	; ????
      de:	ff ff       	.word	0xffff	; ????
      e0:	ff ff       	.word	0xffff	; ????
      e2:	ff ff       	.word	0xffff	; ????
      e4:	ff ff       	.word	0xffff	; ????
      e6:	ff ff       	.word	0xffff	; ????
      e8:	ff ff       	.word	0xffff	; ????
      ea:	ff ff       	.word	0xffff	; ????
      ec:	ff ff       	.word	0xffff	; ????
      ee:	ff ff       	.word	0xffff	; ????
      f0:	ff ff       	.word	0xffff	; ????
      f2:	ff ff       	.word	0xffff	; ????
      f4:	ff ff       	.word	0xffff	; ????
      f6:	ff ff       	.word	0xffff	; ????
      f8:	ff ff       	.word	0xffff	; ????
      fa:	ff ff       	.word	0xffff	; ????
      fc:	ff ff       	.word	0xffff	; ????
      fe:	ff ff       	.word	0xffff	; ????
     100:	ff ff       	.word	0xffff	; ????
     102:	ff ff       	.word	0xffff	; ????
     104:	ff ff       	.word	0xffff	; ????
     106:	ff ff       	.word	0xffff	; ????
     108:	ff ff       	.word	0xffff	; ????
     10a:	ff ff       	.word	0xffff	; ????
     10c:	ff ff       	.word	0xffff	; ????
     10e:	ff ff       	.word	0xffff	; ????
     110:	ff ff       	.word	0xffff	; ????
     112:	ff ff       	.word	0xffff	; ????
     114:	ff ff       	.word	0xffff	; ????
     116:	ff ff       	.word	0xffff	; ????
     118:	ff ff       	.word	0xffff	; ????
     11a:	ff ff       	.word	0xffff	; ????
     11c:	ff ff       	.word	0xffff	; ????
     11e:	ff ff       	.word	0xffff	; ????
     120:	ff ff       	.word	0xffff	; ????
     122:	ff ff       	.word	0xffff	; ????
     124:	ff ff       	.word	0xffff	; ????
     126:	ff ff       	.word	0xffff	; ????
     128:	ff ff       	.word	0xffff	; ????
     12a:	ff ff       	.word	0xffff	; ????
     12c:	ff ff       	.word	0xffff	; ????
     12e:	ff ff       	.word	0xffff	; ????
     130:	ff ff       	.word	0xffff	; ????
     132:	ff ff       	.word	0xffff	; ????
     134:	ff ff       	.word	0xffff	; ????
     136:	ff ff       	.word	0xffff	; ????
     138:	ff ff       	.word	0xffff	; ????
     13a:	ff ff       	.word	0xffff	; ????
     13c:	ff ff       	.word	0xffff	; ????
     13e:	ff ff       	.word	0xffff	; ????
     140:	ff ff       	.word	0xffff	; ????
     142:	ff ff       	.word	0xffff	; ????
     144:	ff ff       	.word	0xffff	; ????
     146:	ff ff       	.word	0xffff	; ????
     148:	ff ff       	.word	0xffff	; ????
     14a:	ff ff       	.word	0xffff	; ????
     14c:	ff ff       	.word	0xffff	; ????
     14e:	ff ff       	.word	0xffff	; ????
     150:	ff ff       	.word	0xffff	; ????
     152:	ff ff       	.word	0xffff	; ????
     154:	ff ff       	.word	0xffff	; ????
     156:	ff ff       	.word	0xffff	; ????
     158:	ff ff       	.word	0xffff	; ????
     15a:	ff ff       	.word	0xffff	; ????
     15c:	ff ff       	.word	0xffff	; ????
     15e:	ff ff       	.word	0xffff	; ????
     160:	ff ff       	.word	0xffff	; ????
     162:	ff ff       	.word	0xffff	; ????
     164:	ff ff       	.word	0xffff	; ????
     166:	ff ff       	.word	0xffff	; ????
     168:	ff ff       	.word	0xffff	; ????
     16a:	ff ff       	.word	0xffff	; ????
     16c:	ff ff       	.word	0xffff	; ????
     16e:	ff ff       	.word	0xffff	; ????
     170:	ff ff       	.word	0xffff	; ????
     172:	ff ff       	.word	0xffff	; ????
     174:	ff ff       	.word	0xffff	; ????
     176:	ff ff       	.word	0xffff	; ????
     178:	ff ff       	.word	0xffff	; ????
     17a:	ff ff       	.word	0xffff	; ????
     17c:	ff ff       	.word	0xffff	; ????
     17e:	ff ff       	.word	0xffff	; ????
     180:	ff ff       	.word	0xffff	; ????
     182:	ff ff       	.word	0xffff	; ????
     184:	ff ff       	.word	0xffff	; ????
     186:	ff ff       	.word	0xffff	; ????
     188:	ff ff       	.word	0xffff	; ????
     18a:	ff ff       	.word	0xffff	; ????
     18c:	ff ff       	.word	0xffff	; ????
     18e:	ff ff       	.word	0xffff	; ????
     190:	ff ff       	.word	0xffff	; ????
     192:	ff ff       	.word	0xffff	; ????
     194:	ff ff       	.word	0xffff	; ????
     196:	ff ff       	.word	0xffff	; ????
     198:	ff ff       	.word	0xffff	; ????
     19a:	ff ff       	.word	0xffff	; ????
     19c:	ff ff       	.word	0xffff	; ????
     19e:	ff ff       	.word	0xffff	; ????
     1a0:	ff ff       	.word	0xffff	; ????
     1a2:	ff ff       	.word	0xffff	; ????
     1a4:	ff ff       	.word	0xffff	; ????
     1a6:	ff ff       	.word	0xffff	; ????
     1a8:	ff ff       	.word	0xffff	; ????
     1aa:	ff ff       	.word	0xffff	; ????
     1ac:	ff ff       	.word	0xffff	; ????
     1ae:	ff ff       	.word	0xffff	; ????
     1b0:	ff ff       	.word	0xffff	; ????
     1b2:	ff ff       	.word	0xffff	; ????
     1b4:	ff ff       	.word	0xffff	; ????
     1b6:	ff ff       	.word	0xffff	; ????
     1b8:	ff ff       	.word	0xffff	; ????
     1ba:	ff ff       	.word	0xffff	; ????
     1bc:	ff ff       	.word	0xffff	; ????
     1be:	ff ff       	.word	0xffff	; ????
     1c0:	ff ff       	.word	0xffff	; ????
     1c2:	ff ff       	.word	0xffff	; ????
     1c4:	ff ff       	.word	0xffff	; ????
     1c6:	ff ff       	.word	0xffff	; ????
     1c8:	ff ff       	.word	0xffff	; ????
     1ca:	ff ff       	.word	0xffff	; ????
     1cc:	ff ff       	.word	0xffff	; ????
     1ce:	ff ff       	.word	0xffff	; ????
     1d0:	ff ff       	.word	0xffff	; ????
     1d2:	ff ff       	.word	0xffff	; ????
     1d4:	ff ff       	.word	0xffff	; ????
     1d6:	ff ff       	.word	0xffff	; ????
     1d8:	ff ff       	.word	0xffff	; ????
     1da:	ff ff       	.word	0xffff	; ????
     1dc:	ff ff       	.word	0xffff	; ????
     1de:	ff ff       	.word	0xffff	; ????
     1e0:	ff ff       	.word	0xffff	; ????
     1e2:	ff ff       	.word	0xffff	; ????
     1e4:	ff ff       	.word	0xffff	; ????
     1e6:	ff ff       	.word	0xffff	; ????
     1e8:	ff ff       	.word	0xffff	; ????
     1ea:	ff ff       	.word	0xffff	; ????
     1ec:	ff ff       	.word	0xffff	; ????
     1ee:	ff ff       	.word	0xffff	; ????
     1f0:	ff ff       	.word	0xffff	; ????
     1f2:	ff ff       	.word	0xffff	; ????
     1f4:	ff ff       	.word	0xffff	; ????
     1f6:	ff ff       	.word	0xffff	; ????
     1f8:	ff ff       	.word	0xffff	; ????
     1fa:	ff ff       	.word	0xffff	; ????
     1fc:	ff ff       	.word	0xffff	; ????
     1fe:	ff ff       	.word	0xffff	; ????
     200:	ff ff       	.word	0xffff	; ????
     202:	ff ff       	.word	0xffff	; ????
     204:	ff ff       	.word	0xffff	; ????
     206:	ff ff       	.word	0xffff	; ????
     208:	ff ff       	.word	0xffff	; ????
     20a:	ff ff       	.word	0xffff	; ????
     20c:	ff ff       	.word	0xffff	; ????
     20e:	ff ff       	.word	0xffff	; ????
     210:	ff ff       	.word	0xffff	; ????
     212:	ff ff       	.word	0xffff	; ????
     214:	ff ff       	.word	0xffff	; ????
     216:	ff ff       	.word	0xffff	; ????
     218:	ff ff       	.word	0xffff	; ????
     21a:	ff ff       	.word	0xffff	; ????
     21c:	ff ff       	.word	0xffff	; ????
     21e:	ff ff       	.word	0xffff	; ????
     220:	ff ff       	.word	0xffff	; ????
     222:	ff ff       	.word	0xffff	; ????
     224:	ff ff       	.word	0xffff	; ????
     226:	ff ff       	.word	0xffff	; ????
     228:	ff ff       	.word	0xffff	; ????
     22a:	ff ff       	.word	0xffff	; ????
     22c:	ff ff       	.word	0xffff	; ????
     22e:	ff ff       	.word	0xffff	; ????
     230:	ff ff       	.word	0xffff	; ????
     232:	ff ff       	.word	0xffff	; ????
     234:	ff ff       	.word	0xffff	; ????
     236:	ff ff       	.word	0xffff	; ????
     238:	ff ff       	.word	0xffff	; ????
     23a:	ff ff       	.word	0xffff	; ????
     23c:	ff ff       	.word	0xffff	; ????
     23e:	ff ff       	.word	0xffff	; ????
     240:	ff ff       	.word	0xffff	; ????
     242:	ff ff       	.word	0xffff	; ????
     244:	ff ff       	.word	0xffff	; ????
     246:	ff ff       	.word	0xffff	; ????
     248:	ff ff       	.word	0xffff	; ????
     24a:	ff ff       	.word	0xffff	; ????
     24c:	ff ff       	.word	0xffff	; ????
     24e:	ff ff       	.word	0xffff	; ????
     250:	ff ff       	.word	0xffff	; ????
     252:	ff ff       	.word	0xffff	; ????
     254:	ff ff       	.word	0xffff	; ????
     256:	ff ff       	.word	0xffff	; ????
     258:	ff ff       	.word	0xffff	; ????
     25a:	ff ff       	.word	0xffff	; ????
     25c:	ff ff       	.word	0xffff	; ????
     25e:	ff ff       	.word	0xffff	; ????
     260:	ff ff       	.word	0xffff	; ????
     262:	ff ff       	.word	0xffff	; ????
     264:	ff ff       	.word	0xffff	; ????
     266:	ff ff       	.word	0xffff	; ????
     268:	ff ff       	.word	0xffff	; ????
     26a:	ff ff       	.word	0xffff	; ????
     26c:	ff ff       	.word	0xffff	; ????
     26e:	ff ff       	.word	0xffff	; ????
     270:	ff ff       	.word	0xffff	; ????
     272:	ff ff       	.word	0xffff	; ????
     274:	ff ff       	.word	0xffff	; ????
     276:	ff ff       	.word	0xffff	; ????
     278:	ff ff       	.word	0xffff	; ????
     27a:	ff ff       	.word	0xffff	; ????
     27c:	ff ff       	.word	0xffff	; ????
     27e:	ff ff       	.word	0xffff	; ????
     280:	ff ff       	.word	0xffff	; ????
     282:	ff ff       	.word	0xffff	; ????
     284:	ff ff       	.word	0xffff	; ????
     286:	ff ff       	.word	0xffff	; ????
     288:	ff ff       	.word	0xffff	; ????
     28a:	ff ff       	.word	0xffff	; ????
     28c:	ff ff       	.word	0xffff	; ????
     28e:	ff ff       	.word	0xffff	; ????
     290:	ff ff       	.word	0xffff	; ????
     292:	ff ff       	.word	0xffff	; ????
     294:	ff ff       	.word	0xffff	; ????
     296:	ff ff       	.word	0xffff	; ????
     298:	ff ff       	.word	0xffff	; ????
     29a:	ff ff       	.word	0xffff	; ????
     29c:	ff ff       	.word	0xffff	; ????
     29e:	ff ff       	.word	0xffff	; ????
     2a0:	ff ff       	.word	0xffff	; ????
     2a2:	ff ff       	.word	0xffff	; ????
     2a4:	ff ff       	.word	0xffff	; ????
     2a6:	ff ff       	.word	0xffff	; ????
     2a8:	ff ff       	.word	0xffff	; ????
     2aa:	ff ff       	.word	0xffff	; ????
     2ac:	ff ff       	.word	0xffff	; ????
     2ae:	ff ff       	.word	0xffff	; ????
     2b0:	ff ff       	.word	0xffff	; ????
     2b2:	ff ff       	.word	0xffff	; ????
     2b4:	ff ff       	.word	0xffff	; ????
     2b6:	ff ff       	.word	0xffff	; ????
     2b8:	ff ff       	.word	0xffff	; ????
     2ba:	ff ff       	.word	0xffff	; ????
     2bc:	ff ff       	.word	0xffff	; ????
     2be:	ff ff       	.word	0xffff	; ????
     2c0:	ff ff       	.word	0xffff	; ????
     2c2:	ff ff       	.word	0xffff	; ????
     2c4:	ff ff       	.word	0xffff	; ????
     2c6:	ff ff       	.word	0xffff	; ????
     2c8:	ff ff       	.word	0xffff	; ????
     2ca:	ff ff       	.word	0xffff	; ????
     2cc:	ff ff       	.word	0xffff	; ????
     2ce:	ff ff       	.word	0xffff	; ????
     2d0:	ff ff       	.word	0xffff	; ????
     2d2:	ff ff       	.word	0xffff	; ????
     2d4:	ff ff       	.word	0xffff	; ????
     2d6:	ff ff       	.word	0xffff	; ????
     2d8:	ff ff       	.word	0xffff	; ????
     2da:	ff ff       	.word	0xffff	; ????
     2dc:	ff ff       	.word	0xffff	; ????
     2de:	ff ff       	.word	0xffff	; ????
     2e0:	ff ff       	.word	0xffff	; ????
     2e2:	ff ff       	.word	0xffff	; ????
     2e4:	ff ff       	.word	0xffff	; ????
     2e6:	ff ff       	.word	0xffff	; ????
     2e8:	ff ff       	.word	0xffff	; ????
     2ea:	ff ff       	.word	0xffff	; ????
     2ec:	ff ff       	.word	0xffff	; ????
     2ee:	ff ff       	.word	0xffff	; ????
     2f0:	ff ff       	.word	0xffff	; ????
     2f2:	ff ff       	.word	0xffff	; ????
     2f4:	ff ff       	.word	0xffff	; ????
     2f6:	ff ff       	.word	0xffff	; ????
     2f8:	ff ff       	.word	0xffff	; ????
     2fa:	ff ff       	.word	0xffff	; ????
     2fc:	ff ff       	.word	0xffff	; ????
     2fe:	ff ff       	.word	0xffff	; ????
     300:	ff ff       	.word	0xffff	; ????
     302:	ff ff       	.word	0xffff	; ????
     304:	ff ff       	.word	0xffff	; ????
     306:	ff ff       	.word	0xffff	; ????
     308:	ff ff       	.word	0xffff	; ????
     30a:	ff ff       	.word	0xffff	; ????
     30c:	ff ff       	.word	0xffff	; ????
     30e:	ff ff       	.word	0xffff	; ????
     310:	ff ff       	.word	0xffff	; ????
     312:	ff ff       	.word	0xffff	; ????
     314:	ff 55       	subi	r31, 0x5F	; 95
     316:	7f d5       	rcall	.+2814   	; 0xe16 <main+0xee>
     318:	ff ff       	.word	0xffff	; ????
     31a:	ff ff       	.word	0xffff	; ????
     31c:	ff ff       	.word	0xffff	; ????
     31e:	ff ff       	.word	0xffff	; ????
     320:	ff ff       	.word	0xffff	; ????
     322:	ff ff       	.word	0xffff	; ????
     324:	ff 57       	subi	r31, 0x7F	; 127
     326:	fd ff       	.word	0xfffd	; ????
     328:	ff ff       	.word	0xffff	; ????
     32a:	ff ff       	.word	0xffff	; ????
     32c:	ff ff       	.word	0xffff	; ????
     32e:	ff ff       	.word	0xffff	; ????
     330:	ff ff       	.word	0xffff	; ????
     332:	ff ff       	.word	0xffff	; ????
     334:	ff ff       	.word	0xffff	; ????
     336:	ff ff       	.word	0xffff	; ????
     338:	ff ff       	.word	0xffff	; ????
     33a:	ff ff       	.word	0xffff	; ????
     33c:	ff 55       	subi	r31, 0x5F	; 95
     33e:	7f d5       	rcall	.+2814   	; 0xe3e <main+0x116>
     340:	ff ff       	.word	0xffff	; ????
     342:	ff ff       	.word	0xffff	; ????
     344:	ff ff       	.word	0xffff	; ????
     346:	ff ff       	.word	0xffff	; ????
     348:	ff ff       	.word	0xffff	; ????
     34a:	ff ff       	.word	0xffff	; ????
     34c:	ff 57       	subi	r31, 0x7F	; 127
     34e:	f7 ff       	sbrs	r31, 7
     350:	ff ff       	.word	0xffff	; ????
     352:	ff ff       	.word	0xffff	; ????
     354:	ff ff       	.word	0xffff	; ????
     356:	ff ff       	.word	0xffff	; ????
     358:	ff ff       	.word	0xffff	; ????
     35a:	ff ff       	.word	0xffff	; ????
     35c:	ff ff       	.word	0xffff	; ????
     35e:	ff ff       	.word	0xffff	; ????
     360:	ff ff       	.word	0xffff	; ????
     362:	ff ff       	.word	0xffff	; ????
     364:	fd 55       	subi	r31, 0x5D	; 93
     366:	7f d5       	rcall	.+2814   	; 0xe66 <main+0x13e>
     368:	ff ff       	.word	0xffff	; ????
     36a:	ff ff       	.word	0xffff	; ????
     36c:	ff ff       	.word	0xffff	; ????
     36e:	ff ff       	.word	0xffff	; ????
     370:	ff ff       	.word	0xffff	; ????
     372:	ff ff       	.word	0xffff	; ????
     374:	ff 57       	subi	r31, 0x7F	; 127
     376:	ff ff       	.word	0xffff	; ????
     378:	ff ff       	.word	0xffff	; ????
     37a:	ff ff       	.word	0xffff	; ????
     37c:	ff ff       	.word	0xffff	; ????
     37e:	ff ff       	.word	0xffff	; ????
     380:	ff ff       	.word	0xffff	; ????
     382:	ff ff       	.word	0xffff	; ????
     384:	ff ff       	.word	0xffff	; ????
     386:	ff ff       	.word	0xffff	; ????
     388:	ff ff       	.word	0xffff	; ????
     38a:	ff ff       	.word	0xffff	; ????
     38c:	f5 55       	subi	r31, 0x55	; 85
     38e:	7f d5       	rcall	.+2814   	; 0xe8e <main+0x166>
     390:	ff ff       	.word	0xffff	; ????
     392:	ff ff       	.word	0xffff	; ????
     394:	ff ff       	.word	0xffff	; ????
     396:	ff ff       	.word	0xffff	; ????
     398:	ff ff       	.word	0xffff	; ????
     39a:	ff ff       	.word	0xffff	; ????
     39c:	ff 57       	subi	r31, 0x7F	; 127
     39e:	ff ff       	.word	0xffff	; ????
     3a0:	ff ff       	.word	0xffff	; ????
     3a2:	ff ff       	.word	0xffff	; ????
     3a4:	ff ff       	.word	0xffff	; ????
     3a6:	ff ff       	.word	0xffff	; ????
     3a8:	ff ff       	.word	0xffff	; ????
     3aa:	ff ff       	.word	0xffff	; ????
     3ac:	ff ff       	.word	0xffff	; ????
     3ae:	ff ff       	.word	0xffff	; ????
     3b0:	ff ff       	.word	0xffff	; ????
     3b2:	ff ff       	.word	0xffff	; ????
     3b4:	d5 75       	andi	r29, 0x55	; 85
     3b6:	7f d5       	rcall	.+2814   	; 0xeb6 <main+0x18e>
     3b8:	ff ff       	.word	0xffff	; ????
     3ba:	ff ff       	.word	0xffff	; ????
     3bc:	ff ff       	.word	0xffff	; ????
     3be:	ff ff       	.word	0xffff	; ????
     3c0:	ff ff       	.word	0xffff	; ????
     3c2:	ff ff       	.word	0xffff	; ????
     3c4:	ff 57       	subi	r31, 0x7F	; 127
     3c6:	ff ff       	.word	0xffff	; ????
     3c8:	ff ff       	.word	0xffff	; ????
     3ca:	ff ff       	.word	0xffff	; ????
     3cc:	ff ff       	.word	0xffff	; ????
     3ce:	ff ff       	.word	0xffff	; ????
     3d0:	ff ff       	.word	0xffff	; ????
     3d2:	ff ff       	.word	0xffff	; ????
     3d4:	ff ff       	.word	0xffff	; ????
     3d6:	ff ff       	.word	0xffff	; ????
     3d8:	ff ff       	.word	0xffff	; ????
     3da:	ff ff       	.word	0xffff	; ????
     3dc:	55 f5       	brhc	.+84     	; 0x432 <__EEPROM_REGION_LENGTH__+0x32>
     3de:	7f d5       	rcall	.+2814   	; 0xede <_ZN3MCU7Setting9beginPortEab+0x6>
     3e0:	7f ff       	.word	0xff7f	; ????
     3e2:	ff d5       	rcall	.+3070   	; 0xfe2 <_ZN3TFT5beginEv+0x98>
     3e4:	ff ff       	.word	0xffff	; ????
     3e6:	57 ff       	sbrs	r21, 7
     3e8:	ff ff       	.word	0xffff	; ????
     3ea:	55 7f       	andi	r21, 0xF5	; 245
     3ec:	ff 57       	subi	r31, 0x7F	; 127
     3ee:	ff ff       	.word	0xffff	; ????
     3f0:	ff ff       	.word	0xffff	; ????
     3f2:	ff ff       	.word	0xffff	; ????
     3f4:	ff ff       	.word	0xffff	; ????
     3f6:	ff ff       	.word	0xffff	; ????
     3f8:	ff ff       	.word	0xffff	; ????
     3fa:	ff ff       	.word	0xffff	; ????
     3fc:	ff ff       	.word	0xffff	; ????
     3fe:	ff ff       	.word	0xffff	; ????
     400:	ff ff       	.word	0xffff	; ????
     402:	ff fd       	.word	0xfdff	; ????
     404:	57 f5       	brid	.+84     	; 0x45a <__EEPROM_REGION_LENGTH__+0x5a>
     406:	7d 55       	subi	r23, 0x5D	; 93
     408:	55 7f       	andi	r21, 0xF5	; 245
     40a:	fd 55       	subi	r31, 0x5D	; 93
     40c:	5f d5       	rcall	.+2750   	; 0xecc <_GLOBAL__sub_I_tft+0xa>
     40e:	55 7f       	andi	r21, 0xF5	; 245
     410:	ff d5       	rcall	.+3070   	; 0x1010 <_ZN3TFT11setRotationEa+0x1c>
     412:	55 57       	subi	r21, 0x75	; 117
     414:	ff 57       	subi	r31, 0x7F	; 127
     416:	ff ff       	.word	0xffff	; ????
     418:	ff ff       	.word	0xffff	; ????
     41a:	ff ff       	.word	0xffff	; ????
     41c:	ff ff       	.word	0xffff	; ????
     41e:	ff ff       	.word	0xffff	; ????
     420:	ff ff       	.word	0xffff	; ????
     422:	ff ff       	.word	0xffff	; ????
     424:	ff ff       	.word	0xffff	; ????
     426:	ff ff       	.word	0xffff	; ????
     428:	ff ff       	.word	0xffff	; ????
     42a:	ff fd       	.word	0xfdff	; ????
     42c:	5f f5       	brid	.+86     	; 0x484 <__EEPROM_REGION_LENGTH__+0x84>
     42e:	7d 55       	subi	r23, 0x5D	; 93
     430:	55 7f       	andi	r21, 0xF5	; 245
     432:	f5 55       	subi	r31, 0x55	; 85
     434:	55 55       	subi	r21, 0x55	; 85
     436:	55 5f       	subi	r21, 0xF5	; 245
     438:	ff 55       	subi	r31, 0x5F	; 95
     43a:	55 55       	subi	r21, 0x55	; 85
     43c:	ff 57       	subi	r31, 0x7F	; 127
     43e:	ff ff       	.word	0xffff	; ????
     440:	ff ff       	.word	0xffff	; ????
     442:	ff ff       	.word	0xffff	; ????
     444:	ff ff       	.word	0xffff	; ????
     446:	ff ff       	.word	0xffff	; ????
     448:	ff ff       	.word	0xffff	; ????
     44a:	ff ff       	.word	0xffff	; ????
     44c:	ff ff       	.word	0xffff	; ????
     44e:	ff ff       	.word	0xffff	; ????
     450:	ff ff       	.word	0xffff	; ????
     452:	ff f5       	brid	.+126    	; 0x4d2 <__EEPROM_REGION_LENGTH__+0xd2>
     454:	5f f5       	brid	.+86     	; 0x4ac <__EEPROM_REGION_LENGTH__+0xac>
     456:	7d 55       	subi	r23, 0x5D	; 93
     458:	55 7f       	andi	r21, 0xF5	; 245
     45a:	d5 55       	subi	r29, 0x55	; 85
     45c:	55 55       	subi	r21, 0x55	; 85
     45e:	55 57       	subi	r21, 0x75	; 117
     460:	fd 55       	subi	r31, 0x5D	; 93
     462:	7f 55       	subi	r23, 0x5F	; 95
     464:	7f 57       	subi	r23, 0x7F	; 127
     466:	ff ff       	.word	0xffff	; ????
     468:	ff ff       	.word	0xffff	; ????
     46a:	ff ff       	.word	0xffff	; ????
     46c:	ff ff       	.word	0xffff	; ????
     46e:	ff ff       	.word	0xffff	; ????
     470:	ff ff       	.word	0xffff	; ????
     472:	ff ff       	.word	0xffff	; ????
     474:	ff ff       	.word	0xffff	; ????
     476:	ff ff       	.word	0xffff	; ????
     478:	ff ff       	.word	0xffff	; ????
     47a:	ff d5       	rcall	.+3070   	; 0x107a <_ZN3TFT10setAddressEiiii+0xa>
     47c:	7f f5       	brid	.+94     	; 0x4dc <__EEPROM_REGION_LENGTH__+0xdc>
     47e:	7f d5       	rcall	.+2814   	; 0xf7e <_ZN3TFT5beginEv+0x34>
     480:	ff ff       	.word	0xffff	; ????
     482:	55 7f       	andi	r21, 0xF5	; 245
     484:	d5 57       	subi	r29, 0x75	; 117
     486:	fd 57       	subi	r31, 0x7D	; 125
     488:	fd 57       	subi	r31, 0x7D	; 125
     48a:	ff d5       	rcall	.+3070   	; 0x108a <_ZN3TFT10setAddressEiiii+0x1a>
     48c:	7f 57       	subi	r23, 0x7F	; 127
     48e:	ff ff       	.word	0xffff	; ????
     490:	ff ff       	.word	0xffff	; ????
     492:	ff ff       	.word	0xffff	; ????
     494:	ff ff       	.word	0xffff	; ????
     496:	ff ff       	.word	0xffff	; ????
     498:	ff ff       	.word	0xffff	; ????
     49a:	ff ff       	.word	0xffff	; ????
     49c:	ff ff       	.word	0xffff	; ????
     49e:	ff ff       	.word	0xffff	; ????
     4a0:	ff ff       	.word	0xffff	; ????
     4a2:	ff 55       	subi	r31, 0x5F	; 95
     4a4:	ff f5       	brid	.+126    	; 0x524 <__EEPROM_REGION_LENGTH__+0x124>
     4a6:	7f d5       	rcall	.+2814   	; 0xfa6 <_ZN3TFT5beginEv+0x5c>
     4a8:	ff ff       	.word	0xffff	; ????
     4aa:	55 ff       	sbrs	r21, 5
     4ac:	f5 5f       	subi	r31, 0xF5	; 245
     4ae:	ff 57       	subi	r31, 0x7F	; 127
     4b0:	f5 5f       	subi	r31, 0xF5	; 245
     4b2:	ff f5       	brid	.+126    	; 0x532 <__EEPROM_REGION_LENGTH__+0x132>
     4b4:	5f 57       	subi	r21, 0x7F	; 127
     4b6:	ff ff       	.word	0xffff	; ????
     4b8:	ff ff       	.word	0xffff	; ????
     4ba:	ff ff       	.word	0xffff	; ????
     4bc:	ff ff       	.word	0xffff	; ????
     4be:	ff ff       	.word	0xffff	; ????
     4c0:	ff ff       	.word	0xffff	; ????
     4c2:	ff ff       	.word	0xffff	; ????
     4c4:	ff ff       	.word	0xffff	; ????
     4c6:	ff ff       	.word	0xffff	; ????
     4c8:	ff ff       	.word	0xffff	; ????
     4ca:	fd 57       	subi	r31, 0x7D	; 125
     4cc:	ff f5       	brid	.+126    	; 0x54c <__EEPROM_REGION_LENGTH__+0x14c>
     4ce:	7f d5       	rcall	.+2814   	; 0xfce <_ZN3TFT5beginEv+0x84>
     4d0:	ff ff       	.word	0xffff	; ????
     4d2:	57 ff       	sbrs	r21, 7
     4d4:	f5 7f       	andi	r31, 0xF5	; 245
     4d6:	ff 55       	subi	r31, 0x5F	; 95
     4d8:	f5 5f       	subi	r31, 0xF5	; 245
     4da:	ff f5       	brid	.+126    	; 0x55a <__EEPROM_REGION_LENGTH__+0x15a>
     4dc:	5f 57       	subi	r21, 0x7F	; 127
     4de:	ff ff       	.word	0xffff	; ????
     4e0:	ff ff       	.word	0xffff	; ????
     4e2:	ff ff       	.word	0xffff	; ????
     4e4:	ff ff       	.word	0xffff	; ????
     4e6:	ff ff       	.word	0xffff	; ????
     4e8:	ff ff       	.word	0xffff	; ????
     4ea:	ff ff       	.word	0xffff	; ????
     4ec:	ff ff       	.word	0xffff	; ????
     4ee:	ff ff       	.word	0xffff	; ????
     4f0:	ff ff       	.word	0xffff	; ????
     4f2:	f5 55       	subi	r31, 0x55	; 85
     4f4:	57 f5       	brid	.+84     	; 0x54a <__EEPROM_REGION_LENGTH__+0x14a>
     4f6:	7f d5       	rcall	.+2814   	; 0xff6 <_ZN3TFT11setRotationEa+0x2>
     4f8:	ff ff       	.word	0xffff	; ????
     4fa:	57 ff       	sbrs	r21, 7
     4fc:	f5 7f       	andi	r31, 0xF5	; 245
     4fe:	ff 55       	subi	r31, 0x5F	; 95
     500:	f5 55       	subi	r31, 0x55	; 85
     502:	55 55       	subi	r21, 0x55	; 85
     504:	5f 57       	subi	r21, 0x7F	; 127
     506:	ff ff       	.word	0xffff	; ????
     508:	ff ff       	.word	0xffff	; ????
     50a:	ff ff       	.word	0xffff	; ????
     50c:	ff ff       	.word	0xffff	; ????
     50e:	ff ff       	.word	0xffff	; ????
     510:	ff ff       	.word	0xffff	; ????
     512:	ff ff       	.word	0xffff	; ????
     514:	ff ff       	.word	0xffff	; ????
     516:	ff ff       	.word	0xffff	; ????
     518:	ff ff       	.word	0xffff	; ????
     51a:	d5 55       	subi	r29, 0x55	; 85
     51c:	57 f5       	brid	.+84     	; 0x572 <__EEPROM_REGION_LENGTH__+0x172>
     51e:	7f d5       	rcall	.+2814   	; 0x101e <_ZN3TFT11setRotationEa+0x2a>
     520:	ff ff       	.word	0xffff	; ????
     522:	57 ff       	sbrs	r21, 7
     524:	f5 7f       	andi	r31, 0xF5	; 245
     526:	ff 55       	subi	r31, 0x5F	; 95
     528:	f5 55       	subi	r31, 0x55	; 85
     52a:	55 55       	subi	r21, 0x55	; 85
     52c:	5f 57       	subi	r21, 0x7F	; 127
     52e:	ff ff       	.word	0xffff	; ????
     530:	ff ff       	.word	0xffff	; ????
     532:	ff ff       	.word	0xffff	; ????
     534:	ff ff       	.word	0xffff	; ????
     536:	ff ff       	.word	0xffff	; ????
     538:	ff ff       	.word	0xffff	; ????
     53a:	ff ff       	.word	0xffff	; ????
     53c:	ff ff       	.word	0xffff	; ????
     53e:	ff ff       	.word	0xffff	; ????
     540:	ff ff       	.word	0xffff	; ????
     542:	d5 55       	subi	r29, 0x55	; 85
     544:	5f f5       	brid	.+86     	; 0x59c <__EEPROM_REGION_LENGTH__+0x19c>
     546:	7f d5       	rcall	.+2814   	; 0x1046 <_ZN3TFT11setRotationEa+0x52>
     548:	ff ff       	.word	0xffff	; ????
     54a:	57 ff       	sbrs	r21, 7
     54c:	f5 7f       	andi	r31, 0xF5	; 245
     54e:	ff 55       	subi	r31, 0x5F	; 95
     550:	f5 55       	subi	r31, 0x55	; 85
     552:	55 55       	subi	r21, 0x55	; 85
     554:	5f 57       	subi	r21, 0x7F	; 127
     556:	ff ff       	.word	0xffff	; ????
     558:	ff ff       	.word	0xffff	; ????
     55a:	ff ff       	.word	0xffff	; ????
     55c:	ff ff       	.word	0xffff	; ????
     55e:	ff ff       	.word	0xffff	; ????
     560:	ff ff       	.word	0xffff	; ????
     562:	ff ff       	.word	0xffff	; ????
     564:	ff ff       	.word	0xffff	; ????
     566:	ff ff       	.word	0xffff	; ????
     568:	ff ff       	.word	0xffff	; ????
     56a:	55 ff       	sbrs	r21, 5
     56c:	ff f5       	brid	.+126    	; 0x5ec <__EEPROM_REGION_LENGTH__+0x1ec>
     56e:	7f d5       	rcall	.+2814   	; 0x106e <_ZN3TFT11setRotationEa+0x7a>
     570:	ff ff       	.word	0xffff	; ????
     572:	57 ff       	sbrs	r21, 7
     574:	f5 7f       	andi	r31, 0xF5	; 245
     576:	ff 55       	subi	r31, 0x5F	; 95
     578:	f5 7f       	andi	r31, 0xF5	; 245
     57a:	ff ff       	.word	0xffff	; ????
     57c:	ff 55       	subi	r31, 0x5F	; 95
     57e:	ff ff       	.word	0xffff	; ????
     580:	ff ff       	.word	0xffff	; ????
     582:	ff ff       	.word	0xffff	; ????
     584:	ff ff       	.word	0xffff	; ????
     586:	ff ff       	.word	0xffff	; ????
     588:	ff ff       	.word	0xffff	; ????
     58a:	ff ff       	.word	0xffff	; ????
     58c:	ff ff       	.word	0xffff	; ????
     58e:	ff ff       	.word	0xffff	; ????
     590:	ff fd       	.word	0xfdff	; ????
     592:	57 ff       	sbrs	r21, 7
     594:	ff f5       	brid	.+126    	; 0x614 <__EEPROM_REGION_LENGTH__+0x214>
     596:	7f d5       	rcall	.+2814   	; 0x1096 <_ZN3TFT10setAddressEiiii+0x26>
     598:	7f ff       	.word	0xff7f	; ????
     59a:	57 ff       	sbrs	r21, 7
     59c:	f5 7f       	andi	r31, 0xF5	; 245
     59e:	ff 55       	subi	r31, 0x5F	; 95
     5a0:	f5 5f       	subi	r31, 0xF5	; 245
     5a2:	ff ff       	.word	0xffff	; ????
     5a4:	ff 55       	subi	r31, 0x5F	; 95
     5a6:	ff ff       	.word	0xffff	; ????
     5a8:	ff ff       	.word	0xffff	; ????
     5aa:	ff ff       	.word	0xffff	; ????
     5ac:	ff ff       	.word	0xffff	; ????
     5ae:	ff ff       	.word	0xffff	; ????
     5b0:	ff ff       	.word	0xffff	; ????
     5b2:	ff ff       	.word	0xffff	; ????
     5b4:	ff ff       	.word	0xffff	; ????
     5b6:	ff ff       	.word	0xffff	; ????
     5b8:	ff f5       	brid	.+126    	; 0x638 <__EEPROM_REGION_LENGTH__+0x238>
     5ba:	5f ff       	.word	0xff5f	; ????
     5bc:	ff f5       	brid	.+126    	; 0x63c <__EEPROM_REGION_LENGTH__+0x23c>
     5be:	7f f5       	brid	.+94     	; 0x61e <__EEPROM_REGION_LENGTH__+0x21e>
     5c0:	5f ff       	.word	0xff5f	; ????
     5c2:	57 ff       	sbrs	r21, 7
     5c4:	f5 7f       	andi	r31, 0xF5	; 245
     5c6:	ff 55       	subi	r31, 0x5F	; 95
     5c8:	fd 57       	subi	r31, 0x7D	; 125
     5ca:	ff f5       	brid	.+126    	; 0x64a <__EEPROM_REGION_LENGTH__+0x24a>
     5cc:	7f d5       	rcall	.+2814   	; 0x10cc <_ZN3TFT10setAddressEiiii+0x5c>
     5ce:	7f ff       	.word	0xff7f	; ????
     5d0:	ff ff       	.word	0xffff	; ????
     5d2:	ff ff       	.word	0xffff	; ????
     5d4:	ff ff       	.word	0xffff	; ????
     5d6:	ff ff       	.word	0xffff	; ????
     5d8:	ff ff       	.word	0xffff	; ????
     5da:	ff ff       	.word	0xffff	; ????
     5dc:	ff ff       	.word	0xffff	; ????
     5de:	ff ff       	.word	0xffff	; ????
     5e0:	ff d5       	rcall	.+3070   	; 0x11e0 <_ZN3TFT10drawBitmapEiiiiPKhjjjj+0x14>
     5e2:	7f ff       	.word	0xff7f	; ????
     5e4:	ff f5       	brid	.+126    	; 0x664 <__EEPROM_REGION_LENGTH__+0x264>
     5e6:	7f f5       	brid	.+94     	; 0x646 <__EEPROM_REGION_LENGTH__+0x246>
     5e8:	55 7f       	andi	r21, 0xF5	; 245
     5ea:	57 ff       	sbrs	r21, 7
     5ec:	f5 7f       	andi	r31, 0xF5	; 245
     5ee:	ff 55       	subi	r31, 0x5F	; 95
     5f0:	fd 55       	subi	r31, 0x5D	; 93
     5f2:	ff 55       	subi	r31, 0x5F	; 95
     5f4:	7f d5       	rcall	.+2814   	; 0x10f4 <_ZN3TFT10fillScreenEj+0x1c>
     5f6:	55 ff       	sbrs	r21, 5
     5f8:	ff ff       	.word	0xffff	; ????
     5fa:	ff ff       	.word	0xffff	; ????
     5fc:	ff ff       	.word	0xffff	; ????
     5fe:	ff ff       	.word	0xffff	; ????
     600:	ff ff       	.word	0xffff	; ????
     602:	ff ff       	.word	0xffff	; ????
     604:	ff ff       	.word	0xffff	; ????
     606:	ff ff       	.word	0xffff	; ????
     608:	ff 55       	subi	r31, 0x5F	; 95
     60a:	ff ff       	.word	0xffff	; ????
     60c:	ff f5       	brid	.+126    	; 0x68c <__EEPROM_REGION_LENGTH__+0x28c>
     60e:	7f fd       	.word	0xfd7f	; ????
     610:	55 7f       	andi	r21, 0xF5	; 245
     612:	57 ff       	sbrs	r21, 7
     614:	f5 7f       	andi	r31, 0xF5	; 245
     616:	ff 55       	subi	r31, 0x5F	; 95
     618:	ff 55       	subi	r31, 0x5F	; 95
     61a:	55 55       	subi	r21, 0x55	; 85
     61c:	ff f5       	brid	.+126    	; 0x69c <__EEPROM_REGION_LENGTH__+0x29c>
     61e:	55 ff       	sbrs	r21, 5
     620:	ff ff       	.word	0xffff	; ????
     622:	ff ff       	.word	0xffff	; ????
     624:	ff ff       	.word	0xffff	; ????
     626:	ff ff       	.word	0xffff	; ????
     628:	ff ff       	.word	0xffff	; ????
     62a:	ff ff       	.word	0xffff	; ????
     62c:	ff ff       	.word	0xffff	; ????
     62e:	ff ff       	.word	0xffff	; ????
     630:	fd 57       	subi	r31, 0x7D	; 125
     632:	ff ff       	.word	0xffff	; ????
     634:	ff f5       	brid	.+126    	; 0x6b4 <__EEPROM_REGION_LENGTH__+0x2b4>
     636:	7f ff       	.word	0xff7f	; ????
     638:	55 7f       	andi	r21, 0xF5	; 245
     63a:	57 ff       	sbrs	r21, 7
     63c:	f5 7f       	andi	r31, 0xF5	; 245
     63e:	ff 55       	subi	r31, 0x5F	; 95
     640:	ff d5       	rcall	.+3070   	; 0x1240 <_ZN3TFT10drawBitmapEiiiiPKhjjjj+0x74>
     642:	55 57       	subi	r21, 0x75	; 117
     644:	ff fd       	.word	0xfdff	; ????
     646:	55 ff       	sbrs	r21, 5
     648:	ff ff       	.word	0xffff	; ????
     64a:	ff ff       	.word	0xffff	; ????
     64c:	ff ff       	.word	0xffff	; ????
     64e:	ff ff       	.word	0xffff	; ????
     650:	ff ff       	.word	0xffff	; ????
     652:	ff ff       	.word	0xffff	; ????
     654:	ff ff       	.word	0xffff	; ????
     656:	ff ff       	.word	0xffff	; ????
     658:	fd 5f       	subi	r31, 0xFD	; 253
     65a:	ff ff       	.word	0xffff	; ????
     65c:	ff ff       	.word	0xffff	; ????
     65e:	ff ff       	.word	0xffff	; ????
     660:	ff ff       	.word	0xffff	; ????
     662:	ff ff       	.word	0xffff	; ????
     664:	ff ff       	.word	0xffff	; ????
     666:	ff ff       	.word	0xffff	; ????
     668:	ff ff       	.word	0xffff	; ????
     66a:	55 7f       	andi	r21, 0xF5	; 245
     66c:	ff ff       	.word	0xffff	; ????
     66e:	ff ff       	.word	0xffff	; ????
     670:	ff ff       	.word	0xffff	; ????
     672:	ff ff       	.word	0xffff	; ????
     674:	ff ff       	.word	0xffff	; ????
     676:	ff ff       	.word	0xffff	; ????
     678:	ff ff       	.word	0xffff	; ????
     67a:	ff ff       	.word	0xffff	; ????
     67c:	ff ff       	.word	0xffff	; ????
     67e:	ff ff       	.word	0xffff	; ????
     680:	ff ff       	.word	0xffff	; ????
     682:	ff ff       	.word	0xffff	; ????
     684:	ff ff       	.word	0xffff	; ????
     686:	ff ff       	.word	0xffff	; ????
     688:	ff fa       	.word	0xfaff	; ????
     68a:	aa aa       	std	Y+50, r10	; 0x32
     68c:	ff ff       	.word	0xffff	; ????
     68e:	ff ff       	.word	0xffff	; ????
     690:	ff ff       	.word	0xffff	; ????
     692:	ff ff       	.word	0xffff	; ????
     694:	ff ff       	.word	0xffff	; ????
     696:	ff ff       	.word	0xffff	; ????
     698:	ff ff       	.word	0xffff	; ????
     69a:	ff ff       	.word	0xffff	; ????
     69c:	ff ff       	.word	0xffff	; ????
     69e:	ff ff       	.word	0xffff	; ????
     6a0:	ff ff       	.word	0xffff	; ????
     6a2:	ff ff       	.word	0xffff	; ????
     6a4:	ff ff       	.word	0xffff	; ????
     6a6:	ff ff       	.word	0xffff	; ????
     6a8:	ff ff       	.word	0xffff	; ????
     6aa:	ff ff       	.word	0xffff	; ????
     6ac:	ff ff       	.word	0xffff	; ????
     6ae:	ff ff       	.word	0xffff	; ????
     6b0:	ff aa       	std	Y+55, r15	; 0x37
     6b2:	aa aa       	std	Y+50, r10	; 0x32
     6b4:	be bf       	out	0x3e, r27	; 62
     6b6:	ff ff       	.word	0xffff	; ????
     6b8:	ff ff       	.word	0xffff	; ????
     6ba:	ff ff       	.word	0xffff	; ????
     6bc:	ff ff       	.word	0xffff	; ????
     6be:	ff ff       	.word	0xffff	; ????
     6c0:	ff ff       	.word	0xffff	; ????
     6c2:	ff ff       	.word	0xffff	; ????
     6c4:	ff ff       	.word	0xffff	; ????
     6c6:	ff ff       	.word	0xffff	; ????
     6c8:	ff ff       	.word	0xffff	; ????
     6ca:	ff ff       	.word	0xffff	; ????
     6cc:	ff ff       	.word	0xffff	; ????
     6ce:	ff ff       	.word	0xffff	; ????
     6d0:	ff ff       	.word	0xffff	; ????
     6d2:	ff ff       	.word	0xffff	; ????
     6d4:	ff ff       	.word	0xffff	; ????
     6d6:	ff ff       	.word	0xffff	; ????
     6d8:	fe aa       	std	Y+54, r15	; 0x36
     6da:	aa aa       	std	Y+50, r10	; 0x32
     6dc:	af ff       	.word	0xffaf	; ????
     6de:	ff ff       	.word	0xffff	; ????
     6e0:	ff ff       	.word	0xffff	; ????
     6e2:	ff ff       	.word	0xffff	; ????
     6e4:	ff ff       	.word	0xffff	; ????
     6e6:	ff ff       	.word	0xffff	; ????
     6e8:	ff ff       	.word	0xffff	; ????
     6ea:	ff ff       	.word	0xffff	; ????
     6ec:	ff ff       	.word	0xffff	; ????
     6ee:	ff ff       	.word	0xffff	; ????
     6f0:	ff ff       	.word	0xffff	; ????
     6f2:	ff ff       	.word	0xffff	; ????
     6f4:	ff ff       	.word	0xffff	; ????
     6f6:	ff ff       	.word	0xffff	; ????
     6f8:	ff ff       	.word	0xffff	; ????
     6fa:	ff ff       	.word	0xffff	; ????
     6fc:	ff ff       	.word	0xffff	; ????
     6fe:	ff ff       	.word	0xffff	; ????
     700:	fa aa       	std	Y+50, r15	; 0x32
     702:	aa aa       	std	Y+50, r10	; 0x32
     704:	ab ff       	.word	0xffab	; ????
     706:	ff ff       	.word	0xffff	; ????
     708:	ff ff       	.word	0xffff	; ????
     70a:	ff ff       	.word	0xffff	; ????
     70c:	ff ff       	.word	0xffff	; ????
     70e:	ff ff       	.word	0xffff	; ????
     710:	ff ff       	.word	0xffff	; ????
     712:	ff ff       	.word	0xffff	; ????
     714:	ff ff       	.word	0xffff	; ????
     716:	ff ff       	.word	0xffff	; ????
     718:	ff ff       	.word	0xffff	; ????
     71a:	ff ff       	.word	0xffff	; ????
     71c:	ff ff       	.word	0xffff	; ????
     71e:	ff ff       	.word	0xffff	; ????
     720:	ff ff       	.word	0xffff	; ????
     722:	ff ff       	.word	0xffff	; ????
     724:	ff ff       	.word	0xffff	; ????
     726:	ff ff       	.word	0xffff	; ????
     728:	ea aa       	std	Y+50, r14	; 0x32
     72a:	aa aa       	std	Y+50, r10	; 0x32
     72c:	ab ff       	.word	0xffab	; ????
     72e:	ff fc       	.word	0xfcff	; ????
     730:	3f ff       	.word	0xff3f	; ????
     732:	c3 ff       	sbrs	r28, 3
     734:	ff ff       	.word	0xffff	; ????
     736:	ff ff       	.word	0xffff	; ????
     738:	ff ff       	.word	0xffff	; ????
     73a:	ff ff       	.word	0xffff	; ????
     73c:	ff ff       	.word	0xffff	; ????
     73e:	ff ff       	.word	0xffff	; ????
     740:	ff ff       	.word	0xffff	; ????
     742:	ff ff       	.word	0xffff	; ????
     744:	ff ff       	.word	0xffff	; ????
     746:	ff ff       	.word	0xffff	; ????
     748:	ff ff       	.word	0xffff	; ????
     74a:	ff ff       	.word	0xffff	; ????
     74c:	ff ff       	.word	0xffff	; ????
     74e:	ff ff       	.word	0xffff	; ????
     750:	aa af       	std	Y+58, r26	; 0x3a
     752:	aa ab       	std	Y+50, r26	; 0x32
     754:	ea ff       	.word	0xffea	; ????
     756:	ff f0       	brie	.+62     	; 0x796 <__EEPROM_REGION_LENGTH__+0x396>
     758:	0f ff       	.word	0xff0f	; ????
     75a:	00 ff       	sbrs	r16, 0
     75c:	ff ff       	.word	0xffff	; ????
     75e:	ff ff       	.word	0xffff	; ????
     760:	ff ff       	.word	0xffff	; ????
     762:	ff ff       	.word	0xffff	; ????
     764:	ff ff       	.word	0xffff	; ????
     766:	ff ff       	.word	0xffff	; ????
     768:	ff ff       	.word	0xffff	; ????
     76a:	ff ff       	.word	0xffff	; ????
     76c:	ff ff       	.word	0xffff	; ????
     76e:	ff ff       	.word	0xffff	; ????
     770:	ff ff       	.word	0xffff	; ????
     772:	ff ff       	.word	0xffff	; ????
     774:	ff ff       	.word	0xffff	; ????
     776:	ff fe       	.word	0xfeff	; ????
     778:	aa bf       	out	0x3a, r26	; 58
     77a:	ea af       	std	Y+58, r30	; 0x3a
     77c:	fa ff       	.word	0xfffa	; ????
     77e:	ff f0       	brie	.+62     	; 0x7be <__EEPROM_REGION_LENGTH__+0x3be>
     780:	0f ff       	.word	0xff0f	; ????
     782:	00 ff       	sbrs	r16, 0
     784:	ff ff       	.word	0xffff	; ????
     786:	ff ff       	.word	0xffff	; ????
     788:	ff ff       	.word	0xffff	; ????
     78a:	ff ff       	.word	0xffff	; ????
     78c:	ff ff       	.word	0xffff	; ????
     78e:	ff ff       	.word	0xffff	; ????
     790:	ff ff       	.word	0xffff	; ????
     792:	ff ff       	.word	0xffff	; ????
     794:	ff ff       	.word	0xffff	; ????
     796:	ff ff       	.word	0xffff	; ????
     798:	ff ff       	.word	0xffff	; ????
     79a:	ff ff       	.word	0xffff	; ????
     79c:	ff ff       	.word	0xffff	; ????
     79e:	ff fe       	.word	0xfeff	; ????
     7a0:	aa ff       	.word	0xffaa	; ????
     7a2:	ea bf       	out	0x3a, r30	; 58
     7a4:	fa bf       	out	0x3a, r31	; 58
     7a6:	ff f0       	brie	.+62     	; 0x7e6 <__EEPROM_REGION_LENGTH__+0x3e6>
     7a8:	0f ff       	.word	0xff0f	; ????
     7aa:	00 ff       	sbrs	r16, 0
     7ac:	ff ff       	.word	0xffff	; ????
     7ae:	ff ff       	.word	0xffff	; ????
     7b0:	ff ff       	.word	0xffff	; ????
     7b2:	ff ff       	.word	0xffff	; ????
     7b4:	ff ff       	.word	0xffff	; ????
     7b6:	ff ff       	.word	0xffff	; ????
     7b8:	ff ff       	.word	0xffff	; ????
     7ba:	ff ff       	.word	0xffff	; ????
     7bc:	ff ff       	.word	0xffff	; ????
     7be:	ff ff       	.word	0xffff	; ????
     7c0:	ff ff       	.word	0xffff	; ????
     7c2:	ff ff       	.word	0xffff	; ????
     7c4:	ff ff       	.word	0xffff	; ????
     7c6:	ff fa       	.word	0xfaff	; ????
     7c8:	ab ff       	.word	0xffab	; ????
     7ca:	fa bf       	out	0x3a, r31	; 58
     7cc:	fe af       	std	Y+62, r31	; 0x3e
     7ce:	ff f0       	brie	.+62     	; 0x80e <__DATA_REGION_LENGTH__+0xe>
     7d0:	03 fc       	sbrc	r0, 3
     7d2:	00 fc       	sbrc	r0, 0
     7d4:	3f 00       	.word	0x003f	; ????
     7d6:	00 fc       	sbrc	r0, 0
     7d8:	00 03       	mulsu	r16, r16
     7da:	fc 00       	.word	0x00fc	; ????
     7dc:	03 fc       	sbrc	r0, 3
     7de:	00 00       	nop
     7e0:	f0 ff       	sbrs	r31, 0
     7e2:	c3 c3       	rjmp	.+1926   	; 0xf6a <_ZN3TFT5beginEv+0x20>
     7e4:	f0 00       	.word	0x00f0	; ????
     7e6:	0f ff       	.word	0xff0f	; ????
     7e8:	ff ff       	.word	0xffff	; ????
     7ea:	ff ff       	.word	0xffff	; ????
     7ec:	ff ff       	.word	0xffff	; ????
     7ee:	ff fa       	.word	0xfaff	; ????
     7f0:	aa ff       	.word	0xffaa	; ????
     7f2:	fa bf       	out	0x3a, r31	; 58
     7f4:	ff af       	std	Y+63, r31	; 0x3f
     7f6:	ff c0       	rjmp	.+510    	; 0x9f6 <__stack+0xf7>
     7f8:	03 fc       	sbrc	r0, 3
     7fa:	00 fc       	sbrc	r0, 0
     7fc:	3c 00       	.word	0x003c	; ????
     7fe:	00 3c       	cpi	r16, 0xC0	; 192
     800:	00 00       	nop
     802:	fc 00       	.word	0x00fc	; ????
     804:	03 f0       	brvs	.+0      	; 0x806 <__DATA_REGION_LENGTH__+0x6>
     806:	00 00       	nop
     808:	f0 ff       	sbrs	r31, 0
     80a:	c3 c3       	rjmp	.+1926   	; 0xf92 <_ZN3TFT5beginEv+0x48>
     80c:	c0 00       	.word	0x00c0	; ????
     80e:	03 ff       	sbrs	r16, 3
     810:	ff ff       	.word	0xffff	; ????
     812:	ff ff       	.word	0xffff	; ????
     814:	ff ff       	.word	0xffff	; ????
     816:	ff fa       	.word	0xfaff	; ????
     818:	aa ff       	.word	0xffaa	; ????
     81a:	fe af       	std	Y+62, r31	; 0x3e
     81c:	ff ab       	std	Y+55, r31	; 0x37
     81e:	ff c0       	rjmp	.+510    	; 0xa1e <__stack+0x11f>
     820:	00 f0       	brcs	.+0      	; 0x822 <__DATA_REGION_LENGTH__+0x22>
     822:	00 fc       	sbrc	r0, 0
     824:	3c 00       	.word	0x003c	; ????
     826:	00 3c       	cpi	r16, 0xC0	; 192
     828:	00 00       	nop
     82a:	f0 00       	.word	0x00f0	; ????
     82c:	00 f0       	brcs	.+0      	; 0x82e <__DATA_REGION_LENGTH__+0x2e>
     82e:	00 00       	nop
     830:	f0 ff       	sbrs	r31, 0
     832:	c3 c3       	rjmp	.+1926   	; 0xfba <_ZN3TFT5beginEv+0x70>
     834:	c0 00       	.word	0x00c0	; ????
     836:	03 ff       	sbrs	r16, 3
     838:	ff ff       	.word	0xffff	; ????
     83a:	ff ff       	.word	0xffff	; ????
     83c:	ff ff       	.word	0xffff	; ????
     83e:	ff fa       	.word	0xfaff	; ????
     840:	be bf       	out	0x3e, r27	; 62
     842:	ff af       	std	Y+63, r31	; 0x3f
     844:	ff ea       	ldi	r31, 0xAF	; 175
     846:	ff c0       	rjmp	.+510    	; 0xa46 <__stack+0x147>
     848:	c0 f0       	brcs	.+48     	; 0x87a <__DATA_REGION_LENGTH__+0x7a>
     84a:	30 3c       	cpi	r19, 0xC0	; 192
     84c:	3c 0f       	add	r19, r28
     84e:	ff fc       	.word	0xfcff	; ????
     850:	3f f0       	brie	.+14     	; 0x860 <__DATA_REGION_LENGTH__+0x60>
     852:	f0 3f       	cpi	r31, 0xF0	; 240
     854:	c0 f0       	brcs	.+48     	; 0x886 <__DATA_REGION_LENGTH__+0x86>
     856:	3f ff       	.word	0xff3f	; ????
     858:	f0 ff       	sbrs	r31, 0
     85a:	c3 c3       	rjmp	.+1926   	; 0xfe2 <_ZN3TFT5beginEv+0x98>
     85c:	c0 ff       	sbrs	r28, 0
     85e:	c3 ff       	sbrs	r28, 3
     860:	ff ff       	.word	0xffff	; ????
     862:	ff ff       	.word	0xffff	; ????
     864:	ff ff       	.word	0xffff	; ????
     866:	ff fa       	.word	0xfaff	; ????
     868:	be af       	std	Y+62, r27	; 0x3e
     86a:	ff ab       	std	Y+55, r31	; 0x37
     86c:	ff fa       	.word	0xfaff	; ????
     86e:	ff c0       	rjmp	.+510    	; 0xa6e <__stack+0x16f>
     870:	c0 f0       	brcs	.+48     	; 0x8a2 <__DATA_REGION_LENGTH__+0xa2>
     872:	30 3c       	cpi	r19, 0xC0	; 192
     874:	3c 3f       	cpi	r19, 0xFC	; 252
     876:	ff fc       	.word	0xfcff	; ????
     878:	3f f0       	brie	.+14     	; 0x888 <__DATA_REGION_LENGTH__+0x88>
     87a:	f0 ff       	sbrs	r31, 0
     87c:	f0 f0       	brcs	.+60     	; 0x8ba <__DATA_REGION_LENGTH__+0xba>
     87e:	ff ff       	.word	0xffff	; ????
     880:	f0 00       	.word	0x00f0	; ????
     882:	03 c3       	rjmp	.+1542   	; 0xe8a <main+0x162>
     884:	c0 ff       	sbrs	r28, 0
     886:	c3 ff       	sbrs	r28, 3
     888:	ff ff       	.word	0xffff	; ????
     88a:	ff ff       	.word	0xffff	; ????
     88c:	ff ff       	.word	0xffff	; ????
     88e:	ff fa       	.word	0xfaff	; ????
     890:	ff af       	std	Y+63, r31	; 0x3f
     892:	ff eb       	ldi	r31, 0xBF	; 191
     894:	ff fa       	.word	0xfaff	; ????
     896:	bf c0       	rjmp	.+382    	; 0xa16 <__stack+0x117>
     898:	f0 00       	.word	0x00f0	; ????
     89a:	f0 3c       	cpi	r31, 0xC0	; 192
     89c:	3c 3f       	cpi	r19, 0xFC	; 252
     89e:	ff fc       	.word	0xfcff	; ????
     8a0:	3f f0       	brie	.+14     	; 0x8b0 <__DATA_REGION_LENGTH__+0xb0>
     8a2:	f0 ff       	sbrs	r31, 0
     8a4:	f0 f0       	brcs	.+60     	; 0x8e2 <__DATA_REGION_LENGTH__+0xe2>
     8a6:	ff ff       	.word	0xffff	; ????
     8a8:	f0 00       	.word	0x00f0	; ????
     8aa:	03 c3       	rjmp	.+1542   	; 0xeb2 <main+0x18a>
     8ac:	c0 ff       	sbrs	r28, 0
     8ae:	c3 ff       	sbrs	r28, 3
     8b0:	ff ff       	.word	0xffff	; ????
     8b2:	ff ff       	.word	0xffff	; ????
     8b4:	ff ff       	.word	0xffff	; ????
     8b6:	ff fb       	.word	0xfbff	; ????
     8b8:	ff eb       	ldi	r31, 0xBF	; 191
     8ba:	ff fa       	.word	0xfaff	; ????
     8bc:	ff fe       	.word	0xfeff	; ????
     8be:	bf c0       	rjmp	.+382    	; 0xa3e <__stack+0x13f>
     8c0:	f0 00       	.word	0x00f0	; ????
     8c2:	f0 3c       	cpi	r31, 0xC0	; 192
     8c4:	3c 3f       	cpi	r19, 0xFC	; 252
     8c6:	ff fc       	.word	0xfcff	; ????
     8c8:	00 00       	nop
     8ca:	f0 ff       	sbrs	r31, 0
     8cc:	f0 f0       	brcs	.+60     	; 0x90a <__stack+0xb>
     8ce:	ff ff       	.word	0xffff	; ????
     8d0:	f0 00       	.word	0x00f0	; ????
     8d2:	03 c3       	rjmp	.+1542   	; 0xeda <_ZN3MCU7Setting9beginPortEab+0x2>
     8d4:	c0 00       	.word	0x00c0	; ????
     8d6:	03 ff       	sbrs	r16, 3
     8d8:	ff ff       	.word	0xffff	; ????
     8da:	ff ff       	.word	0xffff	; ????
     8dc:	ff ff       	.word	0xffff	; ????
     8de:	ff ff       	.word	0xffff	; ????
     8e0:	ff eb       	ldi	r31, 0xBF	; 191
     8e2:	ff fa       	.word	0xfaff	; ????
     8e4:	bf ff       	.word	0xffbf	; ????
     8e6:	bf c0       	rjmp	.+382    	; 0xa66 <__stack+0x167>
     8e8:	f0 00       	.word	0x00f0	; ????
     8ea:	f0 3c       	cpi	r31, 0xC0	; 192
     8ec:	3c 3f       	cpi	r19, 0xFC	; 252
     8ee:	ff fc       	.word	0xfcff	; ????
     8f0:	00 00       	nop
     8f2:	f0 ff       	sbrs	r31, 0
     8f4:	f0 f0       	brcs	.+60     	; 0x932 <__stack+0x33>
     8f6:	ff ff       	.word	0xffff	; ????
     8f8:	f0 ff       	sbrs	r31, 0
     8fa:	c3 c3       	rjmp	.+1926   	; 0x1082 <_ZN3TFT10setAddressEiiii+0x12>
     8fc:	c0 00       	.word	0x00c0	; ????
     8fe:	0f ff       	.word	0xff0f	; ????
     900:	ff ff       	.word	0xffff	; ????
     902:	ff ff       	.word	0xffff	; ????
     904:	ff ff       	.word	0xffff	; ????
     906:	ff ff       	.word	0xffff	; ????
     908:	ff ea       	ldi	r31, 0xAF	; 175
     90a:	ff fe       	.word	0xfeff	; ????
     90c:	bf ff       	.word	0xffbf	; ????
     90e:	ff c0       	rjmp	.+510    	; 0xb0e <__stack+0x20f>
     910:	fc 03       	fmulsu	r23, r20
     912:	f0 3c       	cpi	r31, 0xC0	; 192
     914:	3c 0f       	add	r19, r28
     916:	ff fc       	.word	0xfcff	; ????
     918:	3f f0       	brie	.+14     	; 0x928 <__stack+0x29>
     91a:	f0 3f       	cpi	r31, 0xF0	; 240
     91c:	c0 f0       	brcs	.+48     	; 0x94e <__stack+0x4f>
     91e:	3f ff       	.word	0xff3f	; ????
     920:	f0 ff       	sbrs	r31, 0
     922:	c3 c3       	rjmp	.+1926   	; 0x10aa <_ZN3TFT10setAddressEiiii+0x3a>
     924:	c0 ff       	sbrs	r28, 0
     926:	ff ff       	.word	0xffff	; ????
     928:	ff ff       	.word	0xffff	; ????
     92a:	ff ff       	.word	0xffff	; ????
     92c:	ff ff       	.word	0xffff	; ????
     92e:	ff ff       	.word	0xffff	; ????
     930:	ff aa       	std	Y+55, r15	; 0x37
     932:	bf fa       	.word	0xfabf	; ????
     934:	af ff       	.word	0xffaf	; ????
     936:	ff c0       	rjmp	.+510    	; 0xb36 <__stack+0x237>
     938:	fc 03       	fmulsu	r23, r20
     93a:	f0 3c       	cpi	r31, 0xC0	; 192
     93c:	3c 00       	.word	0x003c	; ????
     93e:	00 3c       	cpi	r16, 0xC0	; 192
     940:	3f f0       	brie	.+14     	; 0x950 <__stack+0x51>
     942:	f0 00       	.word	0x00f0	; ????
     944:	00 f0       	brcs	.+0      	; 0x946 <__stack+0x47>
     946:	00 00       	nop
     948:	f0 ff       	sbrs	r31, 0
     94a:	c3 c3       	rjmp	.+1926   	; 0x10d2 <_ZN3TFT10setAddressEiiii+0x62>
     94c:	c0 ff       	sbrs	r28, 0
     94e:	ff ff       	.word	0xffff	; ????
     950:	ff ff       	.word	0xffff	; ????
     952:	ff ff       	.word	0xffff	; ????
     954:	ff ff       	.word	0xffff	; ????
     956:	ff ff       	.word	0xffff	; ????
     958:	fe aa       	std	Y+54, r15	; 0x36
     95a:	bf fa       	.word	0xfabf	; ????
     95c:	ab ff       	.word	0xffab	; ????
     95e:	ff c0       	rjmp	.+510    	; 0xb5e <__stack+0x25f>
     960:	ff 0f       	add	r31, r31
     962:	f0 3c       	cpi	r31, 0xC0	; 192
     964:	3f 00       	.word	0x003f	; ????
     966:	00 3c       	cpi	r16, 0xC0	; 192
     968:	3f f0       	brie	.+14     	; 0x978 <__stack+0x79>
     96a:	fc 00       	.word	0x00fc	; ????
     96c:	03 fc       	sbrc	r0, 3
     96e:	00 00       	nop
     970:	f0 ff       	sbrs	r31, 0
     972:	c3 c3       	rjmp	.+1926   	; 0x10fa <_ZN3TFT10fillScreenEj+0x22>
     974:	c0 ff       	sbrs	r28, 0
     976:	ff ff       	.word	0xffff	; ????
     978:	ff ff       	.word	0xffff	; ????
     97a:	ff ff       	.word	0xffff	; ????
     97c:	ff ff       	.word	0xffff	; ????
     97e:	ff ff       	.word	0xffff	; ????
     980:	fe aa       	std	Y+54, r15	; 0x36
     982:	af ea       	ldi	r26, 0xAF	; 175
     984:	ab ff       	.word	0xffab	; ????
     986:	ff f3       	brie	.-2      	; 0x986 <__stack+0x87>
     988:	ff ff       	.word	0xffff	; ????
     98a:	fc ff       	.word	0xfffc	; ????
     98c:	ff ff       	.word	0xffff	; ????
     98e:	ff ff       	.word	0xffff	; ????
     990:	ff ff       	.word	0xffff	; ????
     992:	ff ff       	.word	0xffff	; ????
     994:	ff ff       	.word	0xffff	; ????
     996:	ff ff       	.word	0xffff	; ????
     998:	ff ff       	.word	0xffff	; ????
     99a:	ff ff       	.word	0xffff	; ????
     99c:	f3 ff       	sbrs	r31, 3
     99e:	ff ff       	.word	0xffff	; ????
     9a0:	ff ff       	.word	0xffff	; ????
     9a2:	ff ff       	.word	0xffff	; ????
     9a4:	ff ff       	.word	0xffff	; ????
     9a6:	ff ff       	.word	0xffff	; ????
     9a8:	fa aa       	std	Y+50, r15	; 0x32
     9aa:	ab aa       	std	Y+51, r10	; 0x33
     9ac:	aa ff       	.word	0xffaa	; ????
     9ae:	ff ff       	.word	0xffff	; ????
     9b0:	ff ff       	.word	0xffff	; ????
     9b2:	ff ff       	.word	0xffff	; ????
     9b4:	ff ff       	.word	0xffff	; ????
     9b6:	ff ff       	.word	0xffff	; ????
     9b8:	ff ff       	.word	0xffff	; ????
     9ba:	ff ff       	.word	0xffff	; ????
     9bc:	ff ff       	.word	0xffff	; ????
     9be:	ff ff       	.word	0xffff	; ????
     9c0:	ff ff       	.word	0xffff	; ????
     9c2:	ff ff       	.word	0xffff	; ????
     9c4:	ff ff       	.word	0xffff	; ????
     9c6:	ff ff       	.word	0xffff	; ????
     9c8:	ff ff       	.word	0xffff	; ????
     9ca:	ff ff       	.word	0xffff	; ????
     9cc:	ff ff       	.word	0xffff	; ????
     9ce:	ff ff       	.word	0xffff	; ????
     9d0:	ea aa       	std	Y+50, r14	; 0x32
     9d2:	aa aa       	std	Y+50, r10	; 0x32
     9d4:	aa ff       	.word	0xffaa	; ????
     9d6:	ff ff       	.word	0xffff	; ????
     9d8:	ff ff       	.word	0xffff	; ????
     9da:	ff ff       	.word	0xffff	; ????
     9dc:	ff ff       	.word	0xffff	; ????
     9de:	ff ff       	.word	0xffff	; ????
     9e0:	ff ff       	.word	0xffff	; ????
     9e2:	ff ff       	.word	0xffff	; ????
     9e4:	ff ff       	.word	0xffff	; ????
     9e6:	ff ff       	.word	0xffff	; ????
     9e8:	ff ff       	.word	0xffff	; ????
     9ea:	ff ff       	.word	0xffff	; ????
     9ec:	ff ff       	.word	0xffff	; ????
     9ee:	ff ff       	.word	0xffff	; ????
     9f0:	ff ff       	.word	0xffff	; ????
     9f2:	ff ff       	.word	0xffff	; ????
     9f4:	ff ff       	.word	0xffff	; ????
     9f6:	ff ff       	.word	0xffff	; ????
     9f8:	fa aa       	std	Y+50, r15	; 0x32
     9fa:	aa aa       	std	Y+50, r10	; 0x32
     9fc:	aa ff       	.word	0xffaa	; ????
     9fe:	ff ff       	.word	0xffff	; ????
     a00:	ff ff       	.word	0xffff	; ????
     a02:	ff ff       	.word	0xffff	; ????
     a04:	ff ff       	.word	0xffff	; ????
     a06:	ff ff       	.word	0xffff	; ????
     a08:	ff ff       	.word	0xffff	; ????
     a0a:	ff ff       	.word	0xffff	; ????
     a0c:	ff ff       	.word	0xffff	; ????
     a0e:	ff ff       	.word	0xffff	; ????
     a10:	ff ff       	.word	0xffff	; ????
     a12:	ff ff       	.word	0xffff	; ????
     a14:	ff ff       	.word	0xffff	; ????
     a16:	ff ff       	.word	0xffff	; ????
     a18:	ff ff       	.word	0xffff	; ????
     a1a:	ff ff       	.word	0xffff	; ????
     a1c:	ff ff       	.word	0xffff	; ????
     a1e:	ff ff       	.word	0xffff	; ????
     a20:	ff aa       	std	Y+55, r15	; 0x37
     a22:	aa aa       	std	Y+50, r10	; 0x32
     a24:	ab ff       	.word	0xffab	; ????
     a26:	ff ff       	.word	0xffff	; ????
     a28:	ff ff       	.word	0xffff	; ????
     a2a:	ff ff       	.word	0xffff	; ????
     a2c:	ff ff       	.word	0xffff	; ????
     a2e:	ff ff       	.word	0xffff	; ????
     a30:	ff ff       	.word	0xffff	; ????
     a32:	ff ff       	.word	0xffff	; ????
     a34:	ff ff       	.word	0xffff	; ????
     a36:	ff ff       	.word	0xffff	; ????
     a38:	ff ff       	.word	0xffff	; ????
     a3a:	ff ff       	.word	0xffff	; ????
     a3c:	ff ff       	.word	0xffff	; ????
     a3e:	ff ff       	.word	0xffff	; ????
     a40:	ff ff       	.word	0xffff	; ????
     a42:	ff ff       	.word	0xffff	; ????
     a44:	ff ff       	.word	0xffff	; ????
     a46:	ff ff       	.word	0xffff	; ????
     a48:	ff fa       	.word	0xfaff	; ????
     a4a:	aa aa       	std	Y+50, r10	; 0x32
     a4c:	bf ff       	.word	0xffbf	; ????
     a4e:	ff ff       	.word	0xffff	; ????
     a50:	ff ff       	.word	0xffff	; ????
     a52:	ff ff       	.word	0xffff	; ????
     a54:	ff ff       	.word	0xffff	; ????
     a56:	ff ff       	.word	0xffff	; ????
     a58:	ff ff       	.word	0xffff	; ????
     a5a:	ff ff       	.word	0xffff	; ????
     a5c:	ff ff       	.word	0xffff	; ????
     a5e:	ff ff       	.word	0xffff	; ????
     a60:	ff ff       	.word	0xffff	; ????
     a62:	ff ff       	.word	0xffff	; ????
     a64:	ff ff       	.word	0xffff	; ????
     a66:	ff ff       	.word	0xffff	; ????
     a68:	ff ff       	.word	0xffff	; ????
     a6a:	ff ff       	.word	0xffff	; ????
     a6c:	ff ff       	.word	0xffff	; ????
     a6e:	ff ff       	.word	0xffff	; ????
     a70:	ff ff       	.word	0xffff	; ????
     a72:	ff ff       	.word	0xffff	; ????
     a74:	ff ff       	.word	0xffff	; ????
     a76:	ff ff       	.word	0xffff	; ????
     a78:	ff ff       	.word	0xffff	; ????
     a7a:	ff ff       	.word	0xffff	; ????
     a7c:	ff ff       	.word	0xffff	; ????
     a7e:	ff ff       	.word	0xffff	; ????
     a80:	ff ff       	.word	0xffff	; ????
     a82:	ff ff       	.word	0xffff	; ????
     a84:	ff ff       	.word	0xffff	; ????
     a86:	ff ff       	.word	0xffff	; ????
     a88:	ff ff       	.word	0xffff	; ????
     a8a:	ff ff       	.word	0xffff	; ????
     a8c:	ff ff       	.word	0xffff	; ????
     a8e:	ff ff       	.word	0xffff	; ????
     a90:	ff ff       	.word	0xffff	; ????
     a92:	ff ff       	.word	0xffff	; ????
     a94:	ff ff       	.word	0xffff	; ????
     a96:	ff ff       	.word	0xffff	; ????
     a98:	ff ff       	.word	0xffff	; ????
     a9a:	ff ff       	.word	0xffff	; ????
     a9c:	ff ff       	.word	0xffff	; ????
     a9e:	ff ff       	.word	0xffff	; ????
     aa0:	ff ff       	.word	0xffff	; ????
     aa2:	ff ff       	.word	0xffff	; ????
     aa4:	ff ff       	.word	0xffff	; ????
     aa6:	ff ff       	.word	0xffff	; ????
     aa8:	ff ff       	.word	0xffff	; ????
     aaa:	ff ff       	.word	0xffff	; ????
     aac:	ff ff       	.word	0xffff	; ????
     aae:	ff ff       	.word	0xffff	; ????
     ab0:	ff ff       	.word	0xffff	; ????
     ab2:	ff ff       	.word	0xffff	; ????
     ab4:	ff ff       	.word	0xffff	; ????
     ab6:	ff ff       	.word	0xffff	; ????
     ab8:	ff ff       	.word	0xffff	; ????
     aba:	ff ff       	.word	0xffff	; ????
     abc:	ff ff       	.word	0xffff	; ????
     abe:	ff ff       	.word	0xffff	; ????
     ac0:	ff ff       	.word	0xffff	; ????
     ac2:	ff ff       	.word	0xffff	; ????
     ac4:	ff ff       	.word	0xffff	; ????
     ac6:	ff ff       	.word	0xffff	; ????
     ac8:	ff ff       	.word	0xffff	; ????
     aca:	ff ff       	.word	0xffff	; ????
     acc:	ff ff       	.word	0xffff	; ????
     ace:	ff ff       	.word	0xffff	; ????
     ad0:	ff ff       	.word	0xffff	; ????
     ad2:	ff ff       	.word	0xffff	; ????
     ad4:	ff ff       	.word	0xffff	; ????
     ad6:	ff ff       	.word	0xffff	; ????
     ad8:	ff ff       	.word	0xffff	; ????
     ada:	ff ff       	.word	0xffff	; ????
     adc:	ff ff       	.word	0xffff	; ????
     ade:	ff ff       	.word	0xffff	; ????
     ae0:	ff ff       	.word	0xffff	; ????
     ae2:	ff ff       	.word	0xffff	; ????
     ae4:	ff ff       	.word	0xffff	; ????
     ae6:	ff ff       	.word	0xffff	; ????
     ae8:	ff ff       	.word	0xffff	; ????
     aea:	ff ff       	.word	0xffff	; ????
     aec:	ff ff       	.word	0xffff	; ????
     aee:	ff ff       	.word	0xffff	; ????
     af0:	ff ff       	.word	0xffff	; ????
     af2:	ff ff       	.word	0xffff	; ????
     af4:	ff ff       	.word	0xffff	; ????
     af6:	ff ff       	.word	0xffff	; ????
     af8:	ff ff       	.word	0xffff	; ????
     afa:	ff ff       	.word	0xffff	; ????
     afc:	ff ff       	.word	0xffff	; ????
     afe:	ff ff       	.word	0xffff	; ????
     b00:	ff ff       	.word	0xffff	; ????
     b02:	ff ff       	.word	0xffff	; ????
     b04:	ff ff       	.word	0xffff	; ????
     b06:	ff ff       	.word	0xffff	; ????
     b08:	ff ff       	.word	0xffff	; ????
     b0a:	ff ff       	.word	0xffff	; ????
     b0c:	ff ff       	.word	0xffff	; ????
     b0e:	ff ff       	.word	0xffff	; ????
     b10:	ff ff       	.word	0xffff	; ????
     b12:	ff ff       	.word	0xffff	; ????
     b14:	ff ff       	.word	0xffff	; ????
     b16:	ff ff       	.word	0xffff	; ????
     b18:	ff ff       	.word	0xffff	; ????
     b1a:	ff ff       	.word	0xffff	; ????
     b1c:	ff ff       	.word	0xffff	; ????
     b1e:	ff ff       	.word	0xffff	; ????
     b20:	ff ff       	.word	0xffff	; ????
     b22:	ff ff       	.word	0xffff	; ????
     b24:	ff ff       	.word	0xffff	; ????
     b26:	ff ff       	.word	0xffff	; ????
     b28:	ff ff       	.word	0xffff	; ????
     b2a:	ff ff       	.word	0xffff	; ????
     b2c:	ff ff       	.word	0xffff	; ????
     b2e:	ff ff       	.word	0xffff	; ????
     b30:	ff ff       	.word	0xffff	; ????
     b32:	ff ff       	.word	0xffff	; ????
     b34:	ff ff       	.word	0xffff	; ????
     b36:	ff ff       	.word	0xffff	; ????
     b38:	ff ff       	.word	0xffff	; ????
     b3a:	ff ff       	.word	0xffff	; ????
     b3c:	ff ff       	.word	0xffff	; ????
     b3e:	ff ff       	.word	0xffff	; ????
     b40:	ff ff       	.word	0xffff	; ????
     b42:	ff ff       	.word	0xffff	; ????
     b44:	ff ff       	.word	0xffff	; ????
     b46:	ff ff       	.word	0xffff	; ????
     b48:	ff ff       	.word	0xffff	; ????
     b4a:	ff ff       	.word	0xffff	; ????
     b4c:	ff ff       	.word	0xffff	; ????
     b4e:	ff ff       	.word	0xffff	; ????
     b50:	ff ff       	.word	0xffff	; ????
     b52:	ff ff       	.word	0xffff	; ????
     b54:	ff ff       	.word	0xffff	; ????
     b56:	ff ff       	.word	0xffff	; ????
     b58:	ff ff       	.word	0xffff	; ????
     b5a:	ff ff       	.word	0xffff	; ????
     b5c:	ff ff       	.word	0xffff	; ????
     b5e:	ff ff       	.word	0xffff	; ????
     b60:	ff ff       	.word	0xffff	; ????
     b62:	ff ff       	.word	0xffff	; ????
     b64:	ff ff       	.word	0xffff	; ????
     b66:	ff ff       	.word	0xffff	; ????
     b68:	ff ff       	.word	0xffff	; ????
     b6a:	ff ff       	.word	0xffff	; ????
     b6c:	ff ff       	.word	0xffff	; ????
     b6e:	ff ff       	.word	0xffff	; ????
     b70:	ff ff       	.word	0xffff	; ????
     b72:	ff ff       	.word	0xffff	; ????
     b74:	ff ff       	.word	0xffff	; ????
     b76:	ff ff       	.word	0xffff	; ????
     b78:	ff ff       	.word	0xffff	; ????
     b7a:	ff ff       	.word	0xffff	; ????
     b7c:	ff ff       	.word	0xffff	; ????
     b7e:	ff ff       	.word	0xffff	; ????
     b80:	ff ff       	.word	0xffff	; ????
     b82:	ff ff       	.word	0xffff	; ????
     b84:	ff ff       	.word	0xffff	; ????
     b86:	ff ff       	.word	0xffff	; ????
     b88:	ff ff       	.word	0xffff	; ????
     b8a:	ff ff       	.word	0xffff	; ????
     b8c:	ff ff       	.word	0xffff	; ????
     b8e:	ff ff       	.word	0xffff	; ????
     b90:	ff ff       	.word	0xffff	; ????
     b92:	ff ff       	.word	0xffff	; ????
     b94:	ff ff       	.word	0xffff	; ????
     b96:	ff ff       	.word	0xffff	; ????
     b98:	ff ff       	.word	0xffff	; ????
     b9a:	ff ff       	.word	0xffff	; ????
     b9c:	ff ff       	.word	0xffff	; ????
     b9e:	ff ff       	.word	0xffff	; ????
     ba0:	ff ff       	.word	0xffff	; ????
     ba2:	ff ff       	.word	0xffff	; ????
     ba4:	ff ff       	.word	0xffff	; ????
     ba6:	ff ff       	.word	0xffff	; ????
     ba8:	ff ff       	.word	0xffff	; ????
     baa:	ff ff       	.word	0xffff	; ????
     bac:	ff ff       	.word	0xffff	; ????
     bae:	ff ff       	.word	0xffff	; ????
     bb0:	ff ff       	.word	0xffff	; ????
     bb2:	ff ff       	.word	0xffff	; ????
     bb4:	ff ff       	.word	0xffff	; ????
     bb6:	ff ff       	.word	0xffff	; ????
     bb8:	ff ff       	.word	0xffff	; ????
     bba:	ff ff       	.word	0xffff	; ????
     bbc:	ff ff       	.word	0xffff	; ????
     bbe:	ff ff       	.word	0xffff	; ????
     bc0:	ff ff       	.word	0xffff	; ????
     bc2:	ff ff       	.word	0xffff	; ????
     bc4:	ff ff       	.word	0xffff	; ????
     bc6:	ff ff       	.word	0xffff	; ????
     bc8:	ff ff       	.word	0xffff	; ????
     bca:	ff ff       	.word	0xffff	; ????
     bcc:	ff ff       	.word	0xffff	; ????
     bce:	ff ff       	.word	0xffff	; ????
     bd0:	ff ff       	.word	0xffff	; ????
     bd2:	ff ff       	.word	0xffff	; ????
     bd4:	ff ff       	.word	0xffff	; ????
     bd6:	ff ff       	.word	0xffff	; ????
     bd8:	ff ff       	.word	0xffff	; ????
     bda:	ff ff       	.word	0xffff	; ????
     bdc:	ff ff       	.word	0xffff	; ????
     bde:	ff ff       	.word	0xffff	; ????
     be0:	ff ff       	.word	0xffff	; ????
     be2:	ff ff       	.word	0xffff	; ????
     be4:	ff ff       	.word	0xffff	; ????
     be6:	ff ff       	.word	0xffff	; ????
     be8:	ff ff       	.word	0xffff	; ????
     bea:	ff ff       	.word	0xffff	; ????
     bec:	ff ff       	.word	0xffff	; ????
     bee:	ff ff       	.word	0xffff	; ????
     bf0:	ff ff       	.word	0xffff	; ????
     bf2:	ff ff       	.word	0xffff	; ????
     bf4:	ff ff       	.word	0xffff	; ????
     bf6:	ff ff       	.word	0xffff	; ????
     bf8:	ff ff       	.word	0xffff	; ????
     bfa:	ff ff       	.word	0xffff	; ????
     bfc:	ff ff       	.word	0xffff	; ????
     bfe:	ff ff       	.word	0xffff	; ????
     c00:	ff ff       	.word	0xffff	; ????
     c02:	ff ff       	.word	0xffff	; ????
     c04:	ff ff       	.word	0xffff	; ????
     c06:	ff ff       	.word	0xffff	; ????
     c08:	ff ff       	.word	0xffff	; ????
     c0a:	ff ff       	.word	0xffff	; ????
     c0c:	ff ff       	.word	0xffff	; ????
     c0e:	ff ff       	.word	0xffff	; ????
     c10:	ff ff       	.word	0xffff	; ????
     c12:	ff ff       	.word	0xffff	; ????
     c14:	ff ff       	.word	0xffff	; ????
     c16:	ff ff       	.word	0xffff	; ????
     c18:	ff ff       	.word	0xffff	; ????
     c1a:	ff ff       	.word	0xffff	; ????
     c1c:	ff ff       	.word	0xffff	; ????
     c1e:	ff ff       	.word	0xffff	; ????
     c20:	ff ff       	.word	0xffff	; ????
     c22:	ff ff       	.word	0xffff	; ????
     c24:	ff ff       	.word	0xffff	; ????
     c26:	ff ff       	.word	0xffff	; ????
     c28:	ff ff       	.word	0xffff	; ????
     c2a:	ff ff       	.word	0xffff	; ????
     c2c:	ff ff       	.word	0xffff	; ????
     c2e:	ff ff       	.word	0xffff	; ????
     c30:	ff ff       	.word	0xffff	; ????
     c32:	ff ff       	.word	0xffff	; ????
     c34:	ff ff       	.word	0xffff	; ????
     c36:	ff ff       	.word	0xffff	; ????
     c38:	ff ff       	.word	0xffff	; ????
     c3a:	ff ff       	.word	0xffff	; ????
     c3c:	ff ff       	.word	0xffff	; ????
     c3e:	ff ff       	.word	0xffff	; ????
     c40:	ff ff       	.word	0xffff	; ????
     c42:	ff ff       	.word	0xffff	; ????
     c44:	ff ff       	.word	0xffff	; ????
     c46:	ff ff       	.word	0xffff	; ????
     c48:	ff ff       	.word	0xffff	; ????
     c4a:	ff ff       	.word	0xffff	; ????
     c4c:	ff ff       	.word	0xffff	; ????
     c4e:	ff ff       	.word	0xffff	; ????
     c50:	ff ff       	.word	0xffff	; ????
     c52:	ff ff       	.word	0xffff	; ????
     c54:	ff ff       	.word	0xffff	; ????
     c56:	ff ff       	.word	0xffff	; ????
     c58:	ff ff       	.word	0xffff	; ????
     c5a:	ff ff       	.word	0xffff	; ????
     c5c:	ff ff       	.word	0xffff	; ????
     c5e:	ff ff       	.word	0xffff	; ????
     c60:	ff ff       	.word	0xffff	; ????
     c62:	ff ff       	.word	0xffff	; ????
     c64:	ff ff       	.word	0xffff	; ????
     c66:	ff ff       	.word	0xffff	; ????
     c68:	ff ff       	.word	0xffff	; ????
     c6a:	ff ff       	.word	0xffff	; ????
     c6c:	ff ff       	.word	0xffff	; ????
     c6e:	ff ff       	.word	0xffff	; ????
     c70:	ff ff       	.word	0xffff	; ????
     c72:	ff ff       	.word	0xffff	; ????
     c74:	ff ff       	.word	0xffff	; ????
     c76:	ff ff       	.word	0xffff	; ????
     c78:	ff ff       	.word	0xffff	; ????
     c7a:	ff ff       	.word	0xffff	; ????
     c7c:	ff ff       	.word	0xffff	; ????
     c7e:	ff ff       	.word	0xffff	; ????
     c80:	ff ff       	.word	0xffff	; ????
     c82:	ff ff       	.word	0xffff	; ????
     c84:	ff ff       	.word	0xffff	; ????
     c86:	ff ff       	.word	0xffff	; ????
     c88:	ff ff       	.word	0xffff	; ????
     c8a:	ff ff       	.word	0xffff	; ????
     c8c:	ff ff       	.word	0xffff	; ????
     c8e:	ff ff       	.word	0xffff	; ????
     c90:	ff ff       	.word	0xffff	; ????
     c92:	ff ff       	.word	0xffff	; ????
     c94:	ff ff       	.word	0xffff	; ????
     c96:	ff ff       	.word	0xffff	; ????
     c98:	ff ff       	.word	0xffff	; ????
     c9a:	ff ff       	.word	0xffff	; ????
     c9c:	ff ff       	.word	0xffff	; ????
     c9e:	ff ff       	.word	0xffff	; ????
     ca0:	ff ff       	.word	0xffff	; ????
     ca2:	ff ff       	.word	0xffff	; ????
     ca4:	ff ff       	.word	0xffff	; ????
     ca6:	ff ff       	.word	0xffff	; ????
     ca8:	ff ff       	.word	0xffff	; ????
     caa:	ff ff       	.word	0xffff	; ????
     cac:	ff ff       	.word	0xffff	; ????
     cae:	ff ff       	.word	0xffff	; ????
     cb0:	ff ff       	.word	0xffff	; ????
     cb2:	ff ff       	.word	0xffff	; ????
     cb4:	ff ff       	.word	0xffff	; ????
     cb6:	ff ff       	.word	0xffff	; ????
     cb8:	ff ff       	.word	0xffff	; ????
     cba:	ff ff       	.word	0xffff	; ????
     cbc:	ff ff       	.word	0xffff	; ????
     cbe:	ff ff       	.word	0xffff	; ????
     cc0:	ff ff       	.word	0xffff	; ????
     cc2:	ff ff       	.word	0xffff	; ????
     cc4:	ff ff       	.word	0xffff	; ????
     cc6:	ff ff       	.word	0xffff	; ????
     cc8:	ff ff       	.word	0xffff	; ????
     cca:	ff ff       	.word	0xffff	; ????
     ccc:	ff ff       	.word	0xffff	; ????
     cce:	ff ff       	.word	0xffff	; ????
     cd0:	ff ff       	.word	0xffff	; ????
     cd2:	ff ff       	.word	0xffff	; ????
     cd4:	ff ff       	.word	0xffff	; ????
     cd6:	ff ff       	.word	0xffff	; ????
     cd8:	ff ff       	.word	0xffff	; ????
     cda:	ff ff       	.word	0xffff	; ????
     cdc:	ff ff       	.word	0xffff	; ????
     cde:	ff ff       	.word	0xffff	; ????
     ce0:	ff ff       	.word	0xffff	; ????
     ce2:	ff ff       	.word	0xffff	; ????
     ce4:	ff ff       	.word	0xffff	; ????
     ce6:	ff ff       	.word	0xffff	; ????

00000ce8 <__ctors_start>:
     ce8:	61 07       	cpc	r22, r17

00000cea <__ctors_end>:
     cea:	11 24       	eor	r1, r1
     cec:	1f be       	out	0x3f, r1	; 63
     cee:	cf ef       	ldi	r28, 0xFF	; 255
     cf0:	d8 e0       	ldi	r29, 0x08	; 8
     cf2:	de bf       	out	0x3e, r29	; 62
     cf4:	cd bf       	out	0x3d, r28	; 61

00000cf6 <__do_clear_bss>:
     cf6:	21 e0       	ldi	r18, 0x01	; 1
     cf8:	a0 e0       	ldi	r26, 0x00	; 0
     cfa:	b1 e0       	ldi	r27, 0x01	; 1
     cfc:	01 c0       	rjmp	.+2      	; 0xd00 <.do_clear_bss_start>

00000cfe <.do_clear_bss_loop>:
     cfe:	1d 92       	st	X+, r1

00000d00 <.do_clear_bss_start>:
     d00:	a6 30       	cpi	r26, 0x06	; 6
     d02:	b2 07       	cpc	r27, r18
     d04:	e1 f7       	brne	.-8      	; 0xcfe <.do_clear_bss_loop>

00000d06 <__do_global_ctors>:
     d06:	16 e0       	ldi	r17, 0x06	; 6
     d08:	c5 e7       	ldi	r28, 0x75	; 117
     d0a:	d6 e0       	ldi	r29, 0x06	; 6
     d0c:	04 c0       	rjmp	.+8      	; 0xd16 <__do_global_ctors+0x10>
     d0e:	21 97       	sbiw	r28, 0x01	; 1
     d10:	fe 01       	movw	r30, r28
     d12:	0e 94 5f 0a 	call	0x14be	; 0x14be <__tablejump2__>
     d16:	c4 37       	cpi	r28, 0x74	; 116
     d18:	d1 07       	cpc	r29, r17
     d1a:	c9 f7       	brne	.-14     	; 0xd0e <__do_global_ctors+0x8>
     d1c:	0e 94 94 06 	call	0xd28	; 0xd28 <main>
     d20:	0c 94 65 0a 	jmp	0x14ca	; 0x14ca <_exit>

00000d24 <__bad_interrupt>:
     d24:	0c 94 00 00 	jmp	0	; 0x0 <__vectors>

00000d28 <main>:
--------------  MAIN START  --------------
//========================================*/

int main(void)
{
  beginPort(B, OUT);
     d28:	61 e0       	ldi	r22, 0x01	; 1
     d2a:	80 e0       	ldi	r24, 0x00	; 0
     d2c:	0e 94 6c 07 	call	0xed8	; 0xed8 <_ZN3MCU7Setting9beginPortEab>
  beginSPI();
     d30:	0e 94 7c 07 	call	0xef8	; 0xef8 <_ZN3MCU7Setting8beginSPIEv>

  tft.begin();
     d34:	80 e0       	ldi	r24, 0x00	; 0
     d36:	91 e0       	ldi	r25, 0x01	; 1
     d38:	0e 94 a5 07 	call	0xf4a	; 0xf4a <_ZN3TFT5beginEv>
  tft.setRotation(0);
     d3c:	60 e0       	ldi	r22, 0x00	; 0
     d3e:	80 e0       	ldi	r24, 0x00	; 0
     d40:	91 e0       	ldi	r25, 0x01	; 1
     d42:	0e 94 fa 07 	call	0xff4	; 0xff4 <_ZN3TFT11setRotationEa>
  tft.fillScreen(BLACK);
     d46:	60 e0       	ldi	r22, 0x00	; 0
     d48:	70 e0       	ldi	r23, 0x00	; 0
     d4a:	80 e0       	ldi	r24, 0x00	; 0
     d4c:	91 e0       	ldi	r25, 0x01	; 1
     d4e:	0e 94 6c 08 	call	0x10d8	; 0x10d8 <_ZN3TFT10fillScreenEj>

  tft.drawRect(70, 0, 88, 31, RED);
     d52:	0f 2e       	mov	r0, r31
     d54:	e1 2c       	mov	r14, r1
     d56:	f8 ef       	ldi	r31, 0xF8	; 248
     d58:	ff 2e       	mov	r15, r31
     d5a:	f0 2d       	mov	r31, r0
     d5c:	0f e1       	ldi	r16, 0x1F	; 31
     d5e:	10 e0       	ldi	r17, 0x00	; 0
     d60:	28 e5       	ldi	r18, 0x58	; 88
     d62:	30 e0       	ldi	r19, 0x00	; 0
     d64:	40 e0       	ldi	r20, 0x00	; 0
     d66:	50 e0       	ldi	r21, 0x00	; 0
     d68:	66 e4       	ldi	r22, 0x46	; 70
     d6a:	70 e0       	ldi	r23, 0x00	; 0
     d6c:	80 e0       	ldi	r24, 0x00	; 0
     d6e:	91 e0       	ldi	r25, 0x01	; 1
     d70:	0e 94 b1 08 	call	0x1162	; 0x1162 <_ZN3TFT8drawRectEiiiij>
  tft.drawRect(70, 70, 45, 31, GREEN);
     d74:	0f 2e       	mov	r0, r31
     d76:	f0 ee       	ldi	r31, 0xE0	; 224
     d78:	ef 2e       	mov	r14, r31
     d7a:	f7 e0       	ldi	r31, 0x07	; 7
     d7c:	ff 2e       	mov	r15, r31
     d7e:	f0 2d       	mov	r31, r0
     d80:	2d e2       	ldi	r18, 0x2D	; 45
     d82:	30 e0       	ldi	r19, 0x00	; 0
     d84:	46 e4       	ldi	r20, 0x46	; 70
     d86:	50 e0       	ldi	r21, 0x00	; 0
     d88:	66 e4       	ldi	r22, 0x46	; 70
     d8a:	70 e0       	ldi	r23, 0x00	; 0
     d8c:	80 e0       	ldi	r24, 0x00	; 0
     d8e:	91 e0       	ldi	r25, 0x01	; 1
     d90:	0e 94 b1 08 	call	0x1162	; 0x1162 <_ZN3TFT8drawRectEiiiij>
  tft.drawRect(70, 140, 71, 31, BLUE);
     d94:	0f 2e       	mov	r0, r31
     d96:	ff e1       	ldi	r31, 0x1F	; 31
     d98:	ef 2e       	mov	r14, r31
     d9a:	f1 2c       	mov	r15, r1
     d9c:	f0 2d       	mov	r31, r0
     d9e:	27 e4       	ldi	r18, 0x47	; 71
     da0:	30 e0       	ldi	r19, 0x00	; 0
     da2:	4c e8       	ldi	r20, 0x8C	; 140
     da4:	50 e0       	ldi	r21, 0x00	; 0
     da6:	66 e4       	ldi	r22, 0x46	; 70
     da8:	70 e0       	ldi	r23, 0x00	; 0
     daa:	80 e0       	ldi	r24, 0x00	; 0
     dac:	91 e0       	ldi	r25, 0x01	; 1
     dae:	0e 94 b1 08 	call	0x1162	; 0x1162 <_ZN3TFT8drawRectEiiiij>
	#else
		//round up by default
		__ticks_dc = (uint32_t)(ceil(fabs(__tmp)));
	#endif

	__builtin_avr_delay_cycles(__ticks_dc);
     db2:	2f ef       	ldi	r18, 0xFF	; 255
     db4:	83 ed       	ldi	r24, 0xD3	; 211
     db6:	90 e3       	ldi	r25, 0x30	; 48
     db8:	21 50       	subi	r18, 0x01	; 1
     dba:	80 40       	sbci	r24, 0x00	; 0
     dbc:	90 40       	sbci	r25, 0x00	; 0
     dbe:	e1 f7       	brne	.-8      	; 0xdb8 <main+0x90>
     dc0:	00 c0       	rjmp	.+0      	; 0xdc2 <main+0x9a>
     dc2:	00 00       	nop
  _delay_ms(1000);
  
  tft.fillScreen(RED);
     dc4:	60 e0       	ldi	r22, 0x00	; 0
     dc6:	78 ef       	ldi	r23, 0xF8	; 248
     dc8:	80 e0       	ldi	r24, 0x00	; 0
     dca:	91 e0       	ldi	r25, 0x01	; 1
     dcc:	0e 94 6c 08 	call	0x10d8	; 0x10d8 <_ZN3TFT10fillScreenEj>
     dd0:	2f ef       	ldi	r18, 0xFF	; 255
     dd2:	89 e6       	ldi	r24, 0x69	; 105
     dd4:	98 e1       	ldi	r25, 0x18	; 24
     dd6:	21 50       	subi	r18, 0x01	; 1
     dd8:	80 40       	sbci	r24, 0x00	; 0
     dda:	90 40       	sbci	r25, 0x00	; 0
     ddc:	e1 f7       	brne	.-8      	; 0xdd6 <main+0xae>
     dde:	00 c0       	rjmp	.+0      	; 0xde0 <main+0xb8>
     de0:	00 00       	nop
  _delay_ms(500);

  tft.fillScreen(GREEN);
     de2:	60 ee       	ldi	r22, 0xE0	; 224
     de4:	77 e0       	ldi	r23, 0x07	; 7
     de6:	80 e0       	ldi	r24, 0x00	; 0
     de8:	91 e0       	ldi	r25, 0x01	; 1
     dea:	0e 94 6c 08 	call	0x10d8	; 0x10d8 <_ZN3TFT10fillScreenEj>
     dee:	2f ef       	ldi	r18, 0xFF	; 255
     df0:	89 e6       	ldi	r24, 0x69	; 105
     df2:	98 e1       	ldi	r25, 0x18	; 24
     df4:	21 50       	subi	r18, 0x01	; 1
     df6:	80 40       	sbci	r24, 0x00	; 0
     df8:	90 40       	sbci	r25, 0x00	; 0
     dfa:	e1 f7       	brne	.-8      	; 0xdf4 <main+0xcc>
     dfc:	00 c0       	rjmp	.+0      	; 0xdfe <main+0xd6>
     dfe:	00 00       	nop
  _delay_ms(500);

  tft.fillScreen(BLUE);
     e00:	6f e1       	ldi	r22, 0x1F	; 31
     e02:	70 e0       	ldi	r23, 0x00	; 0
     e04:	80 e0       	ldi	r24, 0x00	; 0
     e06:	91 e0       	ldi	r25, 0x01	; 1
     e08:	0e 94 6c 08 	call	0x10d8	; 0x10d8 <_ZN3TFT10fillScreenEj>
     e0c:	2f ef       	ldi	r18, 0xFF	; 255
     e0e:	89 e6       	ldi	r24, 0x69	; 105
     e10:	98 e1       	ldi	r25, 0x18	; 24
     e12:	21 50       	subi	r18, 0x01	; 1
     e14:	80 40       	sbci	r24, 0x00	; 0
     e16:	90 40       	sbci	r25, 0x00	; 0
     e18:	e1 f7       	brne	.-8      	; 0xe12 <main+0xea>
     e1a:	00 c0       	rjmp	.+0      	; 0xe1c <main+0xf4>
     e1c:	00 00       	nop


  while (1)
  {
    tft.fillScreen(WHITE);
    tft.drawBitmap(0, 30, 160, 80, logoAtmel, BLACK, RED, BLUE, WHITE);
     e1e:	cf ef       	ldi	r28, 0xFF	; 255
  _delay_ms(500);


  while (1)
  {
    tft.fillScreen(WHITE);
     e20:	6f ef       	ldi	r22, 0xFF	; 255
     e22:	7f ef       	ldi	r23, 0xFF	; 255
     e24:	80 e0       	ldi	r24, 0x00	; 0
     e26:	91 e0       	ldi	r25, 0x01	; 1
     e28:	0e 94 6c 08 	call	0x10d8	; 0x10d8 <_ZN3TFT10fillScreenEj>
    tft.drawBitmap(0, 30, 160, 80, logoAtmel, BLACK, RED, BLUE, WHITE);
     e2c:	cf 93       	push	r28
     e2e:	cf 93       	push	r28
     e30:	0f 2e       	mov	r0, r31
     e32:	ff e1       	ldi	r31, 0x1F	; 31
     e34:	8f 2e       	mov	r8, r31
     e36:	91 2c       	mov	r9, r1
     e38:	f0 2d       	mov	r31, r0
     e3a:	0f 2e       	mov	r0, r31
     e3c:	a1 2c       	mov	r10, r1
     e3e:	f8 ef       	ldi	r31, 0xF8	; 248
     e40:	bf 2e       	mov	r11, r31
     e42:	f0 2d       	mov	r31, r0
     e44:	c1 2c       	mov	r12, r1
     e46:	d1 2c       	mov	r13, r1
     e48:	0f 2e       	mov	r0, r31
     e4a:	f8 e6       	ldi	r31, 0x68	; 104
     e4c:	ef 2e       	mov	r14, r31
     e4e:	f0 e0       	ldi	r31, 0x00	; 0
     e50:	ff 2e       	mov	r15, r31
     e52:	f0 2d       	mov	r31, r0
     e54:	00 e5       	ldi	r16, 0x50	; 80
     e56:	10 e0       	ldi	r17, 0x00	; 0
     e58:	20 ea       	ldi	r18, 0xA0	; 160
     e5a:	30 e0       	ldi	r19, 0x00	; 0
     e5c:	4e e1       	ldi	r20, 0x1E	; 30
     e5e:	50 e0       	ldi	r21, 0x00	; 0
     e60:	60 e0       	ldi	r22, 0x00	; 0
     e62:	70 e0       	ldi	r23, 0x00	; 0
     e64:	80 e0       	ldi	r24, 0x00	; 0
     e66:	91 e0       	ldi	r25, 0x01	; 1
     e68:	0e 94 e6 08 	call	0x11cc	; 0x11cc <_ZN3TFT10drawBitmapEiiiiPKhjjjj>
     e6c:	2f ef       	ldi	r18, 0xFF	; 255
     e6e:	83 ed       	ldi	r24, 0xD3	; 211
     e70:	90 e3       	ldi	r25, 0x30	; 48
     e72:	21 50       	subi	r18, 0x01	; 1
     e74:	80 40       	sbci	r24, 0x00	; 0
     e76:	90 40       	sbci	r25, 0x00	; 0
     e78:	e1 f7       	brne	.-8      	; 0xe72 <main+0x14a>
     e7a:	00 c0       	rjmp	.+0      	; 0xe7c <main+0x154>
     e7c:	00 00       	nop
    _delay_ms(1000);
    
    tft.fillScreen(WHITE);
     e7e:	6f ef       	ldi	r22, 0xFF	; 255
     e80:	7f ef       	ldi	r23, 0xFF	; 255
     e82:	80 e0       	ldi	r24, 0x00	; 0
     e84:	91 e0       	ldi	r25, 0x01	; 1
     e86:	0e 94 6c 08 	call	0x10d8	; 0x10d8 <_ZN3TFT10fillScreenEj>
    tft.drawBitmapTwice(0, 30, 320, 160, logoAtmel, BLACK, RED, BLUE, WHITE);
     e8a:	cf 93       	push	r28
     e8c:	cf 93       	push	r28
     e8e:	00 ea       	ldi	r16, 0xA0	; 160
     e90:	10 e0       	ldi	r17, 0x00	; 0
     e92:	20 e4       	ldi	r18, 0x40	; 64
     e94:	31 e0       	ldi	r19, 0x01	; 1
     e96:	4e e1       	ldi	r20, 0x1E	; 30
     e98:	50 e0       	ldi	r21, 0x00	; 0
     e9a:	60 e0       	ldi	r22, 0x00	; 0
     e9c:	70 e0       	ldi	r23, 0x00	; 0
     e9e:	80 e0       	ldi	r24, 0x00	; 0
     ea0:	91 e0       	ldi	r25, 0x01	; 1
     ea2:	0e 94 8e 09 	call	0x131c	; 0x131c <_ZN3TFT15drawBitmapTwiceEiiiiPKhjjjj>
     ea6:	2f ef       	ldi	r18, 0xFF	; 255
     ea8:	83 ed       	ldi	r24, 0xD3	; 211
     eaa:	90 e3       	ldi	r25, 0x30	; 48
     eac:	21 50       	subi	r18, 0x01	; 1
     eae:	80 40       	sbci	r24, 0x00	; 0
     eb0:	90 40       	sbci	r25, 0x00	; 0
     eb2:	e1 f7       	brne	.-8      	; 0xeac <main+0x184>
     eb4:	00 c0       	rjmp	.+0      	; 0xeb6 <main+0x18e>
     eb6:	00 00       	nop
     eb8:	0f 90       	pop	r0
     eba:	0f 90       	pop	r0
     ebc:	0f 90       	pop	r0
     ebe:	0f 90       	pop	r0
     ec0:	af cf       	rjmp	.-162    	; 0xe20 <main+0xf8>

00000ec2 <_GLOBAL__sub_I_tft>:
  int16_t m_Height;
  int16_t m_Temp;
  //uint16_t m_Cache[15][20];

public:
  TFT(int16_t TFTWidth, int16_t TFTHeight) : SPI() { m_Width = TFTWidth; m_Height = TFTHeight; };
     ec2:	e0 e0       	ldi	r30, 0x00	; 0
     ec4:	f1 e0       	ldi	r31, 0x01	; 1
     ec6:	80 ef       	ldi	r24, 0xF0	; 240
     ec8:	90 e0       	ldi	r25, 0x00	; 0
     eca:	91 83       	std	Z+1, r25	; 0x01
     ecc:	80 83       	st	Z, r24
     ece:	80 e4       	ldi	r24, 0x40	; 64
     ed0:	91 e0       	ldi	r25, 0x01	; 1
     ed2:	93 83       	std	Z+3, r25	; 0x03
     ed4:	82 83       	std	Z+2, r24	; 0x02
     ed6:	08 95       	ret

00000ed8 <_ZN3MCU7Setting9beginPortEab>:
    else
    {
      TCCR1A |= 0x03 | (1 << COM1B1); // 256, Fast PWM Mode
      TCCR1B = 0x0C;
      TCNT1H = 0x00; // Start Counting 0x0000
      TCNT1L = 0x00;
     ed8:	61 95       	neg	r22
     eda:	81 30       	cpi	r24, 0x01	; 1
     edc:	39 f0       	breq	.+14     	; 0xeec <_ZN3MCU7Setting9beginPortEab+0x14>
     ede:	82 30       	cpi	r24, 0x02	; 2
     ee0:	41 f0       	breq	.+16     	; 0xef2 <_ZN3MCU7Setting9beginPortEab+0x1a>
     ee2:	81 11       	cpse	r24, r1
     ee4:	08 c0       	rjmp	.+16     	; 0xef6 <_ZN3MCU7Setting9beginPortEab+0x1e>
     ee6:	64 b9       	out	0x04, r22	; 4
     ee8:	15 b8       	out	0x05, r1	; 5
     eea:	08 95       	ret
     eec:	67 b9       	out	0x07, r22	; 7
     eee:	18 b8       	out	0x08, r1	; 8
     ef0:	08 95       	ret
     ef2:	6a b9       	out	0x0a, r22	; 10
     ef4:	1b b8       	out	0x0b, r1	; 11
     ef6:	08 95       	ret

00000ef8 <_ZN3MCU7Setting8beginSPIEv>:
            Begin SPI Protocol
//----------------------------------------*/

void MCU::Setting::beginSPI(void)
{
  SPCR = (1 << SPE) | (1 << MSTR);
     ef8:	80 e5       	ldi	r24, 0x50	; 80
     efa:	8c bd       	out	0x2c, r24	; 44
  SPSR = (1 << SPI2X); 
     efc:	81 e0       	ldi	r24, 0x01	; 1
     efe:	8d bd       	out	0x2d, r24	; 45
     f00:	08 95       	ret

00000f02 <_ZN3SPI7sendBitEh>:

void TFT::drawPixel(int16_t xPos, int16_t yPos, uint16_t colorValue)
{
  setAddress(xPos, yPos, xPos, yPos);
  exportLongData(colorValue);
}
     f02:	6e bd       	out	0x2e, r22	; 46
     f04:	0d b4       	in	r0, 0x2d	; 45
     f06:	07 fe       	sbrs	r0, 7
     f08:	fd cf       	rjmp	.-6      	; 0xf04 <_ZN3SPI7sendBitEh+0x2>
     f0a:	08 95       	ret

00000f0c <_ZN3SPI13exportCommandEh>:
     f0c:	2a 98       	cbi	0x05, 2	; 5
     f0e:	28 98       	cbi	0x05, 0	; 5
     f10:	0e 94 81 07 	call	0xf02	; 0xf02 <_ZN3SPI7sendBitEh>
     f14:	28 9a       	sbi	0x05, 0	; 5
     f16:	08 95       	ret

00000f18 <_ZN3SPI10exportDataEh>:
     f18:	2a 9a       	sbi	0x05, 2	; 5
     f1a:	28 98       	cbi	0x05, 0	; 5
     f1c:	0e 94 81 07 	call	0xf02	; 0xf02 <_ZN3SPI7sendBitEh>
     f20:	28 9a       	sbi	0x05, 0	; 5
     f22:	08 95       	ret

00000f24 <_ZN3SPI14exportLongDataEj>:
     f24:	1f 93       	push	r17
     f26:	cf 93       	push	r28
     f28:	df 93       	push	r29
     f2a:	ec 01       	movw	r28, r24
     f2c:	16 2f       	mov	r17, r22
     f2e:	67 2f       	mov	r22, r23
     f30:	2a 9a       	sbi	0x05, 2	; 5
     f32:	28 98       	cbi	0x05, 0	; 5
     f34:	0e 94 81 07 	call	0xf02	; 0xf02 <_ZN3SPI7sendBitEh>
     f38:	61 2f       	mov	r22, r17
     f3a:	ce 01       	movw	r24, r28
     f3c:	0e 94 81 07 	call	0xf02	; 0xf02 <_ZN3SPI7sendBitEh>
     f40:	28 9a       	sbi	0x05, 0	; 5
     f42:	df 91       	pop	r29
     f44:	cf 91       	pop	r28
     f46:	1f 91       	pop	r17
     f48:	08 95       	ret

00000f4a <_ZN3TFT5beginEv>:
     f4a:	cf 93       	push	r28
     f4c:	df 93       	push	r29
     f4e:	ec 01       	movw	r28, r24
     f50:	28 9a       	sbi	0x05, 0	; 5
     f52:	29 98       	cbi	0x05, 1	; 5
     f54:	2f ef       	ldi	r18, 0xFF	; 255
     f56:	89 ef       	ldi	r24, 0xF9	; 249
     f58:	90 e0       	ldi	r25, 0x00	; 0
     f5a:	21 50       	subi	r18, 0x01	; 1
     f5c:	80 40       	sbci	r24, 0x00	; 0
     f5e:	90 40       	sbci	r25, 0x00	; 0
     f60:	e1 f7       	brne	.-8      	; 0xf5a <_ZN3TFT5beginEv+0x10>
     f62:	00 c0       	rjmp	.+0      	; 0xf64 <_ZN3TFT5beginEv+0x1a>
     f64:	00 00       	nop
     f66:	29 9a       	sbi	0x05, 1	; 5
     f68:	2f ef       	ldi	r18, 0xFF	; 255
     f6a:	89 e6       	ldi	r24, 0x69	; 105
     f6c:	98 e1       	ldi	r25, 0x18	; 24
     f6e:	21 50       	subi	r18, 0x01	; 1
     f70:	80 40       	sbci	r24, 0x00	; 0
     f72:	90 40       	sbci	r25, 0x00	; 0
     f74:	e1 f7       	brne	.-8      	; 0xf6e <_ZN3TFT5beginEv+0x24>
     f76:	00 c0       	rjmp	.+0      	; 0xf78 <_ZN3TFT5beginEv+0x2e>
     f78:	00 00       	nop
     f7a:	61 e0       	ldi	r22, 0x01	; 1
     f7c:	ce 01       	movw	r24, r28
     f7e:	0e 94 86 07 	call	0xf0c	; 0xf0c <_ZN3SPI13exportCommandEh>
     f82:	2f ef       	ldi	r18, 0xFF	; 255
     f84:	89 ef       	ldi	r24, 0xF9	; 249
     f86:	90 e0       	ldi	r25, 0x00	; 0
     f88:	21 50       	subi	r18, 0x01	; 1
     f8a:	80 40       	sbci	r24, 0x00	; 0
     f8c:	90 40       	sbci	r25, 0x00	; 0
     f8e:	e1 f7       	brne	.-8      	; 0xf88 <_ZN3TFT5beginEv+0x3e>
     f90:	00 c0       	rjmp	.+0      	; 0xf92 <_ZN3TFT5beginEv+0x48>
     f92:	00 00       	nop
     f94:	60 ec       	ldi	r22, 0xC0	; 192
     f96:	ce 01       	movw	r24, r28
     f98:	0e 94 86 07 	call	0xf0c	; 0xf0c <_ZN3SPI13exportCommandEh>
     f9c:	6b e2       	ldi	r22, 0x2B	; 43
     f9e:	ce 01       	movw	r24, r28
     fa0:	0e 94 8c 07 	call	0xf18	; 0xf18 <_ZN3SPI10exportDataEh>
     fa4:	66 e3       	ldi	r22, 0x36	; 54
     fa6:	ce 01       	movw	r24, r28
     fa8:	0e 94 86 07 	call	0xf0c	; 0xf0c <_ZN3SPI13exportCommandEh>
     fac:	68 e4       	ldi	r22, 0x48	; 72
     fae:	ce 01       	movw	r24, r28
     fb0:	0e 94 8c 07 	call	0xf18	; 0xf18 <_ZN3SPI10exportDataEh>
     fb4:	6a e3       	ldi	r22, 0x3A	; 58
     fb6:	ce 01       	movw	r24, r28
     fb8:	0e 94 86 07 	call	0xf0c	; 0xf0c <_ZN3SPI13exportCommandEh>
     fbc:	65 e5       	ldi	r22, 0x55	; 85
     fbe:	ce 01       	movw	r24, r28
     fc0:	0e 94 8c 07 	call	0xf18	; 0xf18 <_ZN3SPI10exportDataEh>
     fc4:	60 e2       	ldi	r22, 0x20	; 32
     fc6:	ce 01       	movw	r24, r28
     fc8:	0e 94 86 07 	call	0xf0c	; 0xf0c <_ZN3SPI13exportCommandEh>
     fcc:	61 e1       	ldi	r22, 0x11	; 17
     fce:	ce 01       	movw	r24, r28
     fd0:	0e 94 86 07 	call	0xf0c	; 0xf0c <_ZN3SPI13exportCommandEh>
     fd4:	2f ef       	ldi	r18, 0xFF	; 255
     fd6:	89 ef       	ldi	r24, 0xF9	; 249
     fd8:	90 e0       	ldi	r25, 0x00	; 0
     fda:	21 50       	subi	r18, 0x01	; 1
     fdc:	80 40       	sbci	r24, 0x00	; 0
     fde:	90 40       	sbci	r25, 0x00	; 0
     fe0:	e1 f7       	brne	.-8      	; 0xfda <_ZN3TFT5beginEv+0x90>
     fe2:	00 c0       	rjmp	.+0      	; 0xfe4 <_ZN3TFT5beginEv+0x9a>
     fe4:	00 00       	nop
     fe6:	69 e2       	ldi	r22, 0x29	; 41
     fe8:	ce 01       	movw	r24, r28
     fea:	0e 94 86 07 	call	0xf0c	; 0xf0c <_ZN3SPI13exportCommandEh>
     fee:	df 91       	pop	r29
     ff0:	cf 91       	pop	r28
     ff2:	08 95       	ret

00000ff4 <_ZN3TFT11setRotationEa>:
     ff4:	1f 93       	push	r17
     ff6:	cf 93       	push	r28
     ff8:	df 93       	push	r29
     ffa:	ec 01       	movw	r28, r24
     ffc:	16 2f       	mov	r17, r22
     ffe:	66 e3       	ldi	r22, 0x36	; 54
    1000:	0e 94 86 07 	call	0xf0c	; 0xf0c <_ZN3SPI13exportCommandEh>
    1004:	11 30       	cpi	r17, 0x01	; 1
    1006:	c1 f0       	breq	.+48     	; 0x1038 <_ZN3TFT11setRotationEa+0x44>
    1008:	1c f4       	brge	.+6      	; 0x1010 <_ZN3TFT11setRotationEa+0x1c>
    100a:	11 23       	and	r17, r17
    100c:	31 f0       	breq	.+12     	; 0x101a <_ZN3TFT11setRotationEa+0x26>
    100e:	2c c0       	rjmp	.+88     	; 0x1068 <_ZN3TFT11setRotationEa+0x74>
    1010:	12 30       	cpi	r17, 0x02	; 2
    1012:	b9 f0       	breq	.+46     	; 0x1042 <_ZN3TFT11setRotationEa+0x4e>
    1014:	13 30       	cpi	r17, 0x03	; 3
    1016:	d1 f0       	breq	.+52     	; 0x104c <_ZN3TFT11setRotationEa+0x58>
    1018:	27 c0       	rjmp	.+78     	; 0x1068 <_ZN3TFT11setRotationEa+0x74>
    101a:	68 e2       	ldi	r22, 0x28	; 40
    101c:	ce 01       	movw	r24, r28
    101e:	0e 94 8c 07 	call	0xf18	; 0xf18 <_ZN3SPI10exportDataEh>
    1022:	88 81       	ld	r24, Y
    1024:	99 81       	ldd	r25, Y+1	; 0x01
    1026:	9d 83       	std	Y+5, r25	; 0x05
    1028:	8c 83       	std	Y+4, r24	; 0x04
    102a:	2a 81       	ldd	r18, Y+2	; 0x02
    102c:	3b 81       	ldd	r19, Y+3	; 0x03
    102e:	39 83       	std	Y+1, r19	; 0x01
    1030:	28 83       	st	Y, r18
    1032:	9b 83       	std	Y+3, r25	; 0x03
    1034:	8a 83       	std	Y+2, r24	; 0x02
    1036:	18 c0       	rjmp	.+48     	; 0x1068 <_ZN3TFT11setRotationEa+0x74>
    1038:	68 e4       	ldi	r22, 0x48	; 72
    103a:	ce 01       	movw	r24, r28
    103c:	0e 94 8c 07 	call	0xf18	; 0xf18 <_ZN3SPI10exportDataEh>
    1040:	13 c0       	rjmp	.+38     	; 0x1068 <_ZN3TFT11setRotationEa+0x74>
    1042:	68 e8       	ldi	r22, 0x88	; 136
    1044:	ce 01       	movw	r24, r28
    1046:	0e 94 8c 07 	call	0xf18	; 0xf18 <_ZN3SPI10exportDataEh>
    104a:	0e c0       	rjmp	.+28     	; 0x1068 <_ZN3TFT11setRotationEa+0x74>
    104c:	68 ee       	ldi	r22, 0xE8	; 232
    104e:	ce 01       	movw	r24, r28
    1050:	0e 94 8c 07 	call	0xf18	; 0xf18 <_ZN3SPI10exportDataEh>
    1054:	88 81       	ld	r24, Y
    1056:	99 81       	ldd	r25, Y+1	; 0x01
    1058:	9d 83       	std	Y+5, r25	; 0x05
    105a:	8c 83       	std	Y+4, r24	; 0x04
    105c:	2a 81       	ldd	r18, Y+2	; 0x02
    105e:	3b 81       	ldd	r19, Y+3	; 0x03
    1060:	39 83       	std	Y+1, r19	; 0x01
    1062:	28 83       	st	Y, r18
    1064:	9b 83       	std	Y+3, r25	; 0x03
    1066:	8a 83       	std	Y+2, r24	; 0x02
    1068:	df 91       	pop	r29
    106a:	cf 91       	pop	r28
    106c:	1f 91       	pop	r17
    106e:	08 95       	ret

00001070 <_ZN3TFT10setAddressEiiii>:
    1070:	af 92       	push	r10
    1072:	bf 92       	push	r11
    1074:	cf 92       	push	r12
    1076:	df 92       	push	r13
    1078:	ef 92       	push	r14
    107a:	ff 92       	push	r15
    107c:	0f 93       	push	r16
    107e:	1f 93       	push	r17
    1080:	cf 93       	push	r28
    1082:	df 93       	push	r29
    1084:	ec 01       	movw	r28, r24
    1086:	5b 01       	movw	r10, r22
    1088:	7a 01       	movw	r14, r20
    108a:	69 01       	movw	r12, r18
    108c:	6a e2       	ldi	r22, 0x2A	; 42
    108e:	0e 94 86 07 	call	0xf0c	; 0xf0c <_ZN3SPI13exportCommandEh>
    1092:	b5 01       	movw	r22, r10
    1094:	ce 01       	movw	r24, r28
    1096:	0e 94 92 07 	call	0xf24	; 0xf24 <_ZN3SPI14exportLongDataEj>
    109a:	b6 01       	movw	r22, r12
    109c:	ce 01       	movw	r24, r28
    109e:	0e 94 92 07 	call	0xf24	; 0xf24 <_ZN3SPI14exportLongDataEj>
    10a2:	6b e2       	ldi	r22, 0x2B	; 43
    10a4:	ce 01       	movw	r24, r28
    10a6:	0e 94 86 07 	call	0xf0c	; 0xf0c <_ZN3SPI13exportCommandEh>
    10aa:	b7 01       	movw	r22, r14
    10ac:	ce 01       	movw	r24, r28
    10ae:	0e 94 92 07 	call	0xf24	; 0xf24 <_ZN3SPI14exportLongDataEj>
    10b2:	b8 01       	movw	r22, r16
    10b4:	ce 01       	movw	r24, r28
    10b6:	0e 94 92 07 	call	0xf24	; 0xf24 <_ZN3SPI14exportLongDataEj>
    10ba:	6c e2       	ldi	r22, 0x2C	; 44
    10bc:	ce 01       	movw	r24, r28
    10be:	0e 94 86 07 	call	0xf0c	; 0xf0c <_ZN3SPI13exportCommandEh>
    10c2:	df 91       	pop	r29
    10c4:	cf 91       	pop	r28
    10c6:	1f 91       	pop	r17
    10c8:	0f 91       	pop	r16
    10ca:	ff 90       	pop	r15
    10cc:	ef 90       	pop	r14
    10ce:	df 90       	pop	r13
    10d0:	cf 90       	pop	r12
    10d2:	bf 90       	pop	r11
    10d4:	af 90       	pop	r10
    10d6:	08 95       	ret

000010d8 <_ZN3TFT10fillScreenEj>:
    10d8:	cf 92       	push	r12
    10da:	df 92       	push	r13
    10dc:	ef 92       	push	r14
    10de:	ff 92       	push	r15
    10e0:	0f 93       	push	r16
    10e2:	1f 93       	push	r17
    10e4:	cf 93       	push	r28
    10e6:	df 93       	push	r29
    10e8:	7c 01       	movw	r14, r24
    10ea:	6b 01       	movw	r12, r22
    10ec:	fc 01       	movw	r30, r24
    10ee:	02 81       	ldd	r16, Z+2	; 0x02
    10f0:	13 81       	ldd	r17, Z+3	; 0x03
    10f2:	01 50       	subi	r16, 0x01	; 1
    10f4:	11 09       	sbc	r17, r1
    10f6:	20 81       	ld	r18, Z
    10f8:	31 81       	ldd	r19, Z+1	; 0x01
    10fa:	21 50       	subi	r18, 0x01	; 1
    10fc:	31 09       	sbc	r19, r1
    10fe:	40 e0       	ldi	r20, 0x00	; 0
    1100:	50 e0       	ldi	r21, 0x00	; 0
    1102:	60 e0       	ldi	r22, 0x00	; 0
    1104:	70 e0       	ldi	r23, 0x00	; 0
    1106:	0e 94 38 08 	call	0x1070	; 0x1070 <_ZN3TFT10setAddressEiiii>
    110a:	f7 01       	movw	r30, r14
    110c:	82 81       	ldd	r24, Z+2	; 0x02
    110e:	93 81       	ldd	r25, Z+3	; 0x03
    1110:	18 16       	cp	r1, r24
    1112:	19 06       	cpc	r1, r25
    1114:	ec f4       	brge	.+58     	; 0x1150 <_ZN3TFT10fillScreenEj+0x78>
    1116:	00 e0       	ldi	r16, 0x00	; 0
    1118:	10 e0       	ldi	r17, 0x00	; 0
    111a:	f7 01       	movw	r30, r14
    111c:	80 81       	ld	r24, Z
    111e:	91 81       	ldd	r25, Z+1	; 0x01
    1120:	18 16       	cp	r1, r24
    1122:	19 06       	cpc	r1, r25
    1124:	6c f4       	brge	.+26     	; 0x1140 <_ZN3TFT10fillScreenEj+0x68>
    1126:	c0 e0       	ldi	r28, 0x00	; 0
    1128:	d0 e0       	ldi	r29, 0x00	; 0
    112a:	b6 01       	movw	r22, r12
    112c:	c7 01       	movw	r24, r14
    112e:	0e 94 92 07 	call	0xf24	; 0xf24 <_ZN3SPI14exportLongDataEj>
    1132:	21 96       	adiw	r28, 0x01	; 1
    1134:	f7 01       	movw	r30, r14
    1136:	80 81       	ld	r24, Z
    1138:	91 81       	ldd	r25, Z+1	; 0x01
    113a:	c8 17       	cp	r28, r24
    113c:	d9 07       	cpc	r29, r25
    113e:	ac f3       	brlt	.-22     	; 0x112a <_ZN3TFT10fillScreenEj+0x52>
    1140:	0f 5f       	subi	r16, 0xFF	; 255
    1142:	1f 4f       	sbci	r17, 0xFF	; 255
    1144:	f7 01       	movw	r30, r14
    1146:	82 81       	ldd	r24, Z+2	; 0x02
    1148:	93 81       	ldd	r25, Z+3	; 0x03
    114a:	08 17       	cp	r16, r24
    114c:	19 07       	cpc	r17, r25
    114e:	2c f3       	brlt	.-54     	; 0x111a <_ZN3TFT10fillScreenEj+0x42>
    1150:	df 91       	pop	r29
    1152:	cf 91       	pop	r28
    1154:	1f 91       	pop	r17
    1156:	0f 91       	pop	r16
    1158:	ff 90       	pop	r15
    115a:	ef 90       	pop	r14
    115c:	df 90       	pop	r13
    115e:	cf 90       	pop	r12
    1160:	08 95       	ret

00001162 <_ZN3TFT8drawRectEiiiij>:
/*----------------------------------------//
              Draw Rect
//----------------------------------------*/

void TFT::drawRect(int16_t xPos, int16_t yPos, int16_t width, int16_t height, uint16_t colorValue)
{
    1162:	af 92       	push	r10
    1164:	bf 92       	push	r11
    1166:	cf 92       	push	r12
    1168:	df 92       	push	r13
    116a:	ef 92       	push	r14
    116c:	ff 92       	push	r15
    116e:	0f 93       	push	r16
    1170:	1f 93       	push	r17
    1172:	cf 93       	push	r28
    1174:	df 93       	push	r29
    1176:	6c 01       	movw	r12, r24
    1178:	59 01       	movw	r10, r18
    117a:	e8 01       	movw	r28, r16

  setAddress(xPos, yPos, (xPos + width - 1), (yPos + height - 1));
    117c:	8a 01       	movw	r16, r20
    117e:	0c 0f       	add	r16, r28
    1180:	1d 1f       	adc	r17, r29
    1182:	01 50       	subi	r16, 0x01	; 1
    1184:	11 09       	sbc	r17, r1
    1186:	9b 01       	movw	r18, r22
    1188:	2a 0d       	add	r18, r10
    118a:	3b 1d       	adc	r19, r11
    118c:	21 50       	subi	r18, 0x01	; 1
    118e:	31 09       	sbc	r19, r1
    1190:	0e 94 38 08 	call	0x1070	; 0x1070 <_ZN3TFT10setAddressEiiii>

  for (yPos = height; yPos > 0; yPos--)
    1194:	1c 16       	cp	r1, r28
    1196:	1d 06       	cpc	r1, r29
    1198:	74 f4       	brge	.+28     	; 0x11b6 <_ZN3TFT8drawRectEiiiij+0x54>
    119a:	8e 01       	movw	r16, r28
  {
    for (xPos = width; xPos > 0; xPos--)
    119c:	1a 14       	cp	r1, r10
    119e:	1b 04       	cpc	r1, r11
    11a0:	3c f4       	brge	.+14     	; 0x11b0 <_ZN3TFT8drawRectEiiiij+0x4e>
    11a2:	e5 01       	movw	r28, r10
    {
      exportLongData(colorValue);
    11a4:	b7 01       	movw	r22, r14
    11a6:	c6 01       	movw	r24, r12
    11a8:	0e 94 92 07 	call	0xf24	; 0xf24 <_ZN3SPI14exportLongDataEj>

  setAddress(xPos, yPos, (xPos + width - 1), (yPos + height - 1));

  for (yPos = height; yPos > 0; yPos--)
  {
    for (xPos = width; xPos > 0; xPos--)
    11ac:	21 97       	sbiw	r28, 0x01	; 1
    11ae:	d1 f7       	brne	.-12     	; 0x11a4 <_ZN3TFT8drawRectEiiiij+0x42>
void TFT::drawRect(int16_t xPos, int16_t yPos, int16_t width, int16_t height, uint16_t colorValue)
{

  setAddress(xPos, yPos, (xPos + width - 1), (yPos + height - 1));

  for (yPos = height; yPos > 0; yPos--)
    11b0:	01 50       	subi	r16, 0x01	; 1
    11b2:	11 09       	sbc	r17, r1
    11b4:	99 f7       	brne	.-26     	; 0x119c <_ZN3TFT8drawRectEiiiij+0x3a>
    {
      exportLongData(colorValue);
    }
  }

}
    11b6:	df 91       	pop	r29
    11b8:	cf 91       	pop	r28
    11ba:	1f 91       	pop	r17
    11bc:	0f 91       	pop	r16
    11be:	ff 90       	pop	r15
    11c0:	ef 90       	pop	r14
    11c2:	df 90       	pop	r13
    11c4:	cf 90       	pop	r12
    11c6:	bf 90       	pop	r11
    11c8:	af 90       	pop	r10
    11ca:	08 95       	ret

000011cc <_ZN3TFT10drawBitmapEiiiiPKhjjjj>:
/*----------------------------------------//
              Draw Bitmap
//----------------------------------------*/

void TFT::drawBitmap(int16_t xPos, int16_t yPos, int16_t width, int16_t height, const uint8_t *bitmap, uint16_t color0Bit, uint16_t color1Bit, uint16_t color2Bit, uint16_t color3Bit)
{
    11cc:	2f 92       	push	r2
    11ce:	3f 92       	push	r3
    11d0:	4f 92       	push	r4
    11d2:	5f 92       	push	r5
    11d4:	6f 92       	push	r6
    11d6:	7f 92       	push	r7
    11d8:	8f 92       	push	r8
    11da:	9f 92       	push	r9
    11dc:	af 92       	push	r10
    11de:	bf 92       	push	r11
    11e0:	cf 92       	push	r12
    11e2:	df 92       	push	r13
    11e4:	ef 92       	push	r14
    11e6:	ff 92       	push	r15
    11e8:	0f 93       	push	r16
    11ea:	1f 93       	push	r17
    11ec:	cf 93       	push	r28
    11ee:	df 93       	push	r29
    11f0:	cd b7       	in	r28, 0x3d	; 61
    11f2:	de b7       	in	r29, 0x3e	; 62
    11f4:	2a 97       	sbiw	r28, 0x0a	; 10
    11f6:	0f b6       	in	r0, 0x3f	; 63
    11f8:	f8 94       	cli
    11fa:	de bf       	out	0x3e, r29	; 62
    11fc:	0f be       	out	0x3f, r0	; 63
    11fe:	cd bf       	out	0x3d, r28	; 61
    1200:	3c 01       	movw	r6, r24
    1202:	29 01       	movw	r4, r18
    1204:	18 87       	std	Y+8, r17	; 0x08
    1206:	0f 83       	std	Y+7, r16	; 0x07
    1208:	16 01       	movw	r2, r12
    120a:	ba 82       	std	Y+2, r11	; 0x02
    120c:	a9 82       	std	Y+1, r10	; 0x01
    120e:	9c 82       	std	Y+4, r9	; 0x04
    1210:	8b 82       	std	Y+3, r8	; 0x03

  uint8_t data;
  uint8_t temp;

  setAddress(xPos, yPos, (xPos+ width-1), (yPos+ height-1));
    1212:	04 0f       	add	r16, r20
    1214:	15 1f       	adc	r17, r21
    1216:	01 50       	subi	r16, 0x01	; 1
    1218:	11 09       	sbc	r17, r1
    121a:	9b 01       	movw	r18, r22
    121c:	24 0d       	add	r18, r4
    121e:	35 1d       	adc	r19, r5
    1220:	21 50       	subi	r18, 0x01	; 1
    1222:	31 09       	sbc	r19, r1
    1224:	0e 94 38 08 	call	0x1070	; 0x1070 <_ZN3TFT10setAddressEiiii>

  for (int i=0; i<height; i++)
    1228:	2f 81       	ldd	r18, Y+7	; 0x07
    122a:	38 85       	ldd	r19, Y+8	; 0x08
    122c:	12 16       	cp	r1, r18
    122e:	13 06       	cpc	r1, r19
    1230:	0c f0       	brlt	.+2      	; 0x1234 <_ZN3TFT10drawBitmapEiiiiPKhjjjj+0x68>
    1232:	5b c0       	rjmp	.+182    	; 0x12ea <_ZN3TFT10drawBitmapEiiiiPKhjjjj+0x11e>
  {
    for (int j=0; j<(width/4); j++)
    1234:	c2 01       	movw	r24, r4
    1236:	99 23       	and	r25, r25
    1238:	0c f4       	brge	.+2      	; 0x123c <_ZN3TFT10drawBitmapEiiiiPKhjjjj+0x70>
    123a:	03 96       	adiw	r24, 0x03	; 3
    123c:	fc 01       	movw	r30, r24
    123e:	f5 95       	asr	r31
    1240:	e7 95       	ror	r30
    1242:	f5 95       	asr	r31
    1244:	e7 95       	ror	r30
    1246:	fa 87       	std	Y+10, r31	; 0x0a
    1248:	e9 87       	std	Y+9, r30	; 0x09
    124a:	fe 83       	std	Y+6, r31	; 0x06
    124c:	ed 83       	std	Y+5, r30	; 0x05
    124e:	ae 2c       	mov	r10, r14
    1250:	bf 2c       	mov	r11, r15
    1252:	41 2c       	mov	r4, r1
    1254:	51 2c       	mov	r5, r1
    1256:	29 85       	ldd	r18, Y+9	; 0x09
    1258:	3a 85       	ldd	r19, Y+10	; 0x0a
    125a:	12 16       	cp	r1, r18
    125c:	13 06       	cpc	r1, r19
    125e:	c4 f5       	brge	.+112    	; 0x12d0 <_ZN3TFT10drawBitmapEiiiiPKhjjjj+0x104>
    1260:	ed 80       	ldd	r14, Y+5	; 0x05
    1262:	fe 80       	ldd	r15, Y+6	; 0x06
    1264:	ea 0c       	add	r14, r10
    1266:	fb 1c       	adc	r15, r11
    1268:	85 01       	movw	r16, r10
    {

      data = pgm_read_byte( &bitmap[i* (width/4) +j] );
    126a:	f8 01       	movw	r30, r16
    126c:	94 90       	lpm	r9, Z
    126e:	68 94       	set
    1270:	cc 24       	eor	r12, r12
    1272:	c2 f8       	bld	r12, 2
    1274:	d1 2c       	mov	r13, r1

      for (int k=0; k<4; k++)
      {
        temp = data >> 6;
    1276:	89 2d       	mov	r24, r9
    1278:	82 95       	swap	r24
    127a:	86 95       	lsr	r24
    127c:	86 95       	lsr	r24
    127e:	83 70       	andi	r24, 0x03	; 3

        if (temp == 0x00) //1Pixel = 00
    1280:	29 f4       	brne	.+10     	; 0x128c <_ZN3TFT10drawBitmapEiiiiPKhjjjj+0xc0>
        {
          exportLongData(color0Bit);
    1282:	b1 01       	movw	r22, r2
    1284:	c3 01       	movw	r24, r6
    1286:	0e 94 92 07 	call	0xf24	; 0xf24 <_ZN3SPI14exportLongDataEj>
    128a:	17 c0       	rjmp	.+46     	; 0x12ba <_ZN3TFT10drawBitmapEiiiiPKhjjjj+0xee>
        }

        else if (temp == 0x01)  //1Pixel = 01
    128c:	81 30       	cpi	r24, 0x01	; 1
    128e:	31 f4       	brne	.+12     	; 0x129c <_ZN3TFT10drawBitmapEiiiiPKhjjjj+0xd0>
        {
          exportLongData(color1Bit);
    1290:	69 81       	ldd	r22, Y+1	; 0x01
    1292:	7a 81       	ldd	r23, Y+2	; 0x02
    1294:	c3 01       	movw	r24, r6
    1296:	0e 94 92 07 	call	0xf24	; 0xf24 <_ZN3SPI14exportLongDataEj>
    129a:	0f c0       	rjmp	.+30     	; 0x12ba <_ZN3TFT10drawBitmapEiiiiPKhjjjj+0xee>
        }

        else if (temp == 0x02)  //1Pixel = 10
    129c:	82 30       	cpi	r24, 0x02	; 2
    129e:	31 f4       	brne	.+12     	; 0x12ac <_ZN3TFT10drawBitmapEiiiiPKhjjjj+0xe0>
        {
          exportLongData(color2Bit);
    12a0:	6b 81       	ldd	r22, Y+3	; 0x03
    12a2:	7c 81       	ldd	r23, Y+4	; 0x04
    12a4:	c3 01       	movw	r24, r6
    12a6:	0e 94 92 07 	call	0xf24	; 0xf24 <_ZN3SPI14exportLongDataEj>
    12aa:	07 c0       	rjmp	.+14     	; 0x12ba <_ZN3TFT10drawBitmapEiiiiPKhjjjj+0xee>
        }

        else if (temp == 0x03)  //1Pixel = 11
    12ac:	83 30       	cpi	r24, 0x03	; 3
    12ae:	29 f4       	brne	.+10     	; 0x12ba <_ZN3TFT10drawBitmapEiiiiPKhjjjj+0xee>
        {
          exportLongData(color3Bit);
    12b0:	6f 8d       	ldd	r22, Y+31	; 0x1f
    12b2:	78 a1       	ldd	r23, Y+32	; 0x20
    12b4:	c3 01       	movw	r24, r6
    12b6:	0e 94 92 07 	call	0xf24	; 0xf24 <_ZN3SPI14exportLongDataEj>
        }

        data <<= 2;
    12ba:	99 0c       	add	r9, r9
    12bc:	99 0c       	add	r9, r9
    12be:	f1 e0       	ldi	r31, 0x01	; 1
    12c0:	cf 1a       	sub	r12, r31
    12c2:	d1 08       	sbc	r13, r1
    for (int j=0; j<(width/4); j++)
    {

      data = pgm_read_byte( &bitmap[i* (width/4) +j] );

      for (int k=0; k<4; k++)
    12c4:	c1 f6       	brne	.-80     	; 0x1276 <_ZN3TFT10drawBitmapEiiiiPKhjjjj+0xaa>
    12c6:	0f 5f       	subi	r16, 0xFF	; 255
    12c8:	1f 4f       	sbci	r17, 0xFF	; 255

  setAddress(xPos, yPos, (xPos+ width-1), (yPos+ height-1));

  for (int i=0; i<height; i++)
  {
    for (int j=0; j<(width/4); j++)
    12ca:	e0 16       	cp	r14, r16
    12cc:	f1 06       	cpc	r15, r17
    12ce:	69 f6       	brne	.-102    	; 0x126a <_ZN3TFT10drawBitmapEiiiiPKhjjjj+0x9e>
  uint8_t data;
  uint8_t temp;

  setAddress(xPos, yPos, (xPos+ width-1), (yPos+ height-1));

  for (int i=0; i<height; i++)
    12d0:	2f ef       	ldi	r18, 0xFF	; 255
    12d2:	42 1a       	sub	r4, r18
    12d4:	52 0a       	sbc	r5, r18
    12d6:	8d 81       	ldd	r24, Y+5	; 0x05
    12d8:	9e 81       	ldd	r25, Y+6	; 0x06
    12da:	a8 0e       	add	r10, r24
    12dc:	b9 1e       	adc	r11, r25
    12de:	ef 81       	ldd	r30, Y+7	; 0x07
    12e0:	f8 85       	ldd	r31, Y+8	; 0x08
    12e2:	e4 15       	cp	r30, r4
    12e4:	f5 05       	cpc	r31, r5
    12e6:	09 f0       	breq	.+2      	; 0x12ea <_ZN3TFT10drawBitmapEiiiiPKhjjjj+0x11e>
    12e8:	b6 cf       	rjmp	.-148    	; 0x1256 <_ZN3TFT10drawBitmapEiiiiPKhjjjj+0x8a>
      }

    }
  }

}
    12ea:	2a 96       	adiw	r28, 0x0a	; 10
    12ec:	0f b6       	in	r0, 0x3f	; 63
    12ee:	f8 94       	cli
    12f0:	de bf       	out	0x3e, r29	; 62
    12f2:	0f be       	out	0x3f, r0	; 63
    12f4:	cd bf       	out	0x3d, r28	; 61
    12f6:	df 91       	pop	r29
    12f8:	cf 91       	pop	r28
    12fa:	1f 91       	pop	r17
    12fc:	0f 91       	pop	r16
    12fe:	ff 90       	pop	r15
    1300:	ef 90       	pop	r14
    1302:	df 90       	pop	r13
    1304:	cf 90       	pop	r12
    1306:	bf 90       	pop	r11
    1308:	af 90       	pop	r10
    130a:	9f 90       	pop	r9
    130c:	8f 90       	pop	r8
    130e:	7f 90       	pop	r7
    1310:	6f 90       	pop	r6
    1312:	5f 90       	pop	r5
    1314:	4f 90       	pop	r4
    1316:	3f 90       	pop	r3
    1318:	2f 90       	pop	r2
    131a:	08 95       	ret

0000131c <_ZN3TFT15drawBitmapTwiceEiiiiPKhjjjj>:
/*----------------------------------------//
            Draw Bitmap Twice
//----------------------------------------*/

void TFT::drawBitmapTwice(int16_t xPos, int16_t yPos, int16_t width, int16_t height, const uint8_t *bitmap, uint16_t color0Bit, uint16_t color1Bit, uint16_t color2Bit, uint16_t color3Bit)
{
    131c:	2f 92       	push	r2
    131e:	3f 92       	push	r3
    1320:	4f 92       	push	r4
    1322:	5f 92       	push	r5
    1324:	6f 92       	push	r6
    1326:	7f 92       	push	r7
    1328:	8f 92       	push	r8
    132a:	9f 92       	push	r9
    132c:	af 92       	push	r10
    132e:	bf 92       	push	r11
    1330:	cf 92       	push	r12
    1332:	df 92       	push	r13
    1334:	ef 92       	push	r14
    1336:	ff 92       	push	r15
    1338:	0f 93       	push	r16
    133a:	1f 93       	push	r17
    133c:	cf 93       	push	r28
    133e:	df 93       	push	r29
    1340:	cd b7       	in	r28, 0x3d	; 61
    1342:	de b7       	in	r29, 0x3e	; 62
    1344:	2c 97       	sbiw	r28, 0x0c	; 12
    1346:	0f b6       	in	r0, 0x3f	; 63
    1348:	f8 94       	cli
    134a:	de bf       	out	0x3e, r29	; 62
    134c:	0f be       	out	0x3f, r0	; 63
    134e:	cd bf       	out	0x3d, r28	; 61
    1350:	3c 01       	movw	r6, r24
    1352:	19 01       	movw	r2, r18
    1354:	28 01       	movw	r4, r16
    1356:	9a 82       	std	Y+2, r9	; 0x02
    1358:	89 82       	std	Y+1, r8	; 0x01

  uint8_t data;
  uint8_t temp;

  setAddress(xPos, yPos, (xPos+ width-1), (yPos+ height-1));
    135a:	8a 01       	movw	r16, r20
    135c:	04 0d       	add	r16, r4
    135e:	15 1d       	adc	r17, r5
    1360:	01 50       	subi	r16, 0x01	; 1
    1362:	11 09       	sbc	r17, r1
    1364:	9b 01       	movw	r18, r22
    1366:	22 0d       	add	r18, r2
    1368:	33 1d       	adc	r19, r3
    136a:	21 50       	subi	r18, 0x01	; 1
    136c:	31 09       	sbc	r19, r1
    136e:	0e 94 38 08 	call	0x1070	; 0x1070 <_ZN3TFT10setAddressEiiii>

  for (int i=0; i<(height/2); i++)
    1372:	c2 01       	movw	r24, r4
    1374:	99 23       	and	r25, r25
    1376:	0c f4       	brge	.+2      	; 0x137a <_ZN3TFT15drawBitmapTwiceEiiiiPKhjjjj+0x5e>
    1378:	01 96       	adiw	r24, 0x01	; 1
    137a:	9c 01       	movw	r18, r24
    137c:	35 95       	asr	r19
    137e:	27 95       	ror	r18
    1380:	3c 87       	std	Y+12, r19	; 0x0c
    1382:	2b 87       	std	Y+11, r18	; 0x0b
    1384:	12 16       	cp	r1, r18
    1386:	13 06       	cpc	r1, r19
    1388:	0c f0       	brlt	.+2      	; 0x138c <_ZN3TFT15drawBitmapTwiceEiiiiPKhjjjj+0x70>
    138a:	80 c0       	rjmp	.+256    	; 0x148c <_ZN3TFT15drawBitmapTwiceEiiiiPKhjjjj+0x170>
  {
    for (int j=0; j<2; j++)
    {
      for (int k=0; k<(width/8); k++)
    138c:	c1 01       	movw	r24, r2
    138e:	99 23       	and	r25, r25
    1390:	0c f4       	brge	.+2      	; 0x1394 <_ZN3TFT15drawBitmapTwiceEiiiiPKhjjjj+0x78>
    1392:	07 96       	adiw	r24, 0x07	; 7
    1394:	fc 01       	movw	r30, r24
    1396:	f5 95       	asr	r31
    1398:	e7 95       	ror	r30
    139a:	f5 95       	asr	r31
    139c:	e7 95       	ror	r30
    139e:	f5 95       	asr	r31
    13a0:	e7 95       	ror	r30
    13a2:	f8 87       	std	Y+8, r31	; 0x08
    13a4:	ef 83       	std	Y+7, r30	; 0x07
    13a6:	fa 87       	std	Y+10, r31	; 0x0a
    13a8:	e9 87       	std	Y+9, r30	; 0x09
    13aa:	eb 82       	std	Y+3, r14	; 0x03
    13ac:	fc 82       	std	Y+4, r15	; 0x04
    13ae:	1e 82       	std	Y+6, r1	; 0x06
    13b0:	1d 82       	std	Y+5, r1	; 0x05
    13b2:	68 94       	set
    13b4:	22 24       	eor	r2, r2
    13b6:	21 f8       	bld	r2, 1
    13b8:	31 2c       	mov	r3, r1
    13ba:	4b 80       	ldd	r4, Y+3	; 0x03
    13bc:	5c 80       	ldd	r5, Y+4	; 0x04
    13be:	29 85       	ldd	r18, Y+9	; 0x09
    13c0:	3a 85       	ldd	r19, Y+10	; 0x0a
    13c2:	42 0e       	add	r4, r18
    13c4:	53 1e       	adc	r5, r19
    13c6:	8f 81       	ldd	r24, Y+7	; 0x07
    13c8:	98 85       	ldd	r25, Y+8	; 0x08
    13ca:	18 16       	cp	r1, r24
    13cc:	19 06       	cpc	r1, r25
    13ce:	0c f0       	brlt	.+2      	; 0x13d2 <_ZN3TFT15drawBitmapTwiceEiiiiPKhjjjj+0xb6>
    13d0:	45 c0       	rjmp	.+138    	; 0x145c <_ZN3TFT15drawBitmapTwiceEiiiiPKhjjjj+0x140>
    13d2:	eb 80       	ldd	r14, Y+3	; 0x03
    13d4:	fc 80       	ldd	r15, Y+4	; 0x04
      {

        data = pgm_read_byte( &bitmap[i* (width/8) +k] );
    13d6:	f7 01       	movw	r30, r14
    13d8:	94 90       	lpm	r9, Z
    13da:	04 e0       	ldi	r16, 0x04	; 4
    13dc:	10 e0       	ldi	r17, 0x00	; 0

        for (int l=0; l<4; l++)
        {
          temp = data >> 6;
    13de:	89 2d       	mov	r24, r9
    13e0:	82 95       	swap	r24
    13e2:	86 95       	lsr	r24
    13e4:	86 95       	lsr	r24
    13e6:	83 70       	andi	r24, 0x03	; 3

          if (temp == 0x00) //1Pixel = 00
    13e8:	49 f4       	brne	.+18     	; 0x13fc <_ZN3TFT15drawBitmapTwiceEiiiiPKhjjjj+0xe0>
          {
            exportLongData(color0Bit);
    13ea:	b6 01       	movw	r22, r12
    13ec:	c3 01       	movw	r24, r6
    13ee:	0e 94 92 07 	call	0xf24	; 0xf24 <_ZN3SPI14exportLongDataEj>
            exportLongData(color0Bit);
    13f2:	b6 01       	movw	r22, r12
    13f4:	c3 01       	movw	r24, r6
    13f6:	0e 94 92 07 	call	0xf24	; 0xf24 <_ZN3SPI14exportLongDataEj>
    13fa:	24 c0       	rjmp	.+72     	; 0x1444 <_ZN3TFT15drawBitmapTwiceEiiiiPKhjjjj+0x128>
          }

          else if (temp == 0x01)  //1Pixel = 01
    13fc:	81 30       	cpi	r24, 0x01	; 1
    13fe:	49 f4       	brne	.+18     	; 0x1412 <_ZN3TFT15drawBitmapTwiceEiiiiPKhjjjj+0xf6>
          {
            exportLongData(color1Bit);
    1400:	b5 01       	movw	r22, r10
    1402:	c3 01       	movw	r24, r6
    1404:	0e 94 92 07 	call	0xf24	; 0xf24 <_ZN3SPI14exportLongDataEj>
            exportLongData(color1Bit);
    1408:	b5 01       	movw	r22, r10
    140a:	c3 01       	movw	r24, r6
    140c:	0e 94 92 07 	call	0xf24	; 0xf24 <_ZN3SPI14exportLongDataEj>
    1410:	19 c0       	rjmp	.+50     	; 0x1444 <_ZN3TFT15drawBitmapTwiceEiiiiPKhjjjj+0x128>
          }

          else if (temp == 0x02)  //1Pixel = 10
    1412:	82 30       	cpi	r24, 0x02	; 2
    1414:	59 f4       	brne	.+22     	; 0x142c <_ZN3TFT15drawBitmapTwiceEiiiiPKhjjjj+0x110>
          {
            exportLongData(color2Bit);
    1416:	69 81       	ldd	r22, Y+1	; 0x01
    1418:	7a 81       	ldd	r23, Y+2	; 0x02
    141a:	c3 01       	movw	r24, r6
    141c:	0e 94 92 07 	call	0xf24	; 0xf24 <_ZN3SPI14exportLongDataEj>
            exportLongData(color2Bit);
    1420:	69 81       	ldd	r22, Y+1	; 0x01
    1422:	7a 81       	ldd	r23, Y+2	; 0x02
    1424:	c3 01       	movw	r24, r6
    1426:	0e 94 92 07 	call	0xf24	; 0xf24 <_ZN3SPI14exportLongDataEj>
    142a:	0c c0       	rjmp	.+24     	; 0x1444 <_ZN3TFT15drawBitmapTwiceEiiiiPKhjjjj+0x128>
          }

          else if (temp == 0x03)  //1Pixel = 11
    142c:	83 30       	cpi	r24, 0x03	; 3
    142e:	51 f4       	brne	.+20     	; 0x1444 <_ZN3TFT15drawBitmapTwiceEiiiiPKhjjjj+0x128>
          {
            exportLongData(color3Bit);
    1430:	69 a1       	ldd	r22, Y+33	; 0x21
    1432:	7a a1       	ldd	r23, Y+34	; 0x22
    1434:	c3 01       	movw	r24, r6
    1436:	0e 94 92 07 	call	0xf24	; 0xf24 <_ZN3SPI14exportLongDataEj>
            exportLongData(color3Bit);
    143a:	69 a1       	ldd	r22, Y+33	; 0x21
    143c:	7a a1       	ldd	r23, Y+34	; 0x22
    143e:	c3 01       	movw	r24, r6
    1440:	0e 94 92 07 	call	0xf24	; 0xf24 <_ZN3SPI14exportLongDataEj>
          }

          data <<= 2;
    1444:	99 0c       	add	r9, r9
    1446:	99 0c       	add	r9, r9
    1448:	01 50       	subi	r16, 0x01	; 1
    144a:	11 09       	sbc	r17, r1
      for (int k=0; k<(width/8); k++)
      {

        data = pgm_read_byte( &bitmap[i* (width/8) +k] );

        for (int l=0; l<4; l++)
    144c:	41 f6       	brne	.-112    	; 0x13de <_ZN3TFT15drawBitmapTwiceEiiiiPKhjjjj+0xc2>
    144e:	ff ef       	ldi	r31, 0xFF	; 255
    1450:	ef 1a       	sub	r14, r31
    1452:	ff 0a       	sbc	r15, r31

  for (int i=0; i<(height/2); i++)
  {
    for (int j=0; j<2; j++)
    {
      for (int k=0; k<(width/8); k++)
    1454:	e4 14       	cp	r14, r4
    1456:	f5 04       	cpc	r15, r5
    1458:	09 f0       	breq	.+2      	; 0x145c <_ZN3TFT15drawBitmapTwiceEiiiiPKhjjjj+0x140>
    145a:	bd cf       	rjmp	.-134    	; 0x13d6 <_ZN3TFT15drawBitmapTwiceEiiiiPKhjjjj+0xba>
    145c:	21 e0       	ldi	r18, 0x01	; 1
    145e:	22 1a       	sub	r2, r18
    1460:	31 08       	sbc	r3, r1

  setAddress(xPos, yPos, (xPos+ width-1), (yPos+ height-1));

  for (int i=0; i<(height/2); i++)
  {
    for (int j=0; j<2; j++)
    1462:	09 f0       	breq	.+2      	; 0x1466 <_ZN3TFT15drawBitmapTwiceEiiiiPKhjjjj+0x14a>
    1464:	b0 cf       	rjmp	.-160    	; 0x13c6 <_ZN3TFT15drawBitmapTwiceEiiiiPKhjjjj+0xaa>
  uint8_t data;
  uint8_t temp;

  setAddress(xPos, yPos, (xPos+ width-1), (yPos+ height-1));

  for (int i=0; i<(height/2); i++)
    1466:	8d 81       	ldd	r24, Y+5	; 0x05
    1468:	9e 81       	ldd	r25, Y+6	; 0x06
    146a:	01 96       	adiw	r24, 0x01	; 1
    146c:	9e 83       	std	Y+6, r25	; 0x06
    146e:	8d 83       	std	Y+5, r24	; 0x05
    1470:	eb 81       	ldd	r30, Y+3	; 0x03
    1472:	fc 81       	ldd	r31, Y+4	; 0x04
    1474:	29 85       	ldd	r18, Y+9	; 0x09
    1476:	3a 85       	ldd	r19, Y+10	; 0x0a
    1478:	e2 0f       	add	r30, r18
    147a:	f3 1f       	adc	r31, r19
    147c:	fc 83       	std	Y+4, r31	; 0x04
    147e:	eb 83       	std	Y+3, r30	; 0x03
    1480:	eb 85       	ldd	r30, Y+11	; 0x0b
    1482:	fc 85       	ldd	r31, Y+12	; 0x0c
    1484:	8e 17       	cp	r24, r30
    1486:	9f 07       	cpc	r25, r31
    1488:	09 f0       	breq	.+2      	; 0x148c <_ZN3TFT15drawBitmapTwiceEiiiiPKhjjjj+0x170>
    148a:	93 cf       	rjmp	.-218    	; 0x13b2 <_ZN3TFT15drawBitmapTwiceEiiiiPKhjjjj+0x96>

      }
    }
  }

}
    148c:	2c 96       	adiw	r28, 0x0c	; 12
    148e:	0f b6       	in	r0, 0x3f	; 63
    1490:	f8 94       	cli
    1492:	de bf       	out	0x3e, r29	; 62
    1494:	0f be       	out	0x3f, r0	; 63
    1496:	cd bf       	out	0x3d, r28	; 61
    1498:	df 91       	pop	r29
    149a:	cf 91       	pop	r28
    149c:	1f 91       	pop	r17
    149e:	0f 91       	pop	r16
    14a0:	ff 90       	pop	r15
    14a2:	ef 90       	pop	r14
    14a4:	df 90       	pop	r13
    14a6:	cf 90       	pop	r12
    14a8:	bf 90       	pop	r11
    14aa:	af 90       	pop	r10
    14ac:	9f 90       	pop	r9
    14ae:	8f 90       	pop	r8
    14b0:	7f 90       	pop	r7
    14b2:	6f 90       	pop	r6
    14b4:	5f 90       	pop	r5
    14b6:	4f 90       	pop	r4
    14b8:	3f 90       	pop	r3
    14ba:	2f 90       	pop	r2
    14bc:	08 95       	ret

000014be <__tablejump2__>:
    14be:	ee 0f       	add	r30, r30
    14c0:	ff 1f       	adc	r31, r31
    14c2:	05 90       	lpm	r0, Z+
    14c4:	f4 91       	lpm	r31, Z
    14c6:	e0 2d       	mov	r30, r0
    14c8:	09 94       	ijmp

000014ca <_exit>:
    14ca:	f8 94       	cli

000014cc <__stop_program>:
    14cc:	ff cf       	rjmp	.-2      	; 0x14cc <__stop_program>
